

Microchip MPLAB XC8 Assembler V2.10 build 88905656 
                                                                                               Wed Apr 29 19:41:53 2020

Microchip MPLAB XC8 C Compiler v2.10 (Free license) build 20190730164152 Og1 
     1                           	processor	18F45K22
     2                           	fnconf	rparam,??,?,0
     3                           	opt	pw 120
     4                           	opt	flic
     5                           	psect	idataBANK0,global,class=CODE,delta=1,noexec
     6                           	psect	cinit,global,reloc=2,class=CODE,delta=1
     7                           	psect	bssCOMRAM,global,class=COMRAM,space=1,delta=1,noexec
     8                           	psect	bssBANK0,global,class=BANK0,space=1,delta=1,lowdata,noexec
     9                           	psect	dataBANK0,global,class=BANK0,space=1,delta=1,lowdata,noexec
    10                           	psect	bssBANK1,global,class=BANK1,space=1,delta=1,lowdata,noexec
    11                           	psect	cstackBANK0,global,class=BANK0,space=1,delta=1,noexec
    12                           	psect	cstackCOMRAM,global,class=COMRAM,space=1,delta=1,noexec
    13                           	psect	text0,global,reloc=2,class=CODE,delta=1
    14                           	psect	text1,global,reloc=2,class=CODE,delta=1
    15                           	psect	text2,global,reloc=2,class=CODE,delta=1
    16                           	psect	text3,global,reloc=2,class=CODE,delta=1
    17                           	psect	text4,global,reloc=2,class=CODE,delta=1
    18                           	psect	text5,global,reloc=2,class=CODE,delta=1
    19                           	psect	text6,global,reloc=2,class=CODE,delta=1
    20                           	psect	text7,global,reloc=2,class=CODE,delta=1,group=2
    21                           	psect	text8,global,reloc=2,class=CODE,delta=1,group=1
    22                           	psect	text9,global,reloc=2,class=CODE,delta=1
    23                           	psect	text10,global,reloc=2,class=CODE,delta=1,group=1
    24                           	psect	text11,global,reloc=2,class=CODE,delta=1,group=1
    25                           	psect	text12,global,reloc=2,class=CODE,delta=1,group=1
    26                           	psect	text13,global,reloc=2,class=CODE,delta=1,group=1
    27                           	psect	text14,global,reloc=2,class=CODE,delta=1,group=1
    28                           	psect	text15,global,reloc=2,class=CODE,delta=1,group=1
    29                           	psect	text16,global,reloc=2,class=CODE,delta=1,group=1
    30                           	psect	text17,global,reloc=2,class=CODE,delta=1
    31                           	psect	intcode,global,reloc=2,class=CODE,delta=1
    32                           	psect	text19,global,reloc=2,class=CODE,delta=1
    33                           	psect	text20,global,reloc=2,class=CODE,delta=1
    34                           	psect	intsave_regs,global,class=BIGRAM,space=1,delta=1,noexec
    35                           	psect	text21,global,reloc=2,class=CODE,delta=1
    36                           	psect	rparam,global,class=COMRAM,space=1,delta=1,noexec
    37                           	psect	temp,global,ovrld,common,class=COMRAM,space=1,delta=1
    38  0000                     
    39                           ; Version 2.10
    40                           ; Generated 31/07/2019 GMT
    41                           ; 
    42                           ; Copyright © 2019, Microchip Technology Inc. and its subsidiaries ("Microchip")
    43                           ; All rights reserved.
    44                           ; 
    45                           ; This software is developed by Microchip Technology Inc. and its subsidiaries ("Microch
      +                          ip").
    46                           ; 
    47                           ; Redistribution and use in source and binary forms, with or without modification, are
    48                           ; permitted provided that the following conditions are met:
    49                           ; 
    50                           ;     1. Redistributions of source code must retain the above copyright notice, this lis
      +                          t of
    51                           ;        conditions and the following disclaimer.
    52                           ; 
    53                           ;     2. Redistributions in binary form must reproduce the above copyright notice, this 
      +                          list
    54                           ;        of conditions and the following disclaimer in the documentation and/or other
    55                           ;        materials provided with the distribution.
    56                           ; 
    57                           ;     3. Microchip's name may not be used to endorse or promote products derived from th
      +                          is
    58                           ;        software without specific prior written permission.
    59                           ; 
    60                           ; THIS SOFTWARE IS PROVIDED BY MICROCHIP "AS IS" AND ANY EXPRESS OR IMPLIED WARRANTIES,
    61                           ; INCLUDING, BUT NOT LIMITED TO, THE IMPLIED WARRANTIES OF MERCHANTABILITY AND FITNESS F
      +                          OR
    62                           ; PURPOSE ARE DISCLAIMED.  IN NO EVENT SHALL MICROCHIP BE LIABLE FOR ANY DIRECT, INDIREC
      +                          T,
    63                           ; INCIDENTAL, SPECIAL, EXEMPLARY, OR CONSEQUENTIAL DAMAGES (INCLUDING BUT NOT LIMITED TO
    64                           ; PROCUREMENT OF SUBSTITUTE GOODS OR SERVICES; LOSS OF USE, DATA OR PROFITS; OR BUSINESS
    65                           ; INTERRUPTION) HOWSOEVER CAUSED AND ON ANY THEORY OF LIABILITY, WHETHER IN CONTRACT, ST
      +                          RICT
    66                           ; LIABILITY, OR TORT (INCLUDING NEGLIGENCE OR OTHERWISE) ARISING IN ANY WAY OUT OF THE U
      +                          SE OF
    67                           ; THIS SOFTWARE, EVEN IF ADVISED OF THE POSSIBILITY OF SUCH DAMAGE.
    68                           ; 
    69                           ; 
    70                           ; Code-generator required, PIC18F45K22 Definitions
    71                           ; 
    72                           ; SFR Addresses
    73  0000                     
    74                           	psect	idataBANK0
    75  00231E                     __pidataBANK0:
    76                           	opt callstack 0
    77                           
    78                           ;initializer for main@F6241
    79  00231E  10                 	db	16
    80  00231F  10                 	db	16
    81  002320  21                 	db	33
    82                           
    83                           ;initializer for main@F6244
    84  002321  10                 	db	16
    85  002322  10                 	db	16
    86  0000                     _ANSELB	set	3897
    87  0000                     _ANSELE	set	3900
    88  0000                     _ANSELC	set	3898
    89  0000                     _ANSELA	set	3896
    90  0000                     _SSP1STATbits	set	4039
    91  0000                     _SSP1ADD	set	4040
    92  0000                     _SSP1CON1bits	set	4038
    93  0000                     _TMR2	set	4028
    94  0000                     _PR2	set	4027
    95  0000                     _T2CONbits	set	4026
    96  0000                     _SSP1CON2bits	set	4037
    97  0000                     _SSP1BUF	set	4041
    98  0000                     _LATB	set	3978
    99  0000                     _LATE	set	3981
   100  0000                     _LATD	set	3980
   101  0000                     _INTCONbits	set	4082
   102  0000                     _INTCON2bits	set	4081
   103  0000                     _WPUB	set	3937
   104  0000                     _TRISB	set	3987
   105  0000                     _TRISE	set	3990
   106  0000                     _TRISD	set	3989
   107  0000                     _TRISC	set	3988
   108  0000                     _TRISA	set	3986
   109  0000                     _OSCCONbits	set	4051
   110  0000                     _SSP1IE	set	31979
   111  0000                     _TMR2IE	set	31977
   112  0000                     _GIE	set	32663
   113  0000                     _PEIE	set	32662
   114  0000                     _TMR2IF	set	31985
   115  0000                     _SSP1IF	set	31987
   116                           
   117                           ; #config settings
   118  0000                     
   119                           	psect	cinit
   120  002216                     __pcinit:
   121                           	opt callstack 0
   122  002216                     start_initialization:
   123                           	opt callstack 0
   124  002216                     __initialization:
   125                           	opt callstack 0
   126                           
   127                           ; Initialize objects allocated to BANK0 (5 bytes)
   128                           ; load TBLPTR registers with __pidataBANK0
   129  002216  0E1E               	movlw	low __pidataBANK0
   130  002218  6EF6               	movwf	tblptrl,c
   131  00221A  0E23               	movlw	high __pidataBANK0
   132  00221C  6EF7               	movwf	tblptrh,c
   133  00221E  0E00               	movlw	low (__pidataBANK0 shr (0+16))
   134  002220  6EF8               	movwf	tblptru,c
   135  002222  EE00  F0AA         	lfsr	0,__pdataBANK0
   136  002226  EE10 F005          	lfsr	1,5
   137  00222A                     copy_data0:
   138  00222A  0009               	tblrd		*+
   139  00222C  CFF5 FFEE          	movff	tablat,postinc0
   140  002230  50E5               	movf	postdec1,w,c
   141  002232  50E1               	movf	fsr1l,w,c
   142  002234  E1FA               	bnz	copy_data0
   143                           
   144                           ; Clear objects allocated to BANK1 (136 bytes)
   145  002236  EE01  F000         	lfsr	0,__pbssBANK1
   146  00223A  0E88               	movlw	136
   147  00223C                     clear_0:
   148  00223C  6AEE               	clrf	postinc0,c
   149  00223E  06E8               	decf	wreg,f,c
   150  002240  E1FD               	bnz	clear_0
   151                           
   152                           ; Clear objects allocated to BANK0 (21 bytes)
   153  002242  EE00  F095         	lfsr	0,__pbssBANK0
   154  002246  0E15               	movlw	21
   155  002248                     clear_1:
   156  002248  6AEE               	clrf	postinc0,c
   157  00224A  06E8               	decf	wreg,f,c
   158  00224C  E1FD               	bnz	clear_1
   159                           
   160                           ; Clear objects allocated to COMRAM (8 bytes)
   161  00224E  EE00  F046         	lfsr	0,__pbssCOMRAM
   162  002252  0E08               	movlw	8
   163  002254                     clear_2:
   164  002254  6AEE               	clrf	postinc0,c
   165  002256  06E8               	decf	wreg,f,c
   166  002258  E1FD               	bnz	clear_2
   167  00225A                     end_of_initialization:
   168                           	opt callstack 0
   169  00225A                     __end_of__initialization:
   170                           	opt callstack 0
   171  00225A  904E               	bcf	int$flags,0,c	;clear compiler interrupt flag (level 1)
   172  00225C  924E               	bcf	int$flags,1,c	;clear compiler interrupt flag (level 2)
   173  00225E  0E00               	movlw	low (__Lmediumconst shr (0+16))
   174  002260  6EF8               	movwf	tblptru,c
   175  002262  0100               	movlb	0
   176  002264  EF81  F00C         	goto	_main	;jump to C main() function
   177                           
   178                           	psect	bssCOMRAM
   179  000046                     __pbssCOMRAM:
   180                           	opt callstack 0
   181  000046                     _timer:
   182                           	opt callstack 0
   183  000046                     	ds	2
   184  000048                     _I2Cadress:
   185                           	opt callstack 0
   186  000048                     	ds	2
   187  00004A                     I2C_ISR@ack:
   188                           	opt callstack 0
   189  00004A                     	ds	1
   190  00004B                     	ds	1
   191  00004C                     I2C_ISR@i:
   192                           	opt callstack 0
   193  00004C                     	ds	1
   194  00004D                     _myMsgID:
   195                           	opt callstack 0
   196  00004D                     	ds	1
   197                           
   198                           	psect	bssBANK0
   199  000095                     __pbssBANK0:
   200                           	opt callstack 0
   201  000095                     _ISRConfig:
   202                           	opt callstack 0
   203  000095                     	ds	21
   204                           
   205                           	psect	dataBANK0
   206  0000AA                     __pdataBANK0:
   207                           	opt callstack 0
   208  0000AA                     main@F6241:
   209                           	opt callstack 0
   210  0000AA                     	ds	3
   211  0000AD                     main@F6244:
   212                           	opt callstack 0
   213  0000AD                     	ds	2
   214                           
   215                           	psect	bssBANK1
   216  000100                     __pbssBANK1:
   217                           	opt callstack 0
   218  000100                     _I2CConfig:
   219                           	opt callstack 0
   220  000100                     	ds	136
   221                           
   222                           	psect	cstackBANK0
   223  000060                     __pcstackBANK0:
   224                           	opt callstack 0
   225  000060                     _I2C_timer_prescaler$752:
   226                           	opt callstack 0
   227                           
   228                           ; 4 bytes @ 0x0
   229  000060                     	ds	4
   230  000064                     _I2C_timer_prescaler$753:
   231                           	opt callstack 0
   232                           
   233                           ; 4 bytes @ 0x4
   234  000064                     	ds	4
   235  000068                     I2C_timer_prescaler@x:
   236                           	opt callstack 0
   237                           
   238                           ; 4 bytes @ 0x8
   239  000068                     	ds	4
   240  00006C                     I2C_timer_prescaler@minB:
   241                           	opt callstack 0
   242                           
   243                           ; 4 bytes @ 0xC
   244  00006C                     	ds	4
   245  000070                     I2C_timer_prescaler@pr_f:
   246                           	opt callstack 0
   247                           
   248                           ; 4 bytes @ 0x10
   249  000070                     	ds	4
   250  000074                     I2C_timer_prescaler@pr:
   251                           	opt callstack 0
   252                           
   253                           ; 2 bytes @ 0x14
   254  000074                     	ds	2
   255  000076                     ?_I2C_Init:
   256                           	opt callstack 0
   257                           
   258                           ; 2 bytes @ 0x16
   259  000076                     	ds	2
   260  000078                     ??_I2C_Init:
   261                           
   262                           ; 1 bytes @ 0x18
   263  000078                     	ds	2
   264  00007A                     I2C_Init@Options:
   265                           	opt callstack 0
   266                           
   267                           ; 1 bytes @ 0x1A
   268  00007A                     	ds	1
   269  00007B                     I2C_Init@prescUsed:
   270                           	opt callstack 0
   271                           
   272                           ; 2 bytes @ 0x1B
   273  00007B                     	ds	2
   274  00007D                     I2C_Init@prUsed:
   275                           	opt callstack 0
   276                           
   277                           ; 2 bytes @ 0x1D
   278  00007D                     	ds	2
   279  00007F                     I2C_Init@min:
   280                           	opt callstack 0
   281                           
   282                           ; 4 bytes @ 0x1F
   283  00007F                     	ds	4
   284  000083                     main@data:
   285                           	opt callstack 0
   286                           
   287                           ; 3 bytes @ 0x23
   288  000083                     	ds	3
   289  000086                     main@dataRcv:
   290                           	opt callstack 0
   291                           
   292                           ; 2 bytes @ 0x26
   293  000086                     	ds	2
   294  000088                     main@reg:
   295                           	opt callstack 0
   296                           
   297                           ; 2 bytes @ 0x28
   298  000088                     	ds	2
   299  00008A                     main@bufferSize:
   300                           	opt callstack 0
   301                           
   302                           ; 2 bytes @ 0x2A
   303  00008A                     	ds	2
   304  00008C                     main@adresse:
   305                           	opt callstack 0
   306                           
   307                           ; 1 bytes @ 0x2C
   308  00008C                     	ds	1
   309  00008D                     main@buffer:
   310                           	opt callstack 0
   311                           
   312                           ; 2 bytes @ 0x2D
   313  00008D                     	ds	2
   314  00008F                     main@Status:
   315                           	opt callstack 0
   316                           
   317                           ; 2 bytes @ 0x2F
   318  00008F                     	ds	2
   319  000091                     main@msgToWrite:
   320                           	opt callstack 0
   321                           
   322                           ; 4 bytes @ 0x31
   323  000091                     	ds	4
   324                           
   325                           	psect	cstackCOMRAM
   326  000001                     __pcstackCOMRAM:
   327                           	opt callstack 0
   328  000001                     ??_I2C_ISR:
   329  000001                     
   330                           ; 2 bytes @ 0x0
   331  000001                     	ds	7
   332  000008                     I2C_ISR@type:
   333                           	opt callstack 0
   334                           
   335                           ; 1 bytes @ 0x7
   336  000008                     	ds	1
   337  000009                     ISR_Tasks@i:
   338                           	opt callstack 0
   339                           
   340                           ; 1 bytes @ 0x8
   341  000009                     	ds	1
   342  00000A                     ??_ISR_Routine:
   343                           
   344                           ; 1 bytes @ 0x9
   345  00000A                     	ds	8
   346  000012                     ?_I2C_Write:
   347                           	opt callstack 0
   348  000012                     ?_I2C_Get_Status:
   349                           	opt callstack 0
   350  000012                     ?_I2C_Read_Buffer:
   351                           	opt callstack 0
   352  000012                     ?___fladd:
   353                           	opt callstack 0
   354  000012                     ?___flmul:
   355                           	opt callstack 0
   356  000012                     ?___fltol:
   357                           	opt callstack 0
   358  000012                     ?___xxtofl:
   359                           	opt callstack 0
   360  000012                     ISR_ConnectFunction@Function:
   361                           	opt callstack 0
   362  000012                     I2C_Write@data:
   363                           	opt callstack 0
   364  000012                     I2C_Read_Register_Request@sendData:
   365                           	opt callstack 0
   366  000012                     I2C_Read_Buffer@adresse:
   367                           	opt callstack 0
   368  000012                     memset@dest:
   369                           	opt callstack 0
   370  000012                     ___fleq@ff1:
   371                           	opt callstack 0
   372  000012                     ___fltol@f1:
   373                           	opt callstack 0
   374  000012                     ___fladd@b:
   375                           	opt callstack 0
   376  000012                     ___flmul@b:
   377                           	opt callstack 0
   378  000012                     ___xxtofl@val:
   379                           	opt callstack 0
   380                           
   381                           ; 4 bytes @ 0x11
   382  000012                     	ds	2
   383  000014                     I2C_Write@sizeData:
   384                           	opt callstack 0
   385  000014                     I2C_Read_Register_Request@sendsizeData:
   386                           	opt callstack 0
   387  000014                     I2C_Read_Buffer@sizeData:
   388                           	opt callstack 0
   389  000014                     memset@c:
   390                           	opt callstack 0
   391                           
   392                           ; 2 bytes @ 0x13
   393  000014                     	ds	1
   394  000015                     I2C_Get_Status@MsgID:
   395                           	opt callstack 0
   396  000015                     I2C_Write@delay:
   397                           	opt callstack 0
   398  000015                     I2C_Read_Register_Request@rcvData:
   399                           	opt callstack 0
   400                           
   401                           ; 2 bytes @ 0x14
   402  000015                     	ds	1
   403  000016                     ??_I2C_Read_Buffer:
   404  000016                     ??___fltol:
   405  000016                     ??___xxtofl:
   406  000016                     I2C_Get_Status@i:
   407                           	opt callstack 0
   408  000016                     I2C_Write@adresse:
   409                           	opt callstack 0
   410  000016                     memset@n:
   411                           	opt callstack 0
   412  000016                     ___fleq@ff2:
   413                           	opt callstack 0
   414  000016                     ___fladd@a:
   415                           	opt callstack 0
   416  000016                     ___flmul@a:
   417                           	opt callstack 0
   418                           
   419                           ; 4 bytes @ 0x15
   420  000016                     	ds	1
   421  000017                     I2C_Read_Register_Request@rcvsizeData:
   422                           	opt callstack 0
   423                           
   424                           ; 1 bytes @ 0x16
   425  000017                     	ds	1
   426  000018                     ??_memset:
   427  000018                     I2C_Read_Register_Request@delay:
   428                           	opt callstack 0
   429  000018                     I2C_Read_Buffer@data:
   430                           	opt callstack 0
   431                           
   432                           ; 2 bytes @ 0x17
   433  000018                     	ds	1
   434  000019                     I2C_Read_Register_Request@adresse:
   435                           	opt callstack 0
   436                           
   437                           ; 1 bytes @ 0x18
   438  000019                     	ds	1
   439  00001A                     ??___fladd:
   440  00001A                     ??___flmul:
   441  00001A                     ??___fleq:
   442  00001A                     I2C_Read_Buffer@i:
   443                           	opt callstack 0
   444  00001A                     ___fltol@sign1:
   445                           	opt callstack 0
   446  00001A                     ___xxtofl@sign:
   447                           	opt callstack 0
   448  00001A                     memset@k:
   449                           	opt callstack 0
   450                           
   451                           ; 2 bytes @ 0x19
   452  00001A                     	ds	1
   453  00001B                     ___fltol@exp1:
   454                           	opt callstack 0
   455  00001B                     ___xxtofl@exp:
   456                           	opt callstack 0
   457                           
   458                           ; 1 bytes @ 0x1A
   459  00001B                     	ds	1
   460  00001C                     memset@s:
   461                           	opt callstack 0
   462  00001C                     ___xxtofl@arg:
   463                           	opt callstack 0
   464                           
   465                           ; 4 bytes @ 0x1B
   466  00001C                     	ds	2
   467  00001E                     ___fladd@signs:
   468                           	opt callstack 0
   469  00001E                     ___flmul@sign:
   470                           	opt callstack 0
   471                           
   472                           ; 1 bytes @ 0x1D
   473  00001E                     	ds	1
   474  00001F                     ___fladd@aexp:
   475                           	opt callstack 0
   476  00001F                     ___flmul@grs:
   477                           	opt callstack 0
   478                           
   479                           ; 4 bytes @ 0x1E
   480  00001F                     	ds	1
   481  000020                     ?___fldiv:
   482                           	opt callstack 0
   483  000020                     ___fladd@bexp:
   484                           	opt callstack 0
   485  000020                     ___fldiv@b:
   486                           	opt callstack 0
   487                           
   488                           ; 4 bytes @ 0x1F
   489  000020                     	ds	1
   490  000021                     ___fladd@grs:
   491                           	opt callstack 0
   492                           
   493                           ; 1 bytes @ 0x20
   494  000021                     	ds	1
   495  000022                     ?___flsub:
   496                           	opt callstack 0
   497  000022                     ___flsub@b:
   498                           	opt callstack 0
   499                           
   500                           ; 4 bytes @ 0x21
   501  000022                     	ds	1
   502  000023                     ___flmul@aexp:
   503                           	opt callstack 0
   504                           
   505                           ; 1 bytes @ 0x22
   506  000023                     	ds	1
   507  000024                     ___flmul@bexp:
   508                           	opt callstack 0
   509  000024                     ___fldiv@a:
   510                           	opt callstack 0
   511                           
   512                           ; 4 bytes @ 0x23
   513  000024                     	ds	1
   514  000025                     ___flmul@prod:
   515                           	opt callstack 0
   516                           
   517                           ; 4 bytes @ 0x24
   518  000025                     	ds	1
   519  000026                     ___flsub@a:
   520                           	opt callstack 0
   521                           
   522                           ; 4 bytes @ 0x25
   523  000026                     	ds	2
   524  000028                     ??___fldiv:
   525                           
   526                           ; 1 bytes @ 0x27
   527  000028                     	ds	1
   528  000029                     ___flmul@temp:
   529                           	opt callstack 0
   530                           
   531                           ; 2 bytes @ 0x28
   532  000029                     	ds	1
   533  00002A                     
   534                           ; 1 bytes @ 0x29
   535  00002A                     	ds	1
   536  00002B                     ___flge@ff1:
   537                           	opt callstack 0
   538                           
   539                           ; 4 bytes @ 0x2A
   540  00002B                     	ds	1
   541  00002C                     ___fldiv@rem:
   542                           	opt callstack 0
   543                           
   544                           ; 4 bytes @ 0x2B
   545  00002C                     	ds	3
   546  00002F                     ___flge@ff2:
   547                           	opt callstack 0
   548                           
   549                           ; 4 bytes @ 0x2E
   550  00002F                     	ds	1
   551  000030                     ___fldiv@sign:
   552                           	opt callstack 0
   553                           
   554                           ; 1 bytes @ 0x2F
   555  000030                     	ds	1
   556  000031                     ___fldiv@new_exp:
   557                           	opt callstack 0
   558                           
   559                           ; 2 bytes @ 0x30
   560  000031                     	ds	2
   561  000033                     ??___flge:
   562  000033                     ___fldiv@grs:
   563                           	opt callstack 0
   564                           
   565                           ; 4 bytes @ 0x32
   566  000033                     	ds	4
   567  000037                     ___fldiv@bexp:
   568                           	opt callstack 0
   569                           
   570                           ; 1 bytes @ 0x36
   571  000037                     	ds	1
   572  000038                     ___fldiv@aexp:
   573                           	opt callstack 0
   574                           
   575                           ; 1 bytes @ 0x37
   576  000038                     	ds	1
   577  000039                     I2C_timer_prescaler@period:
   578                           	opt callstack 0
   579                           
   580                           ; 4 bytes @ 0x38
   581  000039                     	ds	4
   582  00003D                     I2C_timer_prescaler@prUsed:
   583                           	opt callstack 0
   584                           
   585                           ; 2 bytes @ 0x3C
   586  00003D                     	ds	2
   587  00003F                     I2C_timer_prescaler@presc:
   588                           	opt callstack 0
   589                           
   590                           ; 2 bytes @ 0x3E
   591  00003F                     	ds	2
   592  000041                     I2C_timer_prescaler@prescUsed:
   593                           	opt callstack 0
   594                           
   595                           ; 2 bytes @ 0x40
   596  000041                     	ds	2
   597  000043                     I2C_timer_prescaler@min:
   598                           	opt callstack 0
   599                           
   600                           ; 2 bytes @ 0x42
   601  000043                     	ds	2
   602  000045                     
   603                           ; 1 bytes @ 0x44
   604  000045                     	ds	1
   605                           
   606 ;;
   607 ;;Main: autosize = 0, tempsize = 1, incstack = 0, save=0
   608 ;;
   609 ;; *************** function _main *****************
   610 ;; Defined at:
   611 ;;		line 80 in file "main.c"
   612 ;; Parameters:    Size  Location     Type
   613 ;;		None
   614 ;; Auto vars:     Size  Location     Type
   615 ;;  msgToWrite      4   49[BANK0 ] struct .
   616 ;;  data            3   35[BANK0 ] unsigned char [3]
   617 ;;  Status          2   47[BANK0 ] int 
   618 ;;  reg             2   40[BANK0 ] unsigned char [2]
   619 ;;  dataRcv         2   38[BANK0 ] unsigned char [2]
   620 ;;  buffer          2   45[BANK0 ] PTR unsigned char 
   621 ;;		 -> NULL(0), main@dataRcv(2), main@reg(2), main@data(3), 
   622 ;;  bufferSize      2   42[BANK0 ] int 
   623 ;;  adresse         1   44[BANK0 ] unsigned char 
   624 ;; Return value:  Size  Location     Type
   625 ;;                  1    wreg      void 
   626 ;; Registers used:
   627 ;;		wreg, fsr1l, fsr1h, fsr2l, fsr2h, status,2, status,0, prodl, prodh, cstack
   628 ;; Tracked objects:
   629 ;;		On entry : 0/0
   630 ;;		On exit  : 0/0
   631 ;;		Unchanged: 0/0
   632 ;; Data sizes:     COMRAM   BANK0   BANK1   BANK2   BANK3   BANK4   BANK5
   633 ;;      Params:         0       0       0       0       0       0       0
   634 ;;      Locals:         0      18       0       0       0       0       0
   635 ;;      Temps:          1       0       0       0       0       0       0
   636 ;;      Totals:         1      18       0       0       0       0       0
   637 ;;Total ram usage:       19 bytes
   638 ;; Hardware stack levels required when called:    7
   639 ;; This function calls:
   640 ;;		_I2C_Get_Status
   641 ;;		_I2C_Init
   642 ;;		_I2C_Read_Buffer
   643 ;;		_I2C_Read_Register_Request
   644 ;;		_I2C_Write
   645 ;;		_ISR_ConnectFunction
   646 ;;		_ISR_Init
   647 ;; This function is called by:
   648 ;;		Startup code after reset
   649 ;; This function uses a non-reentrant model
   650 ;;
   651                           
   652                           	psect	text0
   653  001902                     __ptext0:
   654                           	opt callstack 0
   655  001902                     _main:
   656                           	opt callstack 24
   657  001902                     
   658                           ;main.c: 81:     OSCCONbits.IRCF = 0b111;
   659  001902  0E70               	movlw	112
   660  001904  12D3               	iorwf	211,f,c	;volatile
   661  001906                     
   662                           ;main.c: 82:     TRISA = 0xFF;
   663  001906  6892               	setf	146,c	;volatile
   664                           
   665                           ;main.c: 83:     TRISC = 0b10111111;
   666  001908  0EBF               	movlw	191
   667  00190A  6E94               	movwf	148,c	;volatile
   668                           
   669                           ;main.c: 84:  TRISD = 0x00;
   670  00190C  0E00               	movlw	0
   671  00190E  6E95               	movwf	149,c	;volatile
   672                           
   673                           ;main.c: 85:  TRISE = 0x00;
   674  001910  0E00               	movlw	0
   675  001912  6E96               	movwf	150,c	;volatile
   676                           
   677                           ;main.c: 86:  TRISB = 0x00;
   678  001914  0E00               	movlw	0
   679  001916  6E93               	movwf	147,c	;volatile
   680                           
   681                           ;main.c: 87:     ANSELA = 0x01;
   682  001918  0E01               	movlw	1
   683  00191A  010F               	movlb	15	; () banked
   684  00191C  6F38               	movwf	56,b	;volatile
   685                           
   686                           ;main.c: 88:     ANSELC = 0;
   687  00191E  0E00               	movlw	0
   688  001920  6F3A               	movwf	58,b	;volatile
   689                           
   690                           ;main.c: 89:     ANSELE = 0;
   691  001922  0E00               	movlw	0
   692  001924  6F3C               	movwf	60,b	;volatile
   693                           
   694                           ;main.c: 90:     ANSELB = 0;
   695  001926  0E00               	movlw	0
   696  001928  6F39               	movwf	57,b	;volatile
   697                           
   698                           ;main.c: 93:     WPUB=0;
   699  00192A  0E00               	movlw	0
   700  00192C  6E61               	movwf	97,c	;volatile
   701  00192E                     
   702                           ; BSR set to: 15
   703                           ;main.c: 94:     INTCON2bits.NOT_RBPU=1;
   704  00192E  8EF1               	bsf	241,7,c	;volatile
   705  001930                     
   706                           ; BSR set to: 15
   707                           ;main.c: 95:     INTCONbits.GIE=1;
   708  001930  8EF2               	bsf	242,7,c	;volatile
   709                           
   710                           ;main.c: 98:     LATD=0;
   711  001932  0E00               	movlw	0
   712  001934  6E8C               	movwf	140,c	;volatile
   713                           
   714                           ;main.c: 99:     LATE=0;
   715  001936  0E00               	movlw	0
   716  001938  6E8D               	movwf	141,c	;volatile
   717                           
   718                           ;main.c: 100:     LATB=0;
   719  00193A  0E00               	movlw	0
   720  00193C  6E8A               	movwf	138,c	;volatile
   721  00193E                     
   722                           ; BSR set to: 15
   723                           ;main.c: 102:     int Status;;main.c: 104:     ISR_Init();
   724  00193E  EC8B  F011         	call	_ISR_Init	;wreg free
   725  001942                     
   726                           ;main.c: 105:     Status = I2C_Init((0x01) | (0x02));
   727  001942  0E03               	movlw	3
   728  001944  ECAC  F00A         	call	_I2C_Init
   729  001948  C076  F08F         	movff	?_I2C_Init,main@Status
   730  00194C  C077  F090         	movff	?_I2C_Init+1,main@Status+1
   731  001950                     
   732                           ;main.c: 106:     if (Status == (-1))
   733  001950  0100               	movlb	0	; () banked
   734  001952  298F               	incf	main@Status& (0+255),w,b
   735  001954  E106               	bnz	u3981
   736  001956  2990               	incf	(main@Status+1)& (0+255),w,b
   737  001958  A4D8               	btfss	status,2,c
   738  00195A  EFB1  F00C         	goto	u3981
   739  00195E  EFB3  F00C         	goto	u3980
   740  001962                     u3981:
   741  001962  EFB6  F00C         	goto	l3663
   742  001966                     u3980:
   743  001966                     l3661:
   744                           
   745                           ; BSR set to: 0
   746                           ;main.c: 107:     {;main.c: 108:         LATD = 0xFF;
   747  001966  688C               	setf	140,c	;volatile
   748                           
   749                           ;main.c: 109:         return;
   750  001968  EF44  F00D         	goto	l75
   751  00196C                     l3663:
   752                           
   753                           ; BSR set to: 0
   754                           ;main.c: 111:     ISR_ConnectFunction(&I2C_ISR);
   755  00196C  0E56               	movlw	low _I2C_ISR
   756  00196E  6E12               	movwf	ISR_ConnectFunction@Function^0,c
   757  001970  0E00               	movlw	high _I2C_ISR
   758  001972  6E13               	movwf	(ISR_ConnectFunction@Function+1)^0,c
   759  001974  EC7C  F011         	call	_ISR_ConnectFunction	;wreg free
   760  001978                     
   761                           ;main.c: 114:     u8 data[3] = {0x10, 0x10, 0x21};
   762  001978  C0AA  F083         	movff	main@F6241,main@data
   763  00197C  C0AB  F084         	movff	main@F6241+1,main@data+1
   764  001980  C0AC  F085         	movff	main@F6241+2,main@data+2
   765  001984                     
   766                           ;main.c: 115:     u8 dataRcv[2];;main.c: 116:     u8 reg[2] = {0x10, 0x10};
   767  001984  C0AD  F088         	movff	main@F6244,main@reg
   768  001988  C0AE  F089         	movff	main@F6244+1,main@reg+1
   769  00198C                     
   770                           ;main.c: 117:     u8 *buffer;;main.c: 118:     int bufferSize;;main.c: 119:     u8 adres
      +                          se;;main.c: 120:     t_I2CMyMsg msgToWrite;;main.c: 121:     msgToWrite.data = data;
   771  00198C  0E83               	movlw	low main@data
   772  00198E  0100               	movlb	0	; () banked
   773  001990  6F91               	movwf	main@msgToWrite& (0+255),b
   774  001992  0E00               	movlw	high main@data
   775  001994  6F92               	movwf	(main@msgToWrite+1)& (0+255),b
   776  001996                     
   777                           ; BSR set to: 0
   778                           ;main.c: 122:     msgToWrite.sizeData = sizeof(data);
   779  001996  0E03               	movlw	3
   780  001998  6F93               	movwf	(main@msgToWrite+2)& (0+255),b
   781  00199A                     
   782                           ; BSR set to: 0
   783                           ;main.c: 124:     Status = I2C_Write((0xAE), msgToWrite.data, msgToWrite.sizeData, 10);
   784  00199A  C091  F012         	movff	main@msgToWrite,I2C_Write@data
   785  00199E  C092  F013         	movff	main@msgToWrite+1,I2C_Write@data+1
   786  0019A2  C093  F014         	movff	main@msgToWrite+2,I2C_Write@sizeData
   787  0019A6  0E0A               	movlw	10
   788  0019A8  6E15               	movwf	I2C_Write@delay^0,c
   789  0019AA  0EAE               	movlw	174
   790  0019AC  ECB7  F00F         	call	_I2C_Write
   791  0019B0  C012  F08F         	movff	?_I2C_Write,main@Status
   792  0019B4  C013  F090         	movff	?_I2C_Write+1,main@Status+1
   793  0019B8                     
   794                           ;main.c: 125:     if (Status == (-1))
   795  0019B8  0100               	movlb	0	; () banked
   796  0019BA  298F               	incf	main@Status& (0+255),w,b
   797  0019BC  E106               	bnz	u3991
   798  0019BE  2990               	incf	(main@Status+1)& (0+255),w,b
   799  0019C0  A4D8               	btfss	status,2,c
   800  0019C2  EFE5  F00C         	goto	u3991
   801  0019C6  EFE7  F00C         	goto	u3990
   802  0019CA                     u3991:
   803  0019CA  EFE9  F00C         	goto	l80
   804  0019CE                     u3990:
   805  0019CE  EFB3  F00C         	goto	l3661
   806  0019D2                     l80:
   807                           
   808                           ; BSR set to: 0
   809                           ;main.c: 130:     msgToWrite.MsgID = (u8) Status;
   810  0019D2  C08F  F094         	movff	main@Status,main@msgToWrite+3
   811  0019D6                     
   812                           ; BSR set to: 0
   813                           ;main.c: 131:     if(I2C_Get_Status(msgToWrite.MsgID)==0)
   814  0019D6  5194               	movf	(main@msgToWrite+3)& (0+255),w,b
   815  0019D8  ECD5  F010         	call	_I2C_Get_Status
   816  0019DC  5012               	movf	?_I2C_Get_Status^0,w,c
   817  0019DE  1013               	iorwf	(?_I2C_Get_Status+1)^0,w,c
   818  0019E0  A4D8               	btfss	status,2,c
   819  0019E2  EFF5  F00C         	goto	u4001
   820  0019E6  EFF7  F00C         	goto	u4000
   821  0019EA                     u4001:
   822  0019EA  EFFA  F00C         	goto	l3683
   823  0019EE                     u4000:
   824  0019EE                     
   825                           ;main.c: 132:         LATD = LATD | 1;
   826  0019EE  508C               	movf	140,w,c	;volatile
   827  0019F0  0901               	iorlw	1
   828  0019F2  6E8C               	movwf	140,c	;volatile
   829  0019F4                     l3683:
   830                           
   831                           ;main.c: 133:     I2C_Read_Register_Request((0xAE), reg, sizeof(reg), dataRcv, 1, 10);
   832  0019F4  0E88               	movlw	low main@reg
   833  0019F6  6E12               	movwf	I2C_Read_Register_Request@sendData^0,c
   834  0019F8  0E00               	movlw	high main@reg
   835  0019FA  6E13               	movwf	(I2C_Read_Register_Request@sendData+1)^0,c
   836  0019FC  0E02               	movlw	2
   837  0019FE  6E14               	movwf	I2C_Read_Register_Request@sendsizeData^0,c
   838  001A00  0E86               	movlw	low main@dataRcv
   839  001A02  6E15               	movwf	I2C_Read_Register_Request@rcvData^0,c
   840  001A04  0E00               	movlw	high main@dataRcv
   841  001A06  6E16               	movwf	(I2C_Read_Register_Request@rcvData+1)^0,c
   842  001A08  0E01               	movlw	1
   843  001A0A  6E17               	movwf	I2C_Read_Register_Request@rcvsizeData^0,c
   844  001A0C  0E0A               	movlw	10
   845  001A0E  6E18               	movwf	I2C_Read_Register_Request@delay^0,c
   846  001A10  0EAE               	movlw	174
   847  001A12  EC01  F00E         	call	_I2C_Read_Register_Request
   848  001A16                     l3685:
   849                           
   850                           ;main.c: 135:     {;main.c: 136:         buffer = I2C_Read_Buffer(&adresse, &bufferSize)
      +                          ;
   851  001A16  0E8C               	movlw	low main@adresse
   852  001A18  6E12               	movwf	I2C_Read_Buffer@adresse^0,c
   853  001A1A  0E00               	movlw	high main@adresse
   854  001A1C  6E13               	movwf	(I2C_Read_Buffer@adresse+1)^0,c
   855  001A1E  0E8A               	movlw	low main@bufferSize
   856  001A20  6E14               	movwf	I2C_Read_Buffer@sizeData^0,c
   857  001A22  0E00               	movlw	high main@bufferSize
   858  001A24  6E15               	movwf	(I2C_Read_Buffer@sizeData+1)^0,c
   859  001A26  EC88  F010         	call	_I2C_Read_Buffer	;wreg free
   860  001A2A  C012  F08D         	movff	?_I2C_Read_Buffer,main@buffer
   861  001A2E  C013  F08E         	movff	?_I2C_Read_Buffer+1,main@buffer+1
   862  001A32                     
   863                           ;main.c: 137:         if(buffer != ((void*)0))
   864  001A32  0100               	movlb	0	; () banked
   865  001A34  518D               	movf	main@buffer& (0+255),w,b
   866  001A36  118E               	iorwf	(main@buffer+1)& (0+255),w,b
   867  001A38  B4D8               	btfsc	status,2,c
   868  001A3A  EF21  F00D         	goto	u4011
   869  001A3E  EF23  F00D         	goto	u4010
   870  001A42                     u4011:
   871  001A42  EF0B  F00D         	goto	l3685
   872  001A46                     u4010:
   873  001A46                     
   874                           ; BSR set to: 0
   875                           ;main.c: 138:         {;main.c: 139:             if(buffer[0]==0x21)
   876  001A46  C08D  FFD9         	movff	main@buffer,fsr2l
   877  001A4A  C08E  FFDA         	movff	main@buffer+1,fsr2h
   878  001A4E  0E21               	movlw	33
   879  001A50  18DE               	xorwf	postinc2,w,c
   880  001A52  A4D8               	btfss	status,2,c
   881  001A54  EF2E  F00D         	goto	u4021
   882  001A58  EF30  F00D         	goto	u4020
   883  001A5C                     u4021:
   884  001A5C  EF33  F00D         	goto	l3693
   885  001A60                     u4020:
   886  001A60                     
   887                           ; BSR set to: 0
   888                           ;main.c: 140:                 LATD = LATD | 2;
   889  001A60  508C               	movf	140,w,c	;volatile
   890  001A62  0902               	iorlw	2
   891  001A64  6E8C               	movwf	140,c	;volatile
   892  001A66                     l3693:
   893                           
   894                           ; BSR set to: 0
   895                           ;main.c: 141:             if(I2C_Get_Status(msgToWrite.MsgID)==1)
   896  001A66  5194               	movf	(main@msgToWrite+3)& (0+255),w,b
   897  001A68  ECD5  F010         	call	_I2C_Get_Status
   898  001A6C  0412               	decf	?_I2C_Get_Status^0,w,c
   899  001A6E  1013               	iorwf	(?_I2C_Get_Status+1)^0,w,c
   900  001A70  A4D8               	btfss	status,2,c
   901  001A72  EF3D  F00D         	goto	u4031
   902  001A76  EF3F  F00D         	goto	u4030
   903  001A7A                     u4031:
   904  001A7A  EF0B  F00D         	goto	l3685
   905  001A7E                     u4030:
   906  001A7E                     
   907                           ;main.c: 142:                 LATD = LATD | 4;
   908  001A7E  508C               	movf	140,w,c	;volatile
   909  001A80  0904               	iorlw	4
   910  001A82  6E8C               	movwf	140,c	;volatile
   911  001A84  EF0B  F00D         	goto	l3685
   912  001A88                     l75:
   913                           
   914                           ; BSR set to: 0
   915  001A88  EF29  F000         	goto	start
   916  001A8C                     __end_of_main:
   917                           	opt callstack 0
   918                           
   919 ;; *************** function _ISR_Init *****************
   920 ;; Defined at:
   921 ;;		line 60 in file "interrupt.c"
   922 ;; Parameters:    Size  Location     Type
   923 ;;		None
   924 ;; Auto vars:     Size  Location     Type
   925 ;;		None
   926 ;; Return value:  Size  Location     Type
   927 ;;                  2   11[None  ] int 
   928 ;; Registers used:
   929 ;;		wreg, status,2
   930 ;; Tracked objects:
   931 ;;		On entry : 0/0
   932 ;;		On exit  : 0/0
   933 ;;		Unchanged: 0/0
   934 ;; Data sizes:     COMRAM   BANK0   BANK1   BANK2   BANK3   BANK4   BANK5
   935 ;;      Params:         0       0       0       0       0       0       0
   936 ;;      Locals:         0       0       0       0       0       0       0
   937 ;;      Temps:          0       0       0       0       0       0       0
   938 ;;      Totals:         0       0       0       0       0       0       0
   939 ;;Total ram usage:        0 bytes
   940 ;; Hardware stack levels used:    1
   941 ;; Hardware stack levels required when called:    3
   942 ;; This function calls:
   943 ;;		Nothing
   944 ;; This function is called by:
   945 ;;		_main
   946 ;; This function uses a non-reentrant model
   947 ;;
   948                           
   949                           	psect	text1
   950  002316                     __ptext1:
   951                           	opt callstack 0
   952  002316                     _ISR_Init:
   953                           	opt callstack 27
   954  002316                     
   955                           ;interrupt.c: 62:     ISRConfig.ISRnbr = 0;
   956  002316  0E00               	movlw	0
   957  002318  0100               	movlb	0	; () banked
   958  00231A  6F95               	movwf	_ISRConfig& (0+255),b
   959  00231C                     
   960                           ; BSR set to: 0
   961  00231C  0012               	return		;funcret
   962  00231E                     __end_of_ISR_Init:
   963                           	opt callstack 0
   964                           
   965 ;; *************** function _ISR_ConnectFunction *****************
   966 ;; Defined at:
   967 ;;		line 81 in file "interrupt.c"
   968 ;; Parameters:    Size  Location     Type
   969 ;;  Function        2   17[COMRAM] PTR FTN()void 
   970 ;;		 -> I2C_ISR(1), 
   971 ;; Auto vars:     Size  Location     Type
   972 ;;		None
   973 ;; Return value:  Size  Location     Type
   974 ;;                  2   17[COMRAM] int 
   975 ;; Registers used:
   976 ;;		wreg, fsr2l, fsr2h, status,2, status,0, prodl, prodh
   977 ;; Tracked objects:
   978 ;;		On entry : 0/0
   979 ;;		On exit  : 0/0
   980 ;;		Unchanged: 0/0
   981 ;; Data sizes:     COMRAM   BANK0   BANK1   BANK2   BANK3   BANK4   BANK5
   982 ;;      Params:         2       0       0       0       0       0       0
   983 ;;      Locals:         0       0       0       0       0       0       0
   984 ;;      Temps:          0       0       0       0       0       0       0
   985 ;;      Totals:         2       0       0       0       0       0       0
   986 ;;Total ram usage:        2 bytes
   987 ;; Hardware stack levels used:    1
   988 ;; Hardware stack levels required when called:    3
   989 ;; This function calls:
   990 ;;		Nothing
   991 ;; This function is called by:
   992 ;;		_main
   993 ;; This function uses a non-reentrant model
   994 ;;
   995                           
   996                           	psect	text2
   997  0022F8                     __ptext2:
   998                           	opt callstack 0
   999  0022F8                     _ISR_ConnectFunction:
  1000                           	opt callstack 27
  1001  0022F8                     
  1002                           ;interrupt.c: 81: int ISR_ConnectFunction(ISR_FunctionPtr Function);interrupt.c: 82: {;i
      +                          nterrupt.c: 83:     ISRConfig.FunctTab[ISRConfig.ISRnbr] = Function;
  1003  0022F8  0100               	movlb	0	; () banked
  1004  0022FA  5195               	movf	_ISRConfig& (0+255),w,b
  1005  0022FC  0D02               	mullw	2
  1006  0022FE  0E96               	movlw	low (_ISRConfig+1)
  1007  002300  24F3               	addwf	243,w,c
  1008  002302  6ED9               	movwf	fsr2l,c
  1009  002304  0E00               	movlw	high (_ISRConfig+1)
  1010  002306  20F4               	addwfc	prodh,w,c
  1011  002308  6EDA               	movwf	fsr2h,c
  1012  00230A  C012  FFDE         	movff	ISR_ConnectFunction@Function,postinc2
  1013  00230E  C013  FFDD         	movff	ISR_ConnectFunction@Function+1,postdec2
  1014  002312                     
  1015                           ; BSR set to: 0
  1016                           ;interrupt.c: 84:     ISRConfig.ISRnbr++;
  1017  002312  2B95               	incf	_ISRConfig& (0+255),f,b
  1018  002314                     
  1019                           ; BSR set to: 0
  1020  002314  0012               	return		;funcret
  1021  002316                     __end_of_ISR_ConnectFunction:
  1022                           	opt callstack 0
  1023                           
  1024 ;; *************** function _I2C_Write *****************
  1025 ;; Defined at:
  1026 ;;		line 324 in file "I2C.c"
  1027 ;; Parameters:    Size  Location     Type
  1028 ;;  adresse         1    wreg     unsigned char 
  1029 ;;  data            2   17[COMRAM] PTR unsigned char 
  1030 ;;		 -> main@data(3), 
  1031 ;;  sizeData        1   19[COMRAM] unsigned char 
  1032 ;;  delay           1   20[COMRAM] unsigned char 
  1033 ;; Auto vars:     Size  Location     Type
  1034 ;;  adresse         1   21[COMRAM] unsigned char 
  1035 ;; Return value:  Size  Location     Type
  1036 ;;                  2   17[COMRAM] int 
  1037 ;; Registers used:
  1038 ;;		wreg, fsr2l, fsr2h, status,2, status,0, prodl, prodh
  1039 ;; Tracked objects:
  1040 ;;		On entry : 0/0
  1041 ;;		On exit  : 0/0
  1042 ;;		Unchanged: 0/0
  1043 ;; Data sizes:     COMRAM   BANK0   BANK1   BANK2   BANK3   BANK4   BANK5
  1044 ;;      Params:         4       0       0       0       0       0       0
  1045 ;;      Locals:         1       0       0       0       0       0       0
  1046 ;;      Temps:          0       0       0       0       0       0       0
  1047 ;;      Totals:         5       0       0       0       0       0       0
  1048 ;;Total ram usage:        5 bytes
  1049 ;; Hardware stack levels used:    1
  1050 ;; Hardware stack levels required when called:    3
  1051 ;; This function calls:
  1052 ;;		Nothing
  1053 ;; This function is called by:
  1054 ;;		_main
  1055 ;; This function uses a non-reentrant model
  1056 ;;
  1057                           
  1058                           	psect	text3
  1059  001F6E                     __ptext3:
  1060                           	opt callstack 0
  1061  001F6E                     _I2C_Write:
  1062                           	opt callstack 27
  1063                           
  1064                           ; BSR set to: 0
  1065                           ;incstack = 0
  1066                           ;I2C_Write@adresse stored from wreg
  1067  001F6E  6E16               	movwf	I2C_Write@adresse^0,c
  1068  001F70                     
  1069                           ;I2C.c: 324: int I2C_Write(u8 adresse, u8 *data, u8 sizeData, u8 delay);I2C.c: 325: {;I2
      +                          C.c: 326:     if(I2CConfig.Status != 1)
  1070  001F70  0101               	movlb	1	; () banked
  1071  001F72  0586               	decf	(_I2CConfig+134)& (0+255),w,b
  1072  001F74  B4D8               	btfsc	status,2,c
  1073  001F76  EFBF  F00F         	goto	u3631
  1074  001F7A  EFC1  F00F         	goto	u3630
  1075  001F7E                     u3631:
  1076  001F7E  EFC5  F00F         	goto	l232
  1077  001F82                     u3630:
  1078  001F82                     l3251:
  1079                           
  1080                           ; BSR set to: 1
  1081                           ;I2C.c: 327:         return (-1);
  1082  001F82  6812               	setf	?_I2C_Write^0,c
  1083  001F84  6813               	setf	(?_I2C_Write+1)^0,c
  1084  001F86  EF32  F010         	goto	l233
  1085  001F8A                     l232:
  1086                           
  1087                           ; BSR set to: 1
  1088                           ;I2C.c: 328:     if((I2CConfig.Options & (0x02)) == 0)
  1089  001F8A  B387               	btfsc	(_I2CConfig+135)& (0+255),1,b
  1090  001F8C  EFCA  F00F         	goto	u3641
  1091  001F90  EFCC  F00F         	goto	u3640
  1092  001F94                     u3641:
  1093  001F94  EFCE  F00F         	goto	l3255
  1094  001F98                     u3640:
  1095  001F98  EFC1  F00F         	goto	l3251
  1096  001F9C                     l3255:
  1097                           
  1098                           ; BSR set to: 1
  1099                           ;I2C.c: 330:     if(I2CConfig.BufferNbr >= 9)
  1100  001F9C  0E08               	movlw	8
  1101  001F9E  6584               	cpfsgt	(_I2CConfig+132)& (0+255),b
  1102  001FA0  EFD4  F00F         	goto	u3651
  1103  001FA4  EFD6  F00F         	goto	u3650
  1104  001FA8                     u3651:
  1105  001FA8  EFDC  F00F         	goto	l3261
  1106  001FAC                     u3650:
  1107  001FAC                     
  1108                           ; BSR set to: 1
  1109                           ;I2C.c: 331:         return ( 1);
  1110  001FAC  0E00               	movlw	0
  1111  001FAE  6E13               	movwf	(?_I2C_Write+1)^0,c
  1112  001FB0  0E01               	movlw	1
  1113  001FB2  6E12               	movwf	?_I2C_Write^0,c
  1114  001FB4  EF32  F010         	goto	l233
  1115  001FB8                     l3261:
  1116                           
  1117                           ; BSR set to: 1
  1118                           ;I2C.c: 333:     myMsgID++;
  1119  001FB8  2A4D               	incf	_myMsgID^0,f,c
  1120  001FBA                     
  1121                           ; BSR set to: 1
  1122                           ;I2C.c: 334:     if(myMsgID == 0)
  1123  001FBA  504D               	movf	_myMsgID^0,w,c
  1124  001FBC  A4D8               	btfss	status,2,c
  1125  001FBE  EFE3  F00F         	goto	u3661
  1126  001FC2  EFE5  F00F         	goto	u3660
  1127  001FC6                     u3661:
  1128  001FC6  EFE6  F00F         	goto	l3267
  1129  001FCA                     u3660:
  1130  001FCA                     
  1131                           ; BSR set to: 1
  1132                           ;I2C.c: 335:         myMsgID++;
  1133  001FCA  2A4D               	incf	_myMsgID^0,f,c
  1134  001FCC                     l3267:
  1135                           
  1136                           ; BSR set to: 1
  1137                           ;I2C.c: 337:     I2CConfig.Buffer[I2CConfig.BufferNbr].type = I2C_MASTER_WRITE;
  1138  001FCC  5184               	movf	(_I2CConfig+132)& (0+255),w,b
  1139  001FCE  0D06               	mullw	6
  1140  001FD0  0E01               	movlw	low (_I2CConfig+1)
  1141  001FD2  24F3               	addwf	243,w,c
  1142  001FD4  6ED9               	movwf	fsr2l,c
  1143  001FD6  0E01               	movlw	high (_I2CConfig+1)
  1144  001FD8  20F4               	addwfc	prodh,w,c
  1145  001FDA  6EDA               	movwf	fsr2h,c
  1146  001FDC  0E00               	movlw	0
  1147  001FDE  6EDF               	movwf	indf2,c
  1148  001FE0                     
  1149                           ; BSR set to: 1
  1150                           ;I2C.c: 338:     I2CConfig.Buffer[I2CConfig.BufferNbr].adress = adresse;
  1151  001FE0  5184               	movf	(_I2CConfig+132)& (0+255),w,b
  1152  001FE2  0D06               	mullw	6
  1153  001FE4  0E02               	movlw	low (_I2CConfig+2)
  1154  001FE6  24F3               	addwf	243,w,c
  1155  001FE8  6ED9               	movwf	fsr2l,c
  1156  001FEA  0E01               	movlw	high (_I2CConfig+2)
  1157  001FEC  20F4               	addwfc	prodh,w,c
  1158  001FEE  6EDA               	movwf	fsr2h,c
  1159  001FF0  C016  FFDF         	movff	I2C_Write@adresse,indf2
  1160  001FF4                     
  1161                           ; BSR set to: 1
  1162                           ;I2C.c: 339:     I2CConfig.Buffer[I2CConfig.BufferNbr].data = data;
  1163  001FF4  5184               	movf	(_I2CConfig+132)& (0+255),w,b
  1164  001FF6  0D06               	mullw	6
  1165  001FF8  0E03               	movlw	low (_I2CConfig+3)
  1166  001FFA  24F3               	addwf	243,w,c
  1167  001FFC  6ED9               	movwf	fsr2l,c
  1168  001FFE  0E01               	movlw	high (_I2CConfig+3)
  1169  002000  20F4               	addwfc	prodh,w,c
  1170  002002  6EDA               	movwf	fsr2h,c
  1171  002004  C012  FFDE         	movff	I2C_Write@data,postinc2
  1172  002008  C013  FFDD         	movff	I2C_Write@data+1,postdec2
  1173  00200C                     
  1174                           ; BSR set to: 1
  1175                           ;I2C.c: 340:     I2CConfig.Buffer[I2CConfig.BufferNbr].sizeData = sizeData;
  1176  00200C  5184               	movf	(_I2CConfig+132)& (0+255),w,b
  1177  00200E  0D06               	mullw	6
  1178  002010  0E05               	movlw	low (_I2CConfig+5)
  1179  002012  24F3               	addwf	243,w,c
  1180  002014  6ED9               	movwf	fsr2l,c
  1181  002016  0E01               	movlw	high (_I2CConfig+5)
  1182  002018  20F4               	addwfc	prodh,w,c
  1183  00201A  6EDA               	movwf	fsr2h,c
  1184  00201C  C014  FFDF         	movff	I2C_Write@sizeData,indf2
  1185  002020                     
  1186                           ; BSR set to: 1
  1187                           ;I2C.c: 341:     I2CConfig.Buffer[I2CConfig.BufferNbr].delay = delay;
  1188  002020  5184               	movf	(_I2CConfig+132)& (0+255),w,b
  1189  002022  0D06               	mullw	6
  1190  002024  0E06               	movlw	low (_I2CConfig+6)
  1191  002026  24F3               	addwf	243,w,c
  1192  002028  6ED9               	movwf	fsr2l,c
  1193  00202A  0E01               	movlw	high (_I2CConfig+6)
  1194  00202C  20F4               	addwfc	prodh,w,c
  1195  00202E  6EDA               	movwf	fsr2h,c
  1196  002030  C015  FFDF         	movff	I2C_Write@delay,indf2
  1197  002034                     
  1198                           ; BSR set to: 1
  1199                           ;I2C.c: 342:     I2CConfig.MsgID[I2CConfig.BufferNbr] = myMsgID;
  1200  002034  0E79               	movlw	low (_I2CConfig+121)
  1201  002036  2584               	addwf	(_I2CConfig+132)& (0+255),w,b
  1202  002038  6ED9               	movwf	fsr2l,c
  1203  00203A  6ADA               	clrf	fsr2h,c
  1204  00203C  0E01               	movlw	high (_I2CConfig+121)
  1205  00203E  22DA               	addwfc	fsr2h,f,c
  1206  002040  C04D  FFDF         	movff	_myMsgID,indf2
  1207  002044                     
  1208                           ; BSR set to: 1
  1209                           ;I2C.c: 343:     I2CConfig.BufferNbr++;
  1210  002044  2B84               	incf	(_I2CConfig+132)& (0+255),f,b
  1211  002046                     
  1212                           ; BSR set to: 1
  1213                           ;I2C.c: 344:     if(I2CConfig.State == BUS_READY)
  1214  002046  0E0B               	movlw	11
  1215  002048  1900               	xorwf	_I2CConfig& (0+255),w,b
  1216  00204A  A4D8               	btfss	status,2,c
  1217  00204C  EF2A  F010         	goto	u3671
  1218  002050  EF2C  F010         	goto	u3670
  1219  002054                     u3671:
  1220  002054  EF2F  F010         	goto	l3287
  1221  002058                     u3670:
  1222  002058                     
  1223                           ; BSR set to: 1
  1224                           ;I2C.c: 345:     {;I2C.c: 346:         I2CConfig.State = MASTER_START;
  1225  002058  0E00               	movlw	0
  1226  00205A  6F00               	movwf	_I2CConfig& (0+255),b
  1227  00205C                     
  1228                           ; BSR set to: 1
  1229                           ;I2C.c: 347:         SSP1CON2bits.SEN = 1;
  1230  00205C  80C5               	bsf	197,0,c	;volatile
  1231  00205E                     l3287:
  1232                           
  1233                           ; BSR set to: 1
  1234                           ;I2C.c: 349:     return myMsgID;
  1235  00205E  C04D  F012         	movff	_myMsgID,?_I2C_Write
  1236  002062  6A13               	clrf	(?_I2C_Write+1)^0,c
  1237  002064                     l233:
  1238                           
  1239                           ; BSR set to: 1
  1240  002064  0012               	return		;funcret
  1241  002066                     __end_of_I2C_Write:
  1242                           	opt callstack 0
  1243                           
  1244 ;; *************** function _I2C_Read_Register_Request *****************
  1245 ;; Defined at:
  1246 ;;		line 380 in file "I2C.c"
  1247 ;; Parameters:    Size  Location     Type
  1248 ;;  adresse         1    wreg     unsigned char 
  1249 ;;  sendData        2   17[COMRAM] PTR unsigned char 
  1250 ;;		 -> main@reg(2), 
  1251 ;;  sendsizeData    1   19[COMRAM] unsigned char 
  1252 ;;  rcvData         2   20[COMRAM] PTR unsigned char 
  1253 ;;		 -> main@dataRcv(2), 
  1254 ;;  rcvsizeData     1   22[COMRAM] unsigned char 
  1255 ;;  delay           1   23[COMRAM] unsigned char 
  1256 ;; Auto vars:     Size  Location     Type
  1257 ;;  adresse         1   24[COMRAM] unsigned char 
  1258 ;; Return value:  Size  Location     Type
  1259 ;;                  2   17[COMRAM] int 
  1260 ;; Registers used:
  1261 ;;		wreg, fsr2l, fsr2h, status,2, status,0, prodl, prodh
  1262 ;; Tracked objects:
  1263 ;;		On entry : 0/0
  1264 ;;		On exit  : 0/0
  1265 ;;		Unchanged: 0/0
  1266 ;; Data sizes:     COMRAM   BANK0   BANK1   BANK2   BANK3   BANK4   BANK5
  1267 ;;      Params:         7       0       0       0       0       0       0
  1268 ;;      Locals:         1       0       0       0       0       0       0
  1269 ;;      Temps:          0       0       0       0       0       0       0
  1270 ;;      Totals:         8       0       0       0       0       0       0
  1271 ;;Total ram usage:        8 bytes
  1272 ;; Hardware stack levels used:    1
  1273 ;; Hardware stack levels required when called:    3
  1274 ;; This function calls:
  1275 ;;		Nothing
  1276 ;; This function is called by:
  1277 ;;		_main
  1278 ;; This function uses a non-reentrant model
  1279 ;;
  1280                           
  1281                           	psect	text4
  1282  001C02                     __ptext4:
  1283                           	opt callstack 0
  1284  001C02                     _I2C_Read_Register_Request:
  1285                           	opt callstack 27
  1286                           
  1287                           ; BSR set to: 1
  1288                           ;incstack = 0
  1289                           ;I2C_Read_Register_Request@adresse stored from wreg
  1290  001C02  6E19               	movwf	I2C_Read_Register_Request@adresse^0,c
  1291  001C04                     
  1292                           ;I2C.c: 380: int I2C_Read_Register_Request(u8 adresse, u8 *sendData, u8 sendsizeData, u8
      +                           *rcvData, u8 rcvsizeData, u8 delay);I2C.c: 381: {;I2C.c: 382:     if(I2CConfig.Status !
      +                          = 1)
  1293  001C04  0101               	movlb	1	; () banked
  1294  001C06  0586               	decf	(_I2CConfig+134)& (0+255),w,b
  1295  001C08  B4D8               	btfsc	status,2,c
  1296  001C0A  EF09  F00E         	goto	u3711
  1297  001C0E  EF0B  F00E         	goto	u3710
  1298  001C12                     u3711:
  1299  001C12  EF0D  F00E         	goto	l248
  1300  001C16                     u3710:
  1301  001C16  EFB1  F00E         	goto	l249
  1302  001C1A                     l248:
  1303                           
  1304                           ; BSR set to: 1
  1305                           ;I2C.c: 384:     if((I2CConfig.Options & (0x02)) == 0)
  1306  001C1A  B387               	btfsc	(_I2CConfig+135)& (0+255),1,b
  1307  001C1C  EF12  F00E         	goto	u3721
  1308  001C20  EF14  F00E         	goto	u3720
  1309  001C24                     u3721:
  1310  001C24  EF16  F00E         	goto	l3317
  1311  001C28                     u3720:
  1312  001C28  EFB1  F00E         	goto	l249
  1313  001C2C                     l3317:
  1314                           
  1315                           ; BSR set to: 1
  1316                           ;I2C.c: 386:     if(I2CConfig.BufferNbr >= 9)
  1317  001C2C  0E08               	movlw	8
  1318  001C2E  6584               	cpfsgt	(_I2CConfig+132)& (0+255),b
  1319  001C30  EF1C  F00E         	goto	u3731
  1320  001C34  EF1E  F00E         	goto	u3730
  1321  001C38                     u3731:
  1322  001C38  EF20  F00E         	goto	l3321
  1323  001C3C                     u3730:
  1324  001C3C  EFB1  F00E         	goto	l249
  1325  001C40                     l3321:
  1326                           
  1327                           ; BSR set to: 1
  1328                           ;I2C.c: 389:     myMsgID++;
  1329  001C40  2A4D               	incf	_myMsgID^0,f,c
  1330  001C42                     
  1331                           ; BSR set to: 1
  1332                           ;I2C.c: 390:     if(myMsgID == 0)
  1333  001C42  504D               	movf	_myMsgID^0,w,c
  1334  001C44  A4D8               	btfss	status,2,c
  1335  001C46  EF27  F00E         	goto	u3741
  1336  001C4A  EF29  F00E         	goto	u3740
  1337  001C4E                     u3741:
  1338  001C4E  EF2A  F00E         	goto	l3327
  1339  001C52                     u3740:
  1340  001C52                     
  1341                           ; BSR set to: 1
  1342                           ;I2C.c: 391:         myMsgID++;
  1343  001C52  2A4D               	incf	_myMsgID^0,f,c
  1344  001C54                     l3327:
  1345                           
  1346                           ; BSR set to: 1
  1347                           ;I2C.c: 393:     I2CConfig.Buffer[I2CConfig.BufferNbr].type = I2C_MASTER_WRITE_WITH_REST
      +                          ART;
  1348  001C54  5184               	movf	(_I2CConfig+132)& (0+255),w,b
  1349  001C56  0D06               	mullw	6
  1350  001C58  0E01               	movlw	low (_I2CConfig+1)
  1351  001C5A  24F3               	addwf	243,w,c
  1352  001C5C  6ED9               	movwf	fsr2l,c
  1353  001C5E  0E01               	movlw	high (_I2CConfig+1)
  1354  001C60  20F4               	addwfc	prodh,w,c
  1355  001C62  6EDA               	movwf	fsr2h,c
  1356  001C64  0E02               	movlw	2
  1357  001C66  6EDF               	movwf	indf2,c
  1358  001C68                     
  1359                           ; BSR set to: 1
  1360                           ;I2C.c: 394:     I2CConfig.Buffer[I2CConfig.BufferNbr].adress = adresse;
  1361  001C68  5184               	movf	(_I2CConfig+132)& (0+255),w,b
  1362  001C6A  0D06               	mullw	6
  1363  001C6C  0E02               	movlw	low (_I2CConfig+2)
  1364  001C6E  24F3               	addwf	243,w,c
  1365  001C70  6ED9               	movwf	fsr2l,c
  1366  001C72  0E01               	movlw	high (_I2CConfig+2)
  1367  001C74  20F4               	addwfc	prodh,w,c
  1368  001C76  6EDA               	movwf	fsr2h,c
  1369  001C78  C019  FFDF         	movff	I2C_Read_Register_Request@adresse,indf2
  1370  001C7C                     
  1371                           ; BSR set to: 1
  1372                           ;I2C.c: 395:     I2CConfig.Buffer[I2CConfig.BufferNbr].data = sendData;
  1373  001C7C  5184               	movf	(_I2CConfig+132)& (0+255),w,b
  1374  001C7E  0D06               	mullw	6
  1375  001C80  0E03               	movlw	low (_I2CConfig+3)
  1376  001C82  24F3               	addwf	243,w,c
  1377  001C84  6ED9               	movwf	fsr2l,c
  1378  001C86  0E01               	movlw	high (_I2CConfig+3)
  1379  001C88  20F4               	addwfc	prodh,w,c
  1380  001C8A  6EDA               	movwf	fsr2h,c
  1381  001C8C  C012  FFDE         	movff	I2C_Read_Register_Request@sendData,postinc2
  1382  001C90  C013  FFDD         	movff	I2C_Read_Register_Request@sendData+1,postdec2
  1383  001C94                     
  1384                           ; BSR set to: 1
  1385                           ;I2C.c: 396:     I2CConfig.Buffer[I2CConfig.BufferNbr].sizeData = sendsizeData;
  1386  001C94  5184               	movf	(_I2CConfig+132)& (0+255),w,b
  1387  001C96  0D06               	mullw	6
  1388  001C98  0E05               	movlw	low (_I2CConfig+5)
  1389  001C9A  24F3               	addwf	243,w,c
  1390  001C9C  6ED9               	movwf	fsr2l,c
  1391  001C9E  0E01               	movlw	high (_I2CConfig+5)
  1392  001CA0  20F4               	addwfc	prodh,w,c
  1393  001CA2  6EDA               	movwf	fsr2h,c
  1394  001CA4  C014  FFDF         	movff	I2C_Read_Register_Request@sendsizeData,indf2
  1395  001CA8                     
  1396                           ; BSR set to: 1
  1397                           ;I2C.c: 397:     I2CConfig.Buffer[I2CConfig.BufferNbr].delay = delay;
  1398  001CA8  5184               	movf	(_I2CConfig+132)& (0+255),w,b
  1399  001CAA  0D06               	mullw	6
  1400  001CAC  0E06               	movlw	low (_I2CConfig+6)
  1401  001CAE  24F3               	addwf	243,w,c
  1402  001CB0  6ED9               	movwf	fsr2l,c
  1403  001CB2  0E01               	movlw	high (_I2CConfig+6)
  1404  001CB4  20F4               	addwfc	prodh,w,c
  1405  001CB6  6EDA               	movwf	fsr2h,c
  1406  001CB8  C018  FFDF         	movff	I2C_Read_Register_Request@delay,indf2
  1407  001CBC                     
  1408                           ; BSR set to: 1
  1409                           ;I2C.c: 398:     I2CConfig.MsgID[I2CConfig.BufferNbr] = myMsgID;
  1410  001CBC  0E79               	movlw	low (_I2CConfig+121)
  1411  001CBE  2584               	addwf	(_I2CConfig+132)& (0+255),w,b
  1412  001CC0  6ED9               	movwf	fsr2l,c
  1413  001CC2  6ADA               	clrf	fsr2h,c
  1414  001CC4  0E01               	movlw	high (_I2CConfig+121)
  1415  001CC6  22DA               	addwfc	fsr2h,f,c
  1416  001CC8  C04D  FFDF         	movff	_myMsgID,indf2
  1417  001CCC                     
  1418                           ; BSR set to: 1
  1419                           ;I2C.c: 399:     I2CConfig.BufferNbr++;
  1420  001CCC  2B84               	incf	(_I2CConfig+132)& (0+255),f,b
  1421  001CCE                     
  1422                           ; BSR set to: 1
  1423                           ;I2C.c: 400:     I2CConfig.Buffer[I2CConfig.BufferNbr].type = I2C_MASTER_READ;
  1424  001CCE  5184               	movf	(_I2CConfig+132)& (0+255),w,b
  1425  001CD0  0D06               	mullw	6
  1426  001CD2  0E01               	movlw	low (_I2CConfig+1)
  1427  001CD4  24F3               	addwf	243,w,c
  1428  001CD6  6ED9               	movwf	fsr2l,c
  1429  001CD8  0E01               	movlw	high (_I2CConfig+1)
  1430  001CDA  20F4               	addwfc	prodh,w,c
  1431  001CDC  6EDA               	movwf	fsr2h,c
  1432  001CDE  0E01               	movlw	1
  1433  001CE0  6EDF               	movwf	indf2,c
  1434  001CE2                     
  1435                           ; BSR set to: 1
  1436                           ;I2C.c: 401:     I2CConfig.Buffer[I2CConfig.BufferNbr].adress = adresse | 1;
  1437  001CE2  5184               	movf	(_I2CConfig+132)& (0+255),w,b
  1438  001CE4  0D06               	mullw	6
  1439  001CE6  0E02               	movlw	low (_I2CConfig+2)
  1440  001CE8  24F3               	addwf	243,w,c
  1441  001CEA  6ED9               	movwf	fsr2l,c
  1442  001CEC  0E01               	movlw	high (_I2CConfig+2)
  1443  001CEE  20F4               	addwfc	prodh,w,c
  1444  001CF0  6EDA               	movwf	fsr2h,c
  1445  001CF2  5019               	movf	I2C_Read_Register_Request@adresse^0,w,c
  1446  001CF4  0901               	iorlw	1
  1447  001CF6  6EDF               	movwf	indf2,c
  1448  001CF8                     
  1449                           ; BSR set to: 1
  1450                           ;I2C.c: 402:     I2CConfig.Buffer[I2CConfig.BufferNbr].data = rcvData;
  1451  001CF8  5184               	movf	(_I2CConfig+132)& (0+255),w,b
  1452  001CFA  0D06               	mullw	6
  1453  001CFC  0E03               	movlw	low (_I2CConfig+3)
  1454  001CFE  24F3               	addwf	243,w,c
  1455  001D00  6ED9               	movwf	fsr2l,c
  1456  001D02  0E01               	movlw	high (_I2CConfig+3)
  1457  001D04  20F4               	addwfc	prodh,w,c
  1458  001D06  6EDA               	movwf	fsr2h,c
  1459  001D08  C015  FFDE         	movff	I2C_Read_Register_Request@rcvData,postinc2
  1460  001D0C  C016  FFDD         	movff	I2C_Read_Register_Request@rcvData+1,postdec2
  1461  001D10                     
  1462                           ; BSR set to: 1
  1463                           ;I2C.c: 403:     I2CConfig.Buffer[I2CConfig.BufferNbr].sizeData = rcvsizeData;
  1464  001D10  5184               	movf	(_I2CConfig+132)& (0+255),w,b
  1465  001D12  0D06               	mullw	6
  1466  001D14  0E05               	movlw	low (_I2CConfig+5)
  1467  001D16  24F3               	addwf	243,w,c
  1468  001D18  6ED9               	movwf	fsr2l,c
  1469  001D1A  0E01               	movlw	high (_I2CConfig+5)
  1470  001D1C  20F4               	addwfc	prodh,w,c
  1471  001D1E  6EDA               	movwf	fsr2h,c
  1472  001D20  C017  FFDF         	movff	I2C_Read_Register_Request@rcvsizeData,indf2
  1473  001D24                     
  1474                           ; BSR set to: 1
  1475                           ;I2C.c: 404:     I2CConfig.Buffer[I2CConfig.BufferNbr].delay = delay;
  1476  001D24  5184               	movf	(_I2CConfig+132)& (0+255),w,b
  1477  001D26  0D06               	mullw	6
  1478  001D28  0E06               	movlw	low (_I2CConfig+6)
  1479  001D2A  24F3               	addwf	243,w,c
  1480  001D2C  6ED9               	movwf	fsr2l,c
  1481  001D2E  0E01               	movlw	high (_I2CConfig+6)
  1482  001D30  20F4               	addwfc	prodh,w,c
  1483  001D32  6EDA               	movwf	fsr2h,c
  1484  001D34  C018  FFDF         	movff	I2C_Read_Register_Request@delay,indf2
  1485                           
  1486                           ;I2C.c: 405:     I2CConfig.MsgID[I2CConfig.BufferNbr] = myMsgID;
  1487  001D38  0E79               	movlw	low (_I2CConfig+121)
  1488  001D3A  2584               	addwf	(_I2CConfig+132)& (0+255),w,b
  1489  001D3C  6ED9               	movwf	fsr2l,c
  1490  001D3E  6ADA               	clrf	fsr2h,c
  1491  001D40  0E01               	movlw	high (_I2CConfig+121)
  1492  001D42  22DA               	addwfc	fsr2h,f,c
  1493  001D44  C04D  FFDF         	movff	_myMsgID,indf2
  1494  001D48                     
  1495                           ; BSR set to: 1
  1496                           ;I2C.c: 406:     I2CConfig.BufferNbr++;
  1497  001D48  2B84               	incf	(_I2CConfig+132)& (0+255),f,b
  1498  001D4A                     
  1499                           ; BSR set to: 1
  1500                           ;I2C.c: 407:     if(I2CConfig.State == BUS_READY)
  1501  001D4A  0E0B               	movlw	11
  1502  001D4C  1900               	xorwf	_I2CConfig& (0+255),w,b
  1503  001D4E  A4D8               	btfss	status,2,c
  1504  001D50  EFAC  F00E         	goto	u3751
  1505  001D54  EFAE  F00E         	goto	u3750
  1506  001D58                     u3751:
  1507  001D58  EFB1  F00E         	goto	l249
  1508  001D5C                     u3750:
  1509  001D5C                     
  1510                           ; BSR set to: 1
  1511                           ;I2C.c: 408:     {;I2C.c: 409:         I2CConfig.State = MASTER_START;
  1512  001D5C  0E00               	movlw	0
  1513  001D5E  6F00               	movwf	_I2CConfig& (0+255),b
  1514  001D60                     
  1515                           ; BSR set to: 1
  1516                           ;I2C.c: 410:         SSP1CON2bits.SEN = 1;
  1517  001D60  80C5               	bsf	197,0,c	;volatile
  1518  001D62                     l249:
  1519                           
  1520                           ; BSR set to: 1
  1521  001D62  0012               	return		;funcret
  1522  001D64                     __end_of_I2C_Read_Register_Request:
  1523                           	opt callstack 0
  1524                           
  1525 ;; *************** function _I2C_Read_Buffer *****************
  1526 ;; Defined at:
  1527 ;;		line 414 in file "I2C.c"
  1528 ;; Parameters:    Size  Location     Type
  1529 ;;  adresse         2   17[COMRAM] PTR unsigned char 
  1530 ;;		 -> main@adresse(1), 
  1531 ;;  sizeData        2   19[COMRAM] PTR int 
  1532 ;;		 -> main@bufferSize(2), 
  1533 ;; Auto vars:     Size  Location     Type
  1534 ;;  data            2   23[COMRAM] PTR unsigned char 
  1535 ;;		 -> main@dataRcv(2), main@reg(2), main@data(3), 
  1536 ;;  i               1   25[COMRAM] unsigned char 
  1537 ;; Return value:  Size  Location     Type
  1538 ;;                  2   17[COMRAM] PTR unsigned char 
  1539 ;; Registers used:
  1540 ;;		wreg, fsr1l, fsr1h, fsr2l, fsr2h, status,2, status,0, prodl, prodh
  1541 ;; Tracked objects:
  1542 ;;		On entry : 0/0
  1543 ;;		On exit  : 0/0
  1544 ;;		Unchanged: 0/0
  1545 ;; Data sizes:     COMRAM   BANK0   BANK1   BANK2   BANK3   BANK4   BANK5
  1546 ;;      Params:         4       0       0       0       0       0       0
  1547 ;;      Locals:         3       0       0       0       0       0       0
  1548 ;;      Temps:          2       0       0       0       0       0       0
  1549 ;;      Totals:         9       0       0       0       0       0       0
  1550 ;;Total ram usage:        9 bytes
  1551 ;; Hardware stack levels used:    1
  1552 ;; Hardware stack levels required when called:    3
  1553 ;; This function calls:
  1554 ;;		Nothing
  1555 ;; This function is called by:
  1556 ;;		_main
  1557 ;; This function uses a non-reentrant model
  1558 ;;
  1559                           
  1560                           	psect	text5
  1561  002110                     __ptext5:
  1562                           	opt callstack 0
  1563  002110                     _I2C_Read_Buffer:
  1564                           	opt callstack 27
  1565  002110                     
  1566                           ;I2C.c: 414: u8* I2C_Read_Buffer(u8 *adresse, int *sizeData);I2C.c: 415: {;I2C.c: 416:  
      +                             u8 i;;I2C.c: 417:     u8 *data;;I2C.c: 418:     if(I2CConfig.RcvBufferNbr > 0)
  1567  002110  0101               	movlb	1	; () banked
  1568  002112  5185               	movf	(_I2CConfig+133)& (0+255),w,b
  1569  002114  B4D8               	btfsc	status,2,c
  1570  002116  EF8F  F010         	goto	u3761
  1571  00211A  EF91  F010         	goto	u3760
  1572  00211E                     u3761:
  1573  00211E  EFD0  F010         	goto	l3385
  1574  002122                     u3760:
  1575  002122                     
  1576                           ; BSR set to: 1
  1577                           ;I2C.c: 419:     {;I2C.c: 420:         data = I2CConfig.RcvBuffer[0].data;
  1578  002122  C13F  F018         	movff	_I2CConfig+63,I2C_Read_Buffer@data
  1579  002126  C140  F019         	movff	_I2CConfig+64,I2C_Read_Buffer@data+1
  1580  00212A                     
  1581                           ; BSR set to: 1
  1582                           ;I2C.c: 421:         *sizeData = I2CConfig.RcvBuffer[0].sizeData;
  1583  00212A  5141               	movf	(_I2CConfig+65)& (0+255),w,b
  1584  00212C  6E16               	movwf	??_I2C_Read_Buffer^0,c
  1585  00212E  6A17               	clrf	(??_I2C_Read_Buffer+1)^0,c
  1586  002130  C014  FFD9         	movff	I2C_Read_Buffer@sizeData,fsr2l
  1587  002134  C015  FFDA         	movff	I2C_Read_Buffer@sizeData+1,fsr2h
  1588  002138  C016  FFDE         	movff	??_I2C_Read_Buffer,postinc2
  1589  00213C  C017  FFDD         	movff	??_I2C_Read_Buffer+1,postdec2
  1590  002140                     
  1591                           ; BSR set to: 1
  1592                           ;I2C.c: 422:         *adresse = I2CConfig.RcvBuffer[0].adress;
  1593  002140  C012  FFD9         	movff	I2C_Read_Buffer@adresse,fsr2l
  1594  002144  C013  FFDA         	movff	I2C_Read_Buffer@adresse+1,fsr2h
  1595  002148  C13E  FFDF         	movff	_I2CConfig+62,indf2
  1596  00214C                     
  1597                           ; BSR set to: 1
  1598                           ;I2C.c: 423:         for(i = 0; i<I2CConfig.RcvBufferNbr ; i++)
  1599  00214C  0E00               	movlw	0
  1600  00214E  6E1A               	movwf	I2C_Read_Buffer@i^0,c
  1601  002150  EFC0  F010         	goto	l3375
  1602  002154                     l3371:
  1603                           
  1604                           ; BSR set to: 1
  1605                           ;I2C.c: 424:             I2CConfig.RcvBuffer[i] = I2CConfig.RcvBuffer[i+1];
  1606  002154  501A               	movf	I2C_Read_Buffer@i^0,w,c
  1607  002156  0D06               	mullw	6
  1608  002158  0E43               	movlw	low (_I2CConfig+67)
  1609  00215A  24F3               	addwf	243,w,c
  1610  00215C  6ED9               	movwf	fsr2l,c
  1611  00215E  0E01               	movlw	high (_I2CConfig+67)
  1612  002160  20F4               	addwfc	prodh,w,c
  1613  002162  6EDA               	movwf	fsr2h,c
  1614  002164  501A               	movf	I2C_Read_Buffer@i^0,w,c
  1615  002166  0D06               	mullw	6
  1616  002168  0E3D               	movlw	low (_I2CConfig+61)
  1617  00216A  24F3               	addwf	243,w,c
  1618  00216C  6EE1               	movwf	fsr1l,c
  1619  00216E  0E01               	movlw	high (_I2CConfig+61)
  1620  002170  20F4               	addwfc	prodh,w,c
  1621  002172  6EE2               	movwf	fsr1h,c
  1622  002174  0E05               	movlw	5
  1623  002176                     u3771:
  1624  002176  CFDB FFE3          	movff	plusw2,plusw1
  1625  00217A  06E8               	decf	wreg,f,c
  1626  00217C  E2FC               	bc	u3771
  1627  00217E                     
  1628                           ; BSR set to: 1
  1629  00217E  2A1A               	incf	I2C_Read_Buffer@i^0,f,c
  1630  002180                     l3375:
  1631                           
  1632                           ; BSR set to: 1
  1633  002180  5185               	movf	(_I2CConfig+133)& (0+255),w,b
  1634  002182  5C1A               	subwf	I2C_Read_Buffer@i^0,w,c
  1635  002184  A0D8               	btfss	status,0,c
  1636  002186  EFC7  F010         	goto	u3781
  1637  00218A  EFC9  F010         	goto	u3780
  1638  00218E                     u3781:
  1639  00218E  EFAA  F010         	goto	l3371
  1640  002192                     u3780:
  1641  002192                     
  1642                           ; BSR set to: 1
  1643                           ;I2C.c: 425:         I2CConfig.RcvBufferNbr--;
  1644  002192  0785               	decf	(_I2CConfig+133)& (0+255),f,b
  1645  002194                     
  1646                           ; BSR set to: 1
  1647                           ;I2C.c: 426:         return data;
  1648  002194  C018  F012         	movff	I2C_Read_Buffer@data,?_I2C_Read_Buffer
  1649  002198  C019  F013         	movff	I2C_Read_Buffer@data+1,?_I2C_Read_Buffer+1
  1650  00219C  EFD4  F010         	goto	l260
  1651  0021A0                     l3385:
  1652                           
  1653                           ; BSR set to: 1
  1654                           ;I2C.c: 429:         return ((void*)0);
  1655  0021A0  0E00               	movlw	0
  1656  0021A2  6E12               	movwf	?_I2C_Read_Buffer^0,c
  1657  0021A4  0E00               	movlw	0
  1658  0021A6  6E13               	movwf	(?_I2C_Read_Buffer+1)^0,c
  1659  0021A8                     l260:
  1660                           
  1661                           ; BSR set to: 1
  1662  0021A8  0012               	return		;funcret
  1663  0021AA                     __end_of_I2C_Read_Buffer:
  1664                           	opt callstack 0
  1665                           
  1666 ;; *************** function _I2C_Init *****************
  1667 ;; Defined at:
  1668 ;;		line 268 in file "I2C.c"
  1669 ;; Parameters:    Size  Location     Type
  1670 ;;  Options         1    wreg     unsigned char 
  1671 ;; Auto vars:     Size  Location     Type
  1672 ;;  Options         1   26[BANK0 ] unsigned char 
  1673 ;;  min             4   31[BANK0 ] float 
  1674 ;;  prUsed          2   29[BANK0 ] unsigned int 
  1675 ;;  prescUsed       2   27[BANK0 ] unsigned int 
  1676 ;; Return value:  Size  Location     Type
  1677 ;;                  2   22[BANK0 ] int 
  1678 ;; Registers used:
  1679 ;;		wreg, fsr2l, fsr2h, status,2, status,0, prodl, prodh, cstack
  1680 ;; Tracked objects:
  1681 ;;		On entry : 0/0
  1682 ;;		On exit  : 0/0
  1683 ;;		Unchanged: 0/0
  1684 ;; Data sizes:     COMRAM   BANK0   BANK1   BANK2   BANK3   BANK4   BANK5
  1685 ;;      Params:         0       2       0       0       0       0       0
  1686 ;;      Locals:         0       9       0       0       0       0       0
  1687 ;;      Temps:          0       2       0       0       0       0       0
  1688 ;;      Totals:         0      13       0       0       0       0       0
  1689 ;;Total ram usage:       13 bytes
  1690 ;; Hardware stack levels used:    1
  1691 ;; Hardware stack levels required when called:    6
  1692 ;; This function calls:
  1693 ;;		_I2C_timer_prescaler
  1694 ;;		___fleq
  1695 ;;		_memset
  1696 ;; This function is called by:
  1697 ;;		_main
  1698 ;; This function uses a non-reentrant model
  1699 ;;
  1700                           
  1701                           	psect	text6
  1702  001558                     __ptext6:
  1703                           	opt callstack 0
  1704  001558                     _I2C_Init:
  1705                           	opt callstack 24
  1706                           
  1707                           ; BSR set to: 1
  1708                           ;incstack = 0
  1709                           ;I2C_Init@Options stored from wreg
  1710  001558  0100               	movlb	0	; () banked
  1711  00155A  6F7A               	movwf	I2C_Init@Options& (0+255),b
  1712  00155C                     
  1713                           ;I2C.c: 269:     PEIE = 1;
  1714  00155C  8CF2               	bsf	4082,6,c	;volatile
  1715                           
  1716                           ;I2C.c: 270:     GIE = 1;
  1717  00155E  8EF2               	bsf	4082,7,c	;volatile
  1718  001560                     
  1719                           ;I2C.c: 272:     float min = 20;
  1720  001560  0E00               	movlw	0
  1721  001562  0100               	movlb	0	; () banked
  1722  001564  6F7F               	movwf	I2C_Init@min& (0+255),b
  1723  001566  0E00               	movlw	0
  1724  001568  6F80               	movwf	(I2C_Init@min+1)& (0+255),b
  1725  00156A  0EA0               	movlw	160
  1726  00156C  6F81               	movwf	(I2C_Init@min+2)& (0+255),b
  1727  00156E  0E41               	movlw	65
  1728  001570  6F82               	movwf	(I2C_Init@min+3)& (0+255),b
  1729                           
  1730                           ;I2C.c: 273:     u16 prescUsed = 0;
  1731  001572  0E00               	movlw	0
  1732  001574  6F7C               	movwf	(I2C_Init@prescUsed+1)& (0+255),b
  1733  001576  0E00               	movlw	0
  1734  001578  6F7B               	movwf	I2C_Init@prescUsed& (0+255),b
  1735                           
  1736                           ;I2C.c: 274:     u16 prUsed = 0;
  1737  00157A  0E00               	movlw	0
  1738  00157C  6F7E               	movwf	(I2C_Init@prUsed+1)& (0+255),b
  1739  00157E  0E00               	movlw	0
  1740  001580  6F7D               	movwf	I2C_Init@prUsed& (0+255),b
  1741  001582                     
  1742                           ; BSR set to: 0
  1743                           ;I2C.c: 275:     I2C_timer_prescaler(0.0001, &prUsed, 16U, &prescUsed, &min);
  1744  001582  0E17               	movlw	23
  1745  001584  6E39               	movwf	I2C_timer_prescaler@period^0,c
  1746  001586  0EB7               	movlw	183
  1747  001588  6E3A               	movwf	(I2C_timer_prescaler@period+1)^0,c
  1748  00158A  0ED1               	movlw	209
  1749  00158C  6E3B               	movwf	(I2C_timer_prescaler@period+2)^0,c
  1750  00158E  0E38               	movlw	56
  1751  001590  6E3C               	movwf	(I2C_timer_prescaler@period+3)^0,c
  1752  001592  0E7D               	movlw	low I2C_Init@prUsed
  1753  001594  6E3D               	movwf	I2C_timer_prescaler@prUsed^0,c
  1754  001596  0E00               	movlw	high I2C_Init@prUsed
  1755  001598  6E3E               	movwf	(I2C_timer_prescaler@prUsed+1)^0,c
  1756  00159A  0E00               	movlw	0
  1757  00159C  6E40               	movwf	(I2C_timer_prescaler@presc+1)^0,c
  1758  00159E  0E10               	movlw	16
  1759  0015A0  6E3F               	movwf	I2C_timer_prescaler@presc^0,c
  1760  0015A2  0E7B               	movlw	low I2C_Init@prescUsed
  1761  0015A4  6E41               	movwf	I2C_timer_prescaler@prescUsed^0,c
  1762  0015A6  0E00               	movlw	high I2C_Init@prescUsed
  1763  0015A8  6E42               	movwf	(I2C_timer_prescaler@prescUsed+1)^0,c
  1764  0015AA  0E7F               	movlw	low I2C_Init@min
  1765  0015AC  6E43               	movwf	I2C_timer_prescaler@min^0,c
  1766  0015AE  0E00               	movlw	high I2C_Init@min
  1767  0015B0  6E44               	movwf	(I2C_timer_prescaler@min+1)^0,c
  1768  0015B2  EC0F  F007         	call	_I2C_timer_prescaler	;wreg free
  1769  0015B6                     
  1770                           ;I2C.c: 276:     I2C_timer_prescaler(0.0001, &prUsed, 4U, &prescUsed, &min);
  1771  0015B6  0E17               	movlw	23
  1772  0015B8  6E39               	movwf	I2C_timer_prescaler@period^0,c
  1773  0015BA  0EB7               	movlw	183
  1774  0015BC  6E3A               	movwf	(I2C_timer_prescaler@period+1)^0,c
  1775  0015BE  0ED1               	movlw	209
  1776  0015C0  6E3B               	movwf	(I2C_timer_prescaler@period+2)^0,c
  1777  0015C2  0E38               	movlw	56
  1778  0015C4  6E3C               	movwf	(I2C_timer_prescaler@period+3)^0,c
  1779  0015C6  0E7D               	movlw	low I2C_Init@prUsed
  1780  0015C8  6E3D               	movwf	I2C_timer_prescaler@prUsed^0,c
  1781  0015CA  0E00               	movlw	high I2C_Init@prUsed
  1782  0015CC  6E3E               	movwf	(I2C_timer_prescaler@prUsed+1)^0,c
  1783  0015CE  0E00               	movlw	0
  1784  0015D0  6E40               	movwf	(I2C_timer_prescaler@presc+1)^0,c
  1785  0015D2  0E04               	movlw	4
  1786  0015D4  6E3F               	movwf	I2C_timer_prescaler@presc^0,c
  1787  0015D6  0E7B               	movlw	low I2C_Init@prescUsed
  1788  0015D8  6E41               	movwf	I2C_timer_prescaler@prescUsed^0,c
  1789  0015DA  0E00               	movlw	high I2C_Init@prescUsed
  1790  0015DC  6E42               	movwf	(I2C_timer_prescaler@prescUsed+1)^0,c
  1791  0015DE  0E7F               	movlw	low I2C_Init@min
  1792  0015E0  6E43               	movwf	I2C_timer_prescaler@min^0,c
  1793  0015E2  0E00               	movlw	high I2C_Init@min
  1794  0015E4  6E44               	movwf	(I2C_timer_prescaler@min+1)^0,c
  1795  0015E6  EC0F  F007         	call	_I2C_timer_prescaler	;wreg free
  1796  0015EA                     
  1797                           ;I2C.c: 277:     I2C_timer_prescaler(0.0001, &prUsed, 1U, &prescUsed, &min);
  1798  0015EA  0E17               	movlw	23
  1799  0015EC  6E39               	movwf	I2C_timer_prescaler@period^0,c
  1800  0015EE  0EB7               	movlw	183
  1801  0015F0  6E3A               	movwf	(I2C_timer_prescaler@period+1)^0,c
  1802  0015F2  0ED1               	movlw	209
  1803  0015F4  6E3B               	movwf	(I2C_timer_prescaler@period+2)^0,c
  1804  0015F6  0E38               	movlw	56
  1805  0015F8  6E3C               	movwf	(I2C_timer_prescaler@period+3)^0,c
  1806  0015FA  0E7D               	movlw	low I2C_Init@prUsed
  1807  0015FC  6E3D               	movwf	I2C_timer_prescaler@prUsed^0,c
  1808  0015FE  0E00               	movlw	high I2C_Init@prUsed
  1809  001600  6E3E               	movwf	(I2C_timer_prescaler@prUsed+1)^0,c
  1810  001602  0E00               	movlw	0
  1811  001604  6E40               	movwf	(I2C_timer_prescaler@presc+1)^0,c
  1812  001606  0E01               	movlw	1
  1813  001608  6E3F               	movwf	I2C_timer_prescaler@presc^0,c
  1814  00160A  0E7B               	movlw	low I2C_Init@prescUsed
  1815  00160C  6E41               	movwf	I2C_timer_prescaler@prescUsed^0,c
  1816  00160E  0E00               	movlw	high I2C_Init@prescUsed
  1817  001610  6E42               	movwf	(I2C_timer_prescaler@prescUsed+1)^0,c
  1818  001612  0E7F               	movlw	low I2C_Init@min
  1819  001614  6E43               	movwf	I2C_timer_prescaler@min^0,c
  1820  001616  0E00               	movlw	high I2C_Init@min
  1821  001618  6E44               	movwf	(I2C_timer_prescaler@min+1)^0,c
  1822  00161A  EC0F  F007         	call	_I2C_timer_prescaler	;wreg free
  1823  00161E                     
  1824                           ;I2C.c: 278:     if(min==20)
  1825  00161E  C07F  F012         	movff	I2C_Init@min,___fleq@ff1
  1826  001622  C080  F013         	movff	I2C_Init@min+1,___fleq@ff1+1
  1827  001626  C081  F014         	movff	I2C_Init@min+2,___fleq@ff1+2
  1828  00162A  C082  F015         	movff	I2C_Init@min+3,___fleq@ff1+3
  1829  00162E  0E00               	movlw	0
  1830  001630  6E16               	movwf	___fleq@ff2^0,c
  1831  001632  0E00               	movlw	0
  1832  001634  6E17               	movwf	(___fleq@ff2+1)^0,c
  1833  001636  0EA0               	movlw	160
  1834  001638  6E18               	movwf	(___fleq@ff2+2)^0,c
  1835  00163A  0E41               	movlw	65
  1836  00163C  6E19               	movwf	(___fleq@ff2+3)^0,c
  1837  00163E  EC33  F010         	call	___fleq	;wreg free
  1838  001642  A0D8               	btfss	status,0,c
  1839  001644  EF26  F00B         	goto	u3951
  1840  001648  EF28  F00B         	goto	u3950
  1841  00164C                     u3951:
  1842  00164C  EF2D  F00B         	goto	l3591
  1843  001650                     u3950:
  1844  001650                     l3589:
  1845                           
  1846                           ;I2C.c: 279:         return (-1);
  1847  001650  0100               	movlb	0	; () banked
  1848  001652  6976               	setf	?_I2C_Init& (0+255),b
  1849  001654  6977               	setf	(?_I2C_Init+1)& (0+255),b
  1850  001656  EFA6  F00B         	goto	l220
  1851  00165A                     l3591:
  1852                           
  1853                           ;I2C.c: 280:     I2CConfig.BufferNbr = 0;
  1854  00165A  0E00               	movlw	0
  1855  00165C  0101               	movlb	1	; () banked
  1856  00165E  6F84               	movwf	(_I2CConfig+132)& (0+255),b
  1857                           
  1858                           ;I2C.c: 281:     I2CConfig.RcvBufferNbr = 0;
  1859  001660  0E00               	movlw	0
  1860  001662  6F85               	movwf	(_I2CConfig+133)& (0+255),b
  1861  001664                     
  1862                           ; BSR set to: 1
  1863                           ;I2C.c: 282:     memset(&I2CConfig.MsgID, 0, sizeof(I2CConfig.MsgID));
  1864  001664  0E79               	movlw	low (_I2CConfig+121)
  1865  001666  6E12               	movwf	memset@dest^0,c
  1866  001668  0E01               	movlw	high (_I2CConfig+121)
  1867  00166A  6E13               	movwf	(memset@dest+1)^0,c
  1868  00166C  0E00               	movlw	0
  1869  00166E  6E15               	movwf	(memset@c+1)^0,c
  1870  001670  0E00               	movlw	0
  1871  001672  6E14               	movwf	memset@c^0,c
  1872  001674  0E00               	movlw	0
  1873  001676  6E17               	movwf	(memset@n+1)^0,c
  1874  001678  0E0B               	movlw	11
  1875  00167A  6E16               	movwf	memset@n^0,c
  1876  00167C  EC46  F00D         	call	_memset	;wreg free
  1877  001680                     
  1878                           ;I2C.c: 283:     myMsgID = 1;
  1879  001680  0E01               	movlw	1
  1880  001682  6E4D               	movwf	_myMsgID^0,c
  1881  001684                     
  1882                           ;I2C.c: 284:     I2CConfig.State = BUS_READY;
  1883  001684  0E0B               	movlw	11
  1884  001686  0101               	movlb	1	; () banked
  1885  001688  6F00               	movwf	_I2CConfig& (0+255),b
  1886  00168A                     
  1887                           ; BSR set to: 1
  1888                           ;I2C.c: 285:     T2CONbits.T2OUTPS = 0b1001;
  1889  00168A  50BA               	movf	186,w,c	;volatile
  1890  00168C  0B87               	andlw	-121
  1891  00168E  0948               	iorlw	72
  1892  001690  6EBA               	movwf	186,c	;volatile
  1893  001692                     
  1894                           ; BSR set to: 1
  1895                           ;I2C.c: 286:     PR2 = (u8) prUsed;
  1896  001692  C07D  FFBB         	movff	I2C_Init@prUsed,4027	;volatile
  1897  001696                     
  1898                           ; BSR set to: 1
  1899                           ;I2C.c: 287:     TMR2 = 0;
  1900  001696  0E00               	movlw	0
  1901  001698  6EBC               	movwf	188,c	;volatile
  1902  00169A                     
  1903                           ; BSR set to: 1
  1904                           ;I2C.c: 288:     TMR2IE = 1;
  1905  00169A  829D               	bsf	3997,1,c	;volatile
  1906  00169C                     
  1907                           ; BSR set to: 1
  1908                           ;I2C.c: 289:     TMR2IF = 0;
  1909  00169C  929E               	bcf	3998,1,c	;volatile
  1910                           
  1911                           ;I2C.c: 290:     switch(prescUsed)
  1912  00169E  EF61  F00B         	goto	l3619
  1913  0016A2                     l3609:
  1914                           
  1915                           ; BSR set to: 0
  1916                           ;I2C.c: 293:             T2CONbits.T2CKPS = 0b10;
  1917  0016A2  50BA               	movf	186,w,c	;volatile
  1918  0016A4  0BFC               	andlw	-4
  1919  0016A6  0902               	iorlw	2
  1920  0016A8  6EBA               	movwf	186,c	;volatile
  1921                           
  1922                           ;I2C.c: 294:             break;
  1923  0016AA  EF7C  F00B         	goto	l3621
  1924  0016AE                     l3611:
  1925                           
  1926                           ; BSR set to: 0
  1927                           ;I2C.c: 296:             T2CONbits.T2CKPS = 0b01;
  1928  0016AE  50BA               	movf	186,w,c	;volatile
  1929  0016B0  0BFC               	andlw	-4
  1930  0016B2  0901               	iorlw	1
  1931  0016B4  6EBA               	movwf	186,c	;volatile
  1932                           
  1933                           ;I2C.c: 297:             break;
  1934  0016B6  EF7C  F00B         	goto	l3621
  1935  0016BA                     l3613:
  1936                           
  1937                           ; BSR set to: 0
  1938                           ;I2C.c: 299:             T2CONbits.T2CKPS = 0b00;
  1939  0016BA  0EFC               	movlw	-4
  1940  0016BC  16BA               	andwf	186,f,c	;volatile
  1941                           
  1942                           ;I2C.c: 300:             break;
  1943  0016BE  EF7C  F00B         	goto	l3621
  1944  0016C2                     l3619:
  1945                           
  1946                           ; BSR set to: 1
  1947  0016C2  C07B  F078         	movff	I2C_Init@prescUsed,??_I2C_Init
  1948  0016C6  C07C  F079         	movff	I2C_Init@prescUsed+1,??_I2C_Init+1
  1949                           
  1950                           ; Switch on 2 bytes has been partitioned into a top level switch of size 1, and 1 sub-sw
      +                          itches
  1951                           ; Switch size 1, requested type "simple"
  1952                           ; Number of cases is 1, Range of values is 0 to 0
  1953                           ; switch strategies available:
  1954                           ; Name         Instructions Cycles
  1955                           ; simple_byte            4     3 (average)
  1956                           ;	Chosen strategy is simple_byte
  1957  0016CA  0100               	movlb	0	; () banked
  1958  0016CC  5179               	movf	(??_I2C_Init+1)& (0+255),w,b
  1959  0016CE  0A00               	xorlw	0	; case 0
  1960  0016D0  B4D8               	btfsc	status,2,c
  1961  0016D2  EF6D  F00B         	goto	l3757
  1962  0016D6  EF28  F00B         	goto	l3589
  1963  0016DA                     l3757:
  1964                           
  1965                           ; BSR set to: 0
  1966                           ; Switch size 1, requested type "simple"
  1967                           ; Number of cases is 3, Range of values is 1 to 16
  1968                           ; switch strategies available:
  1969                           ; Name         Instructions Cycles
  1970                           ; simple_byte           10     6 (average)
  1971                           ;	Chosen strategy is simple_byte
  1972  0016DA  5178               	movf	??_I2C_Init& (0+255),w,b
  1973  0016DC  0A01               	xorlw	1	; case 1
  1974  0016DE  B4D8               	btfsc	status,2,c
  1975  0016E0  EF5D  F00B         	goto	l3613
  1976  0016E4  0A05               	xorlw	5	; case 4
  1977  0016E6  B4D8               	btfsc	status,2,c
  1978  0016E8  EF57  F00B         	goto	l3611
  1979  0016EC  0A14               	xorlw	20	; case 16
  1980  0016EE  B4D8               	btfsc	status,2,c
  1981  0016F0  EF51  F00B         	goto	l3609
  1982  0016F4  EF28  F00B         	goto	l3589
  1983  0016F8                     l3621:
  1984                           
  1985                           ; BSR set to: 0
  1986                           ;I2C.c: 305:     timer = 0;
  1987  0016F8  0E00               	movlw	0
  1988  0016FA  6E47               	movwf	(_timer+1)^0,c
  1989  0016FC  0E00               	movlw	0
  1990  0016FE  6E46               	movwf	_timer^0,c
  1991  001700                     
  1992                           ; BSR set to: 0
  1993                           ;I2C.c: 306:     T2CONbits.TMR2ON = 1;
  1994  001700  84BA               	bsf	186,2,c	;volatile
  1995  001702                     
  1996                           ; BSR set to: 0
  1997                           ;I2C.c: 307:     if((Options & (0x02)) != 0)
  1998  001702  A37A               	btfss	I2C_Init@Options& (0+255),1,b
  1999  001704  EF86  F00B         	goto	u3961
  2000  001708  EF88  F00B         	goto	u3960
  2001  00170C                     u3961:
  2002  00170C  EF8B  F00B         	goto	l227
  2003  001710                     u3960:
  2004  001710                     
  2005                           ; BSR set to: 0
  2006                           ;I2C.c: 308:         SSP1IE = 1;
  2007  001710  869D               	bsf	3997,3,c	;volatile
  2008  001712  EF8C  F00B         	goto	l228
  2009  001716                     l227:
  2010                           
  2011                           ; BSR set to: 0
  2012                           ;I2C.c: 310:         SSP1IE = 0;
  2013  001716  969D               	bcf	3997,3,c	;volatile
  2014  001718                     l228:
  2015                           
  2016                           ; BSR set to: 0
  2017                           ;I2C.c: 311:     if((Options & (0x01)) != 0)
  2018  001718  A17A               	btfss	I2C_Init@Options& (0+255),0,b
  2019  00171A  EF91  F00B         	goto	u3971
  2020  00171E  EF93  F00B         	goto	u3970
  2021  001722                     u3971:
  2022  001722  EF28  F00B         	goto	l3589
  2023  001726                     u3970:
  2024  001726                     
  2025                           ; BSR set to: 0
  2026                           ;I2C.c: 312:     {;I2C.c: 313:         SSP1CON1bits.SSPEN = 0;
  2027  001726  9AC6               	bcf	198,5,c	;volatile
  2028  001728                     
  2029                           ; BSR set to: 0
  2030                           ;I2C.c: 314:         SSP1ADD = 65;
  2031  001728  0E41               	movlw	65
  2032  00172A  6EC8               	movwf	200,c	;volatile
  2033  00172C                     
  2034                           ; BSR set to: 0
  2035                           ;I2C.c: 315:         SSP1STATbits.SMP = 0;
  2036  00172C  9EC7               	bcf	199,7,c	;volatile
  2037                           
  2038                           ;I2C.c: 316:         SSP1CON1bits.SSPM = 0b1000;
  2039  00172E  50C6               	movf	198,w,c	;volatile
  2040  001730  0BF0               	andlw	-16
  2041  001732  0908               	iorlw	8
  2042  001734  6EC6               	movwf	198,c	;volatile
  2043  001736                     
  2044                           ; BSR set to: 0
  2045                           ;I2C.c: 317:         SSP1CON1bits.SSPEN = 1;
  2046  001736  8AC6               	bsf	198,5,c	;volatile
  2047                           
  2048                           ;I2C.c: 318:         I2CConfig.Status = 1;
  2049  001738  0E01               	movlw	1
  2050  00173A  0101               	movlb	1	; () banked
  2051  00173C  6F86               	movwf	(_I2CConfig+134)& (0+255),b
  2052  00173E                     
  2053                           ; BSR set to: 1
  2054                           ;I2C.c: 319:         I2CConfig.Options = Options;
  2055  00173E  C07A  F187         	movff	I2C_Init@Options,_I2CConfig+135
  2056                           
  2057                           ;I2C.c: 320:         return 0;
  2058  001742  0E00               	movlw	0
  2059  001744  0100               	movlb	0	; () banked
  2060  001746  6F77               	movwf	(?_I2C_Init+1)& (0+255),b
  2061  001748  0E00               	movlw	0
  2062  00174A  6F76               	movwf	?_I2C_Init& (0+255),b
  2063  00174C                     l220:
  2064                           
  2065                           ; BSR set to: 0
  2066  00174C  0012               	return		;funcret
  2067  00174E                     __end_of_I2C_Init:
  2068                           	opt callstack 0
  2069                           
  2070 ;; *************** function _memset *****************
  2071 ;; Defined at:
  2072 ;;		line 4 in file "C:\Program Files (x86)\Microchip\xc8\v2.10\pic\sources\c99\common\memset.c"
  2073 ;; Parameters:    Size  Location     Type
  2074 ;;  dest            2   17[COMRAM] PTR void 
  2075 ;;		 -> I2CConfig(136), 
  2076 ;;  c               2   19[COMRAM] int 
  2077 ;;  n               2   21[COMRAM] unsigned int 
  2078 ;; Auto vars:     Size  Location     Type
  2079 ;;  s               2   27[COMRAM] PTR unsigned char 
  2080 ;;		 -> I2CConfig(136), 
  2081 ;;  k               2   25[COMRAM] unsigned int 
  2082 ;; Return value:  Size  Location     Type
  2083 ;;                  2   17[COMRAM] PTR void 
  2084 ;; Registers used:
  2085 ;;		wreg, fsr2l, fsr2h, status,2, status,0
  2086 ;; Tracked objects:
  2087 ;;		On entry : 0/0
  2088 ;;		On exit  : 0/0
  2089 ;;		Unchanged: 0/0
  2090 ;; Data sizes:     COMRAM   BANK0   BANK1   BANK2   BANK3   BANK4   BANK5
  2091 ;;      Params:         6       0       0       0       0       0       0
  2092 ;;      Locals:         4       0       0       0       0       0       0
  2093 ;;      Temps:          2       0       0       0       0       0       0
  2094 ;;      Totals:        12       0       0       0       0       0       0
  2095 ;;Total ram usage:       12 bytes
  2096 ;; Hardware stack levels used:    1
  2097 ;; Hardware stack levels required when called:    3
  2098 ;; This function calls:
  2099 ;;		Nothing
  2100 ;; This function is called by:
  2101 ;;		_I2C_Init
  2102 ;; This function uses a non-reentrant model
  2103 ;;
  2104                           
  2105                           	psect	text7
  2106  001A8C                     __ptext7:
  2107                           	opt callstack 0
  2108  001A8C                     _memset:
  2109                           	opt callstack 26
  2110  001A8C  C012  F01C         	movff	memset@dest,memset@s
  2111  001A90  C013  F01D         	movff	memset@dest+1,memset@s+1
  2112  001A94  5016               	movf	memset@n^0,w,c
  2113  001A96  1017               	iorwf	(memset@n+1)^0,w,c
  2114  001A98  A4D8               	btfss	status,2,c
  2115  001A9A  EF51  F00D         	goto	u3501
  2116  001A9E  EF53  F00D         	goto	u3500
  2117  001AA2                     u3501:
  2118  001AA2  EF55  F00D         	goto	l3117
  2119  001AA6                     u3500:
  2120  001AA6  EF00  F00E         	goto	l997
  2121  001AAA                     l3117:
  2122  001AAA  C01C  FFD9         	movff	memset@s,fsr2l
  2123  001AAE  C01D  FFDA         	movff	memset@s+1,fsr2h
  2124  001AB2  C014  FFDF         	movff	memset@c,indf2
  2125  001AB6  5016               	movf	memset@n^0,w,c
  2126  001AB8  241C               	addwf	memset@s^0,w,c
  2127  001ABA  6E18               	movwf	??_memset^0,c
  2128  001ABC  5017               	movf	(memset@n+1)^0,w,c
  2129  001ABE  201D               	addwfc	(memset@s+1)^0,w,c
  2130  001AC0  6E19               	movwf	(??_memset+1)^0,c
  2131  001AC2  0EFF               	movlw	255
  2132  001AC4  2418               	addwf	??_memset^0,w,c
  2133  001AC6  6ED9               	movwf	fsr2l,c
  2134  001AC8  0EFF               	movlw	255
  2135  001ACA  2019               	addwfc	(??_memset+1)^0,w,c
  2136  001ACC  6EDA               	movwf	fsr2h,c
  2137  001ACE  C014  FFDF         	movff	memset@c,indf2
  2138  001AD2  5017               	movf	(memset@n+1)^0,w,c
  2139  001AD4  E107               	bnz	u3511
  2140  001AD6  0E03               	movlw	3
  2141  001AD8  5C16               	subwf	memset@n^0,w,c
  2142  001ADA  B0D8               	btfsc	status,0,c
  2143  001ADC  EF72  F00D         	goto	u3511
  2144  001AE0  EF74  F00D         	goto	u3510
  2145  001AE4                     u3511:
  2146  001AE4  EF76  F00D         	goto	l3123
  2147  001AE8                     u3510:
  2148  001AE8  EF00  F00E         	goto	l997
  2149  001AEC                     l3123:
  2150  001AEC  EE20 F001          	lfsr	2,1
  2151  001AF0  501C               	movf	memset@s^0,w,c
  2152  001AF2  26D9               	addwf	fsr2l,f,c
  2153  001AF4  501D               	movf	(memset@s+1)^0,w,c
  2154  001AF6  22DA               	addwfc	fsr2h,f,c
  2155  001AF8  C014  FFDF         	movff	memset@c,indf2
  2156  001AFC  EE20 F002          	lfsr	2,2
  2157  001B00  501C               	movf	memset@s^0,w,c
  2158  001B02  26D9               	addwf	fsr2l,f,c
  2159  001B04  501D               	movf	(memset@s+1)^0,w,c
  2160  001B06  22DA               	addwfc	fsr2h,f,c
  2161  001B08  C014  FFDF         	movff	memset@c,indf2
  2162  001B0C  5016               	movf	memset@n^0,w,c
  2163  001B0E  241C               	addwf	memset@s^0,w,c
  2164  001B10  6E18               	movwf	??_memset^0,c
  2165  001B12  5017               	movf	(memset@n+1)^0,w,c
  2166  001B14  201D               	addwfc	(memset@s+1)^0,w,c
  2167  001B16  6E19               	movwf	(??_memset+1)^0,c
  2168  001B18  0EFE               	movlw	254
  2169  001B1A  2418               	addwf	??_memset^0,w,c
  2170  001B1C  6ED9               	movwf	fsr2l,c
  2171  001B1E  0EFF               	movlw	255
  2172  001B20  2019               	addwfc	(??_memset+1)^0,w,c
  2173  001B22  6EDA               	movwf	fsr2h,c
  2174  001B24  C014  FFDF         	movff	memset@c,indf2
  2175  001B28  5016               	movf	memset@n^0,w,c
  2176  001B2A  241C               	addwf	memset@s^0,w,c
  2177  001B2C  6E18               	movwf	??_memset^0,c
  2178  001B2E  5017               	movf	(memset@n+1)^0,w,c
  2179  001B30  201D               	addwfc	(memset@s+1)^0,w,c
  2180  001B32  6E19               	movwf	(??_memset+1)^0,c
  2181  001B34  0EFD               	movlw	253
  2182  001B36  2418               	addwf	??_memset^0,w,c
  2183  001B38  6ED9               	movwf	fsr2l,c
  2184  001B3A  0EFF               	movlw	255
  2185  001B3C  2019               	addwfc	(??_memset+1)^0,w,c
  2186  001B3E  6EDA               	movwf	fsr2h,c
  2187  001B40  C014  FFDF         	movff	memset@c,indf2
  2188  001B44  5017               	movf	(memset@n+1)^0,w,c
  2189  001B46  E107               	bnz	u3521
  2190  001B48  0E07               	movlw	7
  2191  001B4A  5C16               	subwf	memset@n^0,w,c
  2192  001B4C  B0D8               	btfsc	status,0,c
  2193  001B4E  EFAB  F00D         	goto	u3521
  2194  001B52  EFAD  F00D         	goto	u3520
  2195  001B56                     u3521:
  2196  001B56  EFAF  F00D         	goto	l3129
  2197  001B5A                     u3520:
  2198  001B5A  EF00  F00E         	goto	l997
  2199  001B5E                     l3129:
  2200  001B5E  EE20 F003          	lfsr	2,3
  2201  001B62  501C               	movf	memset@s^0,w,c
  2202  001B64  26D9               	addwf	fsr2l,f,c
  2203  001B66  501D               	movf	(memset@s+1)^0,w,c
  2204  001B68  22DA               	addwfc	fsr2h,f,c
  2205  001B6A  C014  FFDF         	movff	memset@c,indf2
  2206  001B6E  5016               	movf	memset@n^0,w,c
  2207  001B70  241C               	addwf	memset@s^0,w,c
  2208  001B72  6E18               	movwf	??_memset^0,c
  2209  001B74  5017               	movf	(memset@n+1)^0,w,c
  2210  001B76  201D               	addwfc	(memset@s+1)^0,w,c
  2211  001B78  6E19               	movwf	(??_memset+1)^0,c
  2212  001B7A  0EFC               	movlw	252
  2213  001B7C  2418               	addwf	??_memset^0,w,c
  2214  001B7E  6ED9               	movwf	fsr2l,c
  2215  001B80  0EFF               	movlw	255
  2216  001B82  2019               	addwfc	(??_memset+1)^0,w,c
  2217  001B84  6EDA               	movwf	fsr2h,c
  2218  001B86  C014  FFDF         	movff	memset@c,indf2
  2219  001B8A  5017               	movf	(memset@n+1)^0,w,c
  2220  001B8C  E107               	bnz	u3531
  2221  001B8E  0E09               	movlw	9
  2222  001B90  5C16               	subwf	memset@n^0,w,c
  2223  001B92  B0D8               	btfsc	status,0,c
  2224  001B94  EFCE  F00D         	goto	u3531
  2225  001B98  EFD0  F00D         	goto	u3530
  2226  001B9C                     u3531:
  2227  001B9C  EFD2  F00D         	goto	l3135
  2228  001BA0                     u3530:
  2229  001BA0  EF00  F00E         	goto	l997
  2230  001BA4                     l3135:
  2231  001BA4  C01C  F018         	movff	memset@s,??_memset
  2232  001BA8  C01D  F019         	movff	memset@s+1,??_memset+1
  2233  001BAC  1E18               	comf	??_memset^0,f,c
  2234  001BAE  1E19               	comf	(??_memset+1)^0,f,c
  2235  001BB0  4A18               	infsnz	??_memset^0,f,c
  2236  001BB2  2A19               	incf	(??_memset+1)^0,f,c
  2237  001BB4  0E03               	movlw	3
  2238  001BB6  1418               	andwf	??_memset^0,w,c
  2239  001BB8  6E1A               	movwf	memset@k^0,c
  2240  001BBA  6A1B               	clrf	(memset@k+1)^0,c
  2241  001BBC  501A               	movf	memset@k^0,w,c
  2242  001BBE  261C               	addwf	memset@s^0,f,c
  2243  001BC0  501B               	movf	(memset@k+1)^0,w,c
  2244  001BC2  221D               	addwfc	(memset@s+1)^0,f,c
  2245  001BC4  501A               	movf	memset@k^0,w,c
  2246  001BC6  5E16               	subwf	memset@n^0,f,c
  2247  001BC8  501B               	movf	(memset@k+1)^0,w,c
  2248  001BCA  5A17               	subwfb	(memset@n+1)^0,f,c
  2249  001BCC  0EFC               	movlw	252
  2250  001BCE  1616               	andwf	memset@n^0,f,c
  2251  001BD0  0EFF               	movlw	255
  2252  001BD2  1617               	andwf	(memset@n+1)^0,f,c
  2253  001BD4  EFF7  F00D         	goto	l3143
  2254  001BD8                     l3137:
  2255  001BD8  C01C  FFD9         	movff	memset@s,fsr2l
  2256  001BDC  C01D  FFDA         	movff	memset@s+1,fsr2h
  2257  001BE0  C014  FFDF         	movff	memset@c,indf2
  2258  001BE4  0616               	decf	memset@n^0,f,c
  2259  001BE6  A0D8               	btfss	status,0,c
  2260  001BE8  0617               	decf	(memset@n+1)^0,f,c
  2261  001BEA  4A1C               	infsnz	memset@s^0,f,c
  2262  001BEC  2A1D               	incf	(memset@s+1)^0,f,c
  2263  001BEE                     l3143:
  2264  001BEE  5016               	movf	memset@n^0,w,c
  2265  001BF0  1017               	iorwf	(memset@n+1)^0,w,c
  2266  001BF2  A4D8               	btfss	status,2,c
  2267  001BF4  EFFE  F00D         	goto	u3541
  2268  001BF8  EF00  F00E         	goto	u3540
  2269  001BFC                     u3541:
  2270  001BFC  EFEC  F00D         	goto	l3137
  2271  001C00                     u3540:
  2272  001C00                     l997:
  2273  001C00  0012               	return		;funcret
  2274  001C02                     __end_of_memset:
  2275                           	opt callstack 0
  2276                           
  2277 ;; *************** function ___fleq *****************
  2278 ;; Defined at:
  2279 ;;		line 4 in file "C:\Program Files (x86)\Microchip\xc8\v2.10\pic\sources\c99\common\fleq.c"
  2280 ;; Parameters:    Size  Location     Type
  2281 ;;  ff1             4   17[COMRAM] PTR void 
  2282 ;;  ff2             4   21[COMRAM] PTR void 
  2283 ;; Auto vars:     Size  Location     Type
  2284 ;;		None
  2285 ;; Return value:  Size  Location     Type
  2286 ;;		None               void
  2287 ;; Registers used:
  2288 ;;		wreg, status,2, status,0
  2289 ;; Tracked objects:
  2290 ;;		On entry : 0/0
  2291 ;;		On exit  : 0/0
  2292 ;;		Unchanged: 0/0
  2293 ;; Data sizes:     COMRAM   BANK0   BANK1   BANK2   BANK3   BANK4   BANK5
  2294 ;;      Params:         8       0       0       0       0       0       0
  2295 ;;      Locals:         0       0       0       0       0       0       0
  2296 ;;      Temps:          4       0       0       0       0       0       0
  2297 ;;      Totals:        12       0       0       0       0       0       0
  2298 ;;Total ram usage:       12 bytes
  2299 ;; Hardware stack levels used:    1
  2300 ;; Hardware stack levels required when called:    3
  2301 ;; This function calls:
  2302 ;;		Nothing
  2303 ;; This function is called by:
  2304 ;;		_I2C_Init
  2305 ;; This function uses a non-reentrant model
  2306 ;;
  2307                           
  2308                           	psect	text8
  2309  002066                     __ptext8:
  2310                           	opt callstack 0
  2311  002066                     ___fleq:
  2312                           	opt callstack 26
  2313  002066  0E00               	movlw	0
  2314  002068  1412               	andwf	___fleq@ff1^0,w,c
  2315  00206A  6E1A               	movwf	??___fleq^0,c
  2316  00206C  0E00               	movlw	0
  2317  00206E  1413               	andwf	(___fleq@ff1+1)^0,w,c
  2318  002070  6E1B               	movwf	(??___fleq+1)^0,c
  2319  002072  0E80               	movlw	128
  2320  002074  1414               	andwf	(___fleq@ff1+2)^0,w,c
  2321  002076  6E1C               	movwf	(??___fleq+2)^0,c
  2322  002078  0E7F               	movlw	127
  2323  00207A  1415               	andwf	(___fleq@ff1+3)^0,w,c
  2324  00207C  6E1D               	movwf	(??___fleq+3)^0,c
  2325  00207E  501A               	movf	??___fleq^0,w,c
  2326  002080  101B               	iorwf	(??___fleq+1)^0,w,c
  2327  002082  101C               	iorwf	(??___fleq+2)^0,w,c
  2328  002084  101D               	iorwf	(??___fleq+3)^0,w,c
  2329  002086  A4D8               	btfss	status,2,c
  2330  002088  EF48  F010         	goto	u3551
  2331  00208C  EF4A  F010         	goto	u3550
  2332  002090                     u3551:
  2333  002090  EF52  F010         	goto	l3149
  2334  002094                     u3550:
  2335  002094  0E00               	movlw	0
  2336  002096  6E12               	movwf	___fleq@ff1^0,c
  2337  002098  0E00               	movlw	0
  2338  00209A  6E13               	movwf	(___fleq@ff1+1)^0,c
  2339  00209C  0E00               	movlw	0
  2340  00209E  6E14               	movwf	(___fleq@ff1+2)^0,c
  2341  0020A0  0E00               	movlw	0
  2342  0020A2  6E15               	movwf	(___fleq@ff1+3)^0,c
  2343  0020A4                     l3149:
  2344  0020A4  0E00               	movlw	0
  2345  0020A6  1416               	andwf	___fleq@ff2^0,w,c
  2346  0020A8  6E1A               	movwf	??___fleq^0,c
  2347  0020AA  0E00               	movlw	0
  2348  0020AC  1417               	andwf	(___fleq@ff2+1)^0,w,c
  2349  0020AE  6E1B               	movwf	(??___fleq+1)^0,c
  2350  0020B0  0E80               	movlw	128
  2351  0020B2  1418               	andwf	(___fleq@ff2+2)^0,w,c
  2352  0020B4  6E1C               	movwf	(??___fleq+2)^0,c
  2353  0020B6  0E7F               	movlw	127
  2354  0020B8  1419               	andwf	(___fleq@ff2+3)^0,w,c
  2355  0020BA  6E1D               	movwf	(??___fleq+3)^0,c
  2356  0020BC  501A               	movf	??___fleq^0,w,c
  2357  0020BE  101B               	iorwf	(??___fleq+1)^0,w,c
  2358  0020C0  101C               	iorwf	(??___fleq+2)^0,w,c
  2359  0020C2  101D               	iorwf	(??___fleq+3)^0,w,c
  2360  0020C4  A4D8               	btfss	status,2,c
  2361  0020C6  EF67  F010         	goto	u3561
  2362  0020CA  EF69  F010         	goto	u3560
  2363  0020CE                     u3561:
  2364  0020CE  EF71  F010         	goto	l3153
  2365  0020D2                     u3560:
  2366  0020D2  0E00               	movlw	0
  2367  0020D4  6E16               	movwf	___fleq@ff2^0,c
  2368  0020D6  0E00               	movlw	0
  2369  0020D8  6E17               	movwf	(___fleq@ff2+1)^0,c
  2370  0020DA  0E00               	movlw	0
  2371  0020DC  6E18               	movwf	(___fleq@ff2+2)^0,c
  2372  0020DE  0E00               	movlw	0
  2373  0020E0  6E19               	movwf	(___fleq@ff2+3)^0,c
  2374  0020E2                     l3153:
  2375  0020E2  5016               	movf	___fleq@ff2^0,w,c
  2376  0020E4  1812               	xorwf	___fleq@ff1^0,w,c
  2377  0020E6  E10F               	bnz	u3570
  2378  0020E8  5017               	movf	(___fleq@ff2+1)^0,w,c
  2379  0020EA  1813               	xorwf	(___fleq@ff1+1)^0,w,c
  2380  0020EC  E10C               	bnz	u3570
  2381  0020EE  5018               	movf	(___fleq@ff2+2)^0,w,c
  2382  0020F0  1814               	xorwf	(___fleq@ff1+2)^0,w,c
  2383  0020F2  E109               	bnz	u3570
  2384  0020F4  5019               	movf	(___fleq@ff2+3)^0,w,c
  2385  0020F6  1815               	xorwf	(___fleq@ff1+3)^0,w,c
  2386  0020F8  B4D8               	btfsc	status,2,c
  2387  0020FA  EF81  F010         	goto	u3571
  2388  0020FE  EF83  F010         	goto	u3570
  2389  002102                     u3571:
  2390  002102  EF86  F010         	goto	l3157
  2391  002106                     u3570:
  2392  002106  90D8               	bcf	status,0,c
  2393  002108  EF87  F010         	goto	l581
  2394  00210C                     l3157:
  2395  00210C  80D8               	bsf	status,0,c
  2396  00210E                     l581:
  2397  00210E  0012               	return		;funcret
  2398  002110                     __end_of___fleq:
  2399                           	opt callstack 0
  2400                           
  2401 ;; *************** function _I2C_timer_prescaler *****************
  2402 ;; Defined at:
  2403 ;;		line 481 in file "I2C.c"
  2404 ;; Parameters:    Size  Location     Type
  2405 ;;  period          4   56[COMRAM] float 
  2406 ;;  prUsed          2   60[COMRAM] PTR unsigned int 
  2407 ;;		 -> I2C_Init@prUsed(2), 
  2408 ;;  presc           2   62[COMRAM] unsigned int 
  2409 ;;  prescUsed       2   64[COMRAM] PTR unsigned int 
  2410 ;;		 -> I2C_Init@prescUsed(2), 
  2411 ;;  min             2   66[COMRAM] PTR float 
  2412 ;;		 -> I2C_Init@min(4), 
  2413 ;; Auto vars:     Size  Location     Type
  2414 ;;  pr_f            4   16[BANK0 ] PTR float 
  2415 ;;  minB            4   12[BANK0 ] float 
  2416 ;;  x               4    8[BANK0 ] float 
  2417 ;;  pr              2   20[BANK0 ] unsigned int 
  2418 ;; Return value:  Size  Location     Type
  2419 ;;                  1    wreg      void 
  2420 ;; Registers used:
  2421 ;;		wreg, fsr2l, fsr2h, status,2, status,0, prodl, prodh, cstack
  2422 ;; Tracked objects:
  2423 ;;		On entry : 0/0
  2424 ;;		On exit  : 0/0
  2425 ;;		Unchanged: 0/0
  2426 ;; Data sizes:     COMRAM   BANK0   BANK1   BANK2   BANK3   BANK4   BANK5
  2427 ;;      Params:        12       0       0       0       0       0       0
  2428 ;;      Locals:         0      22       0       0       0       0       0
  2429 ;;      Temps:          0       0       0       0       0       0       0
  2430 ;;      Totals:        12      22       0       0       0       0       0
  2431 ;;Total ram usage:       34 bytes
  2432 ;; Hardware stack levels used:    1
  2433 ;; Hardware stack levels required when called:    5
  2434 ;; This function calls:
  2435 ;;		___fldiv
  2436 ;;		___flge
  2437 ;;		___flmul
  2438 ;;		___flsub
  2439 ;;		___fltol
  2440 ;;		___xxtofl
  2441 ;; This function is called by:
  2442 ;;		_I2C_Init
  2443 ;; This function uses a non-reentrant model
  2444 ;;
  2445                           
  2446                           	psect	text9
  2447  000E1E                     __ptext9:
  2448                           	opt callstack 0
  2449  000E1E                     _I2C_timer_prescaler:
  2450                           	opt callstack 24
  2451  000E1E                     
  2452                           ;I2C.c: 481: void I2C_timer_prescaler(float period, u16 *prUsed, u16 presc, u16 *prescUs
      +                          ed, float *min);I2C.c: 482: {;I2C.c: 483:     float minB;;I2C.c: 484:     double pr_f;;I
      +                          2C.c: 485:     u16 pr;;I2C.c: 486:     long double x;;I2C.c: 487:     x = (((double)8000
      +                          0000)/4) / ((double)presc);
  2453  000E1E  0E80               	movlw	128
  2454  000E20  6E20               	movwf	___fldiv@b^0,c
  2455  000E22  0E96               	movlw	150
  2456  000E24  6E21               	movwf	(___fldiv@b+1)^0,c
  2457  000E26  0E98               	movlw	152
  2458  000E28  6E22               	movwf	(___fldiv@b+2)^0,c
  2459  000E2A  0E4B               	movlw	75
  2460  000E2C  6E23               	movwf	(___fldiv@b+3)^0,c
  2461  000E2E  C03F  F012         	movff	I2C_timer_prescaler@presc,___xxtofl@val
  2462  000E32  C040  F013         	movff	I2C_timer_prescaler@presc+1,___xxtofl@val+1
  2463  000E36  6A14               	clrf	(___xxtofl@val+2)^0,c
  2464  000E38  6A15               	clrf	(___xxtofl@val+3)^0,c
  2465  000E3A  0E00               	movlw	0
  2466  000E3C  ECA7  F00B         	call	___xxtofl
  2467  000E40  C012  F024         	movff	?___xxtofl,___fldiv@a
  2468  000E44  C013  F025         	movff	?___xxtofl+1,___fldiv@a+1
  2469  000E48  C014  F026         	movff	?___xxtofl+2,___fldiv@a+2
  2470  000E4C  C015  F027         	movff	?___xxtofl+3,___fldiv@a+3
  2471  000E50  ECDF  F008         	call	___fldiv	;wreg free
  2472  000E54  C020  F068         	movff	?___fldiv,I2C_timer_prescaler@x
  2473  000E58  C021  F069         	movff	?___fldiv+1,I2C_timer_prescaler@x+1
  2474  000E5C  C022  F06A         	movff	?___fldiv+2,I2C_timer_prescaler@x+2
  2475  000E60  C023  F06B         	movff	?___fldiv+3,I2C_timer_prescaler@x+3
  2476  000E64                     
  2477                           ;I2C.c: 488:     if((x*period)<=(double)256)
  2478  000E64  0E00               	movlw	0
  2479  000E66  6E2B               	movwf	___flge@ff1^0,c
  2480  000E68  0E00               	movlw	0
  2481  000E6A  6E2C               	movwf	(___flge@ff1+1)^0,c
  2482  000E6C  0E80               	movlw	128
  2483  000E6E  6E2D               	movwf	(___flge@ff1+2)^0,c
  2484  000E70  0E43               	movlw	67
  2485  000E72  6E2E               	movwf	(___flge@ff1+3)^0,c
  2486  000E74  C039  F016         	movff	I2C_timer_prescaler@period,___flmul@a
  2487  000E78  C03A  F017         	movff	I2C_timer_prescaler@period+1,___flmul@a+1
  2488  000E7C  C03B  F018         	movff	I2C_timer_prescaler@period+2,___flmul@a+2
  2489  000E80  C03C  F019         	movff	I2C_timer_prescaler@period+3,___flmul@a+3
  2490  000E84  C068  F012         	movff	I2C_timer_prescaler@x,___flmul@b
  2491  000E88  C069  F013         	movff	I2C_timer_prescaler@x+1,___flmul@b+1
  2492  000E8C  C06A  F014         	movff	I2C_timer_prescaler@x+2,___flmul@b+2
  2493  000E90  C06B  F015         	movff	I2C_timer_prescaler@x+3,___flmul@b+3
  2494  000E94  ECFA  F004         	call	___flmul	;wreg free
  2495  000E98  C012  F02F         	movff	?___flmul,___flge@ff2
  2496  000E9C  C013  F030         	movff	?___flmul+1,___flge@ff2+1
  2497  000EA0  C014  F031         	movff	?___flmul+2,___flge@ff2+2
  2498  000EA4  C015  F032         	movff	?___flmul+3,___flge@ff2+3
  2499  000EA8  EC35  F00F         	call	___flge	;wreg free
  2500  000EAC  A0D8               	btfss	status,0,c
  2501  000EAE  EF5B  F007         	goto	u3451
  2502  000EB2  EF5D  F007         	goto	u3450
  2503  000EB6                     u3451:
  2504  000EB6  EFDE  F008         	goto	l319
  2505  000EBA                     u3450:
  2506  000EBA                     
  2507                           ;I2C.c: 489:     {;I2C.c: 490:         pr_f = x * period;
  2508  000EBA  C068  F012         	movff	I2C_timer_prescaler@x,___flmul@b
  2509  000EBE  C069  F013         	movff	I2C_timer_prescaler@x+1,___flmul@b+1
  2510  000EC2  C06A  F014         	movff	I2C_timer_prescaler@x+2,___flmul@b+2
  2511  000EC6  C06B  F015         	movff	I2C_timer_prescaler@x+3,___flmul@b+3
  2512  000ECA  C039  F016         	movff	I2C_timer_prescaler@period,___flmul@a
  2513  000ECE  C03A  F017         	movff	I2C_timer_prescaler@period+1,___flmul@a+1
  2514  000ED2  C03B  F018         	movff	I2C_timer_prescaler@period+2,___flmul@a+2
  2515  000ED6  C03C  F019         	movff	I2C_timer_prescaler@period+3,___flmul@a+3
  2516  000EDA  ECFA  F004         	call	___flmul	;wreg free
  2517  000EDE  C012  F070         	movff	?___flmul,I2C_timer_prescaler@pr_f
  2518  000EE2  C013  F071         	movff	?___flmul+1,I2C_timer_prescaler@pr_f+1
  2519  000EE6  C014  F072         	movff	?___flmul+2,I2C_timer_prescaler@pr_f+2
  2520  000EEA  C015  F073         	movff	?___flmul+3,I2C_timer_prescaler@pr_f+3
  2521  000EEE                     
  2522                           ;I2C.c: 491:         pr = (u16)pr_f;
  2523  000EEE  C070  F012         	movff	I2C_timer_prescaler@pr_f,___fltol@f1
  2524  000EF2  C071  F013         	movff	I2C_timer_prescaler@pr_f+1,___fltol@f1+1
  2525  000EF6  C072  F014         	movff	I2C_timer_prescaler@pr_f+2,___fltol@f1+2
  2526  000EFA  C073  F015         	movff	I2C_timer_prescaler@pr_f+3,___fltol@f1+3
  2527  000EFE  ECB2  F00E         	call	___fltol	;wreg free
  2528  000F02  C012  F074         	movff	?___fltol,I2C_timer_prescaler@pr
  2529  000F06  C013  F075         	movff	?___fltol+1,I2C_timer_prescaler@pr+1
  2530  000F0A                     
  2531                           ;I2C.c: 492:         minB = (pr>pr_f)? (pr-pr_f):(pr_f-pr);
  2532  000F0A  C070  F02B         	movff	I2C_timer_prescaler@pr_f,___flge@ff1
  2533  000F0E  C071  F02C         	movff	I2C_timer_prescaler@pr_f+1,___flge@ff1+1
  2534  000F12  C072  F02D         	movff	I2C_timer_prescaler@pr_f+2,___flge@ff1+2
  2535  000F16  C073  F02E         	movff	I2C_timer_prescaler@pr_f+3,___flge@ff1+3
  2536  000F1A  C074  F012         	movff	I2C_timer_prescaler@pr,___xxtofl@val
  2537  000F1E  C075  F013         	movff	I2C_timer_prescaler@pr+1,___xxtofl@val+1
  2538  000F22  6A14               	clrf	(___xxtofl@val+2)^0,c
  2539  000F24  6A15               	clrf	(___xxtofl@val+3)^0,c
  2540  000F26  0E00               	movlw	0
  2541  000F28  ECA7  F00B         	call	___xxtofl
  2542  000F2C  C012  F02F         	movff	?___xxtofl,___flge@ff2
  2543  000F30  C013  F030         	movff	?___xxtofl+1,___flge@ff2+1
  2544  000F34  C014  F031         	movff	?___xxtofl+2,___flge@ff2+2
  2545  000F38  C015  F032         	movff	?___xxtofl+3,___flge@ff2+3
  2546  000F3C  EC35  F00F         	call	___flge	;wreg free
  2547  000F40  A0D8               	btfss	status,0,c
  2548  000F42  EFA5  F007         	goto	u3461
  2549  000F46  EFA7  F007         	goto	u3460
  2550  000F4A                     u3461:
  2551  000F4A  EFCC  F007         	goto	l3091
  2552  000F4E                     u3460:
  2553  000F4E  C070  F022         	movff	I2C_timer_prescaler@pr_f,___flsub@b
  2554  000F52  C071  F023         	movff	I2C_timer_prescaler@pr_f+1,___flsub@b+1
  2555  000F56  C072  F024         	movff	I2C_timer_prescaler@pr_f+2,___flsub@b+2
  2556  000F5A  C073  F025         	movff	I2C_timer_prescaler@pr_f+3,___flsub@b+3
  2557  000F5E  C074  F012         	movff	I2C_timer_prescaler@pr,___xxtofl@val
  2558  000F62  C075  F013         	movff	I2C_timer_prescaler@pr+1,___xxtofl@val+1
  2559  000F66  6A14               	clrf	(___xxtofl@val+2)^0,c
  2560  000F68  6A15               	clrf	(___xxtofl@val+3)^0,c
  2561  000F6A  0E00               	movlw	0
  2562  000F6C  ECA7  F00B         	call	___xxtofl
  2563  000F70  C012  F026         	movff	?___xxtofl,___flsub@a
  2564  000F74  C013  F027         	movff	?___xxtofl+1,___flsub@a+1
  2565  000F78  C014  F028         	movff	?___xxtofl+2,___flsub@a+2
  2566  000F7C  C015  F029         	movff	?___xxtofl+3,___flsub@a+3
  2567  000F80  EC59  F011         	call	___flsub	;wreg free
  2568  000F84  C022  F060         	movff	?___flsub,_I2C_timer_prescaler$752
  2569  000F88  C023  F061         	movff	?___flsub+1,_I2C_timer_prescaler$752+1
  2570  000F8C  C024  F062         	movff	?___flsub+2,_I2C_timer_prescaler$752+2
  2571  000F90  C025  F063         	movff	?___flsub+3,_I2C_timer_prescaler$752+3
  2572  000F94  EFEF  F007         	goto	l3093
  2573  000F98                     l3091:
  2574  000F98  C074  F012         	movff	I2C_timer_prescaler@pr,___xxtofl@val
  2575  000F9C  C075  F013         	movff	I2C_timer_prescaler@pr+1,___xxtofl@val+1
  2576  000FA0  6A14               	clrf	(___xxtofl@val+2)^0,c
  2577  000FA2  6A15               	clrf	(___xxtofl@val+3)^0,c
  2578  000FA4  0E00               	movlw	0
  2579  000FA6  ECA7  F00B         	call	___xxtofl
  2580  000FAA  C012  F022         	movff	?___xxtofl,___flsub@b
  2581  000FAE  C013  F023         	movff	?___xxtofl+1,___flsub@b+1
  2582  000FB2  C014  F024         	movff	?___xxtofl+2,___flsub@b+2
  2583  000FB6  C015  F025         	movff	?___xxtofl+3,___flsub@b+3
  2584  000FBA  C070  F026         	movff	I2C_timer_prescaler@pr_f,___flsub@a
  2585  000FBE  C071  F027         	movff	I2C_timer_prescaler@pr_f+1,___flsub@a+1
  2586  000FC2  C072  F028         	movff	I2C_timer_prescaler@pr_f+2,___flsub@a+2
  2587  000FC6  C073  F029         	movff	I2C_timer_prescaler@pr_f+3,___flsub@a+3
  2588  000FCA  EC59  F011         	call	___flsub	;wreg free
  2589  000FCE  C022  F060         	movff	?___flsub,_I2C_timer_prescaler$752
  2590  000FD2  C023  F061         	movff	?___flsub+1,_I2C_timer_prescaler$752+1
  2591  000FD6  C024  F062         	movff	?___flsub+2,_I2C_timer_prescaler$752+2
  2592  000FDA  C025  F063         	movff	?___flsub+3,_I2C_timer_prescaler$752+3
  2593  000FDE                     l3093:
  2594  000FDE  C060  F06C         	movff	_I2C_timer_prescaler$752,I2C_timer_prescaler@minB
  2595  000FE2  C061  F06D         	movff	_I2C_timer_prescaler$752+1,I2C_timer_prescaler@minB+1
  2596  000FE6  C062  F06E         	movff	_I2C_timer_prescaler$752+2,I2C_timer_prescaler@minB+2
  2597  000FEA  C063  F06F         	movff	_I2C_timer_prescaler$752+3,I2C_timer_prescaler@minB+3
  2598  000FEE                     
  2599                           ;I2C.c: 493:         if(minB < *min)
  2600  000FEE  C06C  F02B         	movff	I2C_timer_prescaler@minB,___flge@ff1
  2601  000FF2  C06D  F02C         	movff	I2C_timer_prescaler@minB+1,___flge@ff1+1
  2602  000FF6  C06E  F02D         	movff	I2C_timer_prescaler@minB+2,___flge@ff1+2
  2603  000FFA  C06F  F02E         	movff	I2C_timer_prescaler@minB+3,___flge@ff1+3
  2604  000FFE  C043  FFD9         	movff	I2C_timer_prescaler@min,fsr2l
  2605  001002  C044  FFDA         	movff	I2C_timer_prescaler@min+1,fsr2h
  2606  001006  CFDE F02F          	movff	postinc2,___flge@ff2
  2607  00100A  CFDE F030          	movff	postinc2,___flge@ff2+1
  2608  00100E  CFDE F031          	movff	postinc2,___flge@ff2+2
  2609  001012  CFDE F032          	movff	postinc2,___flge@ff2+3
  2610  001016  EC35  F00F         	call	___flge	;wreg free
  2611  00101A  B0D8               	btfsc	status,0,c
  2612  00101C  EF12  F008         	goto	u3471
  2613  001020  EF14  F008         	goto	u3470
  2614  001024                     u3471:
  2615  001024  EF30  F008         	goto	l3099
  2616  001028                     u3470:
  2617  001028                     
  2618                           ;I2C.c: 494:         {;I2C.c: 495:             *prUsed = pr;
  2619  001028  C03D  FFD9         	movff	I2C_timer_prescaler@prUsed,fsr2l
  2620  00102C  C03E  FFDA         	movff	I2C_timer_prescaler@prUsed+1,fsr2h
  2621  001030  C074  FFDE         	movff	I2C_timer_prescaler@pr,postinc2
  2622  001034  C075  FFDD         	movff	I2C_timer_prescaler@pr+1,postdec2
  2623                           
  2624                           ;I2C.c: 496:             *prescUsed = presc;
  2625  001038  C041  FFD9         	movff	I2C_timer_prescaler@prescUsed,fsr2l
  2626  00103C  C042  FFDA         	movff	I2C_timer_prescaler@prescUsed+1,fsr2h
  2627  001040  C03F  FFDE         	movff	I2C_timer_prescaler@presc,postinc2
  2628  001044  C040  FFDD         	movff	I2C_timer_prescaler@presc+1,postdec2
  2629                           
  2630                           ;I2C.c: 497:             *min = minB;
  2631  001048  C043  FFD9         	movff	I2C_timer_prescaler@min,fsr2l
  2632  00104C  C044  FFDA         	movff	I2C_timer_prescaler@min+1,fsr2h
  2633  001050  C06C  FFDE         	movff	I2C_timer_prescaler@minB,postinc2
  2634  001054  C06D  FFDE         	movff	I2C_timer_prescaler@minB+1,postinc2
  2635  001058  C06E  FFDE         	movff	I2C_timer_prescaler@minB+2,postinc2
  2636  00105C  C06F  FFDE         	movff	I2C_timer_prescaler@minB+3,postinc2
  2637  001060                     l3099:
  2638                           
  2639                           ;I2C.c: 499:         pr++;
  2640  001060  0100               	movlb	0	; () banked
  2641  001062  4B74               	infsnz	I2C_timer_prescaler@pr& (0+255),f,b
  2642  001064  2B75               	incf	(I2C_timer_prescaler@pr+1)& (0+255),f,b
  2643  001066                     
  2644                           ; BSR set to: 0
  2645                           ;I2C.c: 500:         minB = (pr>pr_f)? (pr-pr_f):(pr_f-pr);
  2646  001066  C070  F02B         	movff	I2C_timer_prescaler@pr_f,___flge@ff1
  2647  00106A  C071  F02C         	movff	I2C_timer_prescaler@pr_f+1,___flge@ff1+1
  2648  00106E  C072  F02D         	movff	I2C_timer_prescaler@pr_f+2,___flge@ff1+2
  2649  001072  C073  F02E         	movff	I2C_timer_prescaler@pr_f+3,___flge@ff1+3
  2650  001076  C074  F012         	movff	I2C_timer_prescaler@pr,___xxtofl@val
  2651  00107A  C075  F013         	movff	I2C_timer_prescaler@pr+1,___xxtofl@val+1
  2652  00107E  6A14               	clrf	(___xxtofl@val+2)^0,c
  2653  001080  6A15               	clrf	(___xxtofl@val+3)^0,c
  2654  001082  0E00               	movlw	0
  2655  001084  ECA7  F00B         	call	___xxtofl
  2656  001088  C012  F02F         	movff	?___xxtofl,___flge@ff2
  2657  00108C  C013  F030         	movff	?___xxtofl+1,___flge@ff2+1
  2658  001090  C014  F031         	movff	?___xxtofl+2,___flge@ff2+2
  2659  001094  C015  F032         	movff	?___xxtofl+3,___flge@ff2+3
  2660  001098  EC35  F00F         	call	___flge	;wreg free
  2661  00109C  A0D8               	btfss	status,0,c
  2662  00109E  EF53  F008         	goto	u3481
  2663  0010A2  EF55  F008         	goto	u3480
  2664  0010A6                     u3481:
  2665  0010A6  EF7A  F008         	goto	l3105
  2666  0010AA                     u3480:
  2667  0010AA  C070  F022         	movff	I2C_timer_prescaler@pr_f,___flsub@b
  2668  0010AE  C071  F023         	movff	I2C_timer_prescaler@pr_f+1,___flsub@b+1
  2669  0010B2  C072  F024         	movff	I2C_timer_prescaler@pr_f+2,___flsub@b+2
  2670  0010B6  C073  F025         	movff	I2C_timer_prescaler@pr_f+3,___flsub@b+3
  2671  0010BA  C074  F012         	movff	I2C_timer_prescaler@pr,___xxtofl@val
  2672  0010BE  C075  F013         	movff	I2C_timer_prescaler@pr+1,___xxtofl@val+1
  2673  0010C2  6A14               	clrf	(___xxtofl@val+2)^0,c
  2674  0010C4  6A15               	clrf	(___xxtofl@val+3)^0,c
  2675  0010C6  0E00               	movlw	0
  2676  0010C8  ECA7  F00B         	call	___xxtofl
  2677  0010CC  C012  F026         	movff	?___xxtofl,___flsub@a
  2678  0010D0  C013  F027         	movff	?___xxtofl+1,___flsub@a+1
  2679  0010D4  C014  F028         	movff	?___xxtofl+2,___flsub@a+2
  2680  0010D8  C015  F029         	movff	?___xxtofl+3,___flsub@a+3
  2681  0010DC  EC59  F011         	call	___flsub	;wreg free
  2682  0010E0  C022  F064         	movff	?___flsub,_I2C_timer_prescaler$753
  2683  0010E4  C023  F065         	movff	?___flsub+1,_I2C_timer_prescaler$753+1
  2684  0010E8  C024  F066         	movff	?___flsub+2,_I2C_timer_prescaler$753+2
  2685  0010EC  C025  F067         	movff	?___flsub+3,_I2C_timer_prescaler$753+3
  2686  0010F0  EF9D  F008         	goto	l3107
  2687  0010F4                     l3105:
  2688  0010F4  C074  F012         	movff	I2C_timer_prescaler@pr,___xxtofl@val
  2689  0010F8  C075  F013         	movff	I2C_timer_prescaler@pr+1,___xxtofl@val+1
  2690  0010FC  6A14               	clrf	(___xxtofl@val+2)^0,c
  2691  0010FE  6A15               	clrf	(___xxtofl@val+3)^0,c
  2692  001100  0E00               	movlw	0
  2693  001102  ECA7  F00B         	call	___xxtofl
  2694  001106  C012  F022         	movff	?___xxtofl,___flsub@b
  2695  00110A  C013  F023         	movff	?___xxtofl+1,___flsub@b+1
  2696  00110E  C014  F024         	movff	?___xxtofl+2,___flsub@b+2
  2697  001112  C015  F025         	movff	?___xxtofl+3,___flsub@b+3
  2698  001116  C070  F026         	movff	I2C_timer_prescaler@pr_f,___flsub@a
  2699  00111A  C071  F027         	movff	I2C_timer_prescaler@pr_f+1,___flsub@a+1
  2700  00111E  C072  F028         	movff	I2C_timer_prescaler@pr_f+2,___flsub@a+2
  2701  001122  C073  F029         	movff	I2C_timer_prescaler@pr_f+3,___flsub@a+3
  2702  001126  EC59  F011         	call	___flsub	;wreg free
  2703  00112A  C022  F064         	movff	?___flsub,_I2C_timer_prescaler$753
  2704  00112E  C023  F065         	movff	?___flsub+1,_I2C_timer_prescaler$753+1
  2705  001132  C024  F066         	movff	?___flsub+2,_I2C_timer_prescaler$753+2
  2706  001136  C025  F067         	movff	?___flsub+3,_I2C_timer_prescaler$753+3
  2707  00113A                     l3107:
  2708  00113A  C064  F06C         	movff	_I2C_timer_prescaler$753,I2C_timer_prescaler@minB
  2709  00113E  C065  F06D         	movff	_I2C_timer_prescaler$753+1,I2C_timer_prescaler@minB+1
  2710  001142  C066  F06E         	movff	_I2C_timer_prescaler$753+2,I2C_timer_prescaler@minB+2
  2711  001146  C067  F06F         	movff	_I2C_timer_prescaler$753+3,I2C_timer_prescaler@minB+3
  2712  00114A                     
  2713                           ;I2C.c: 501:         if(minB < *min)
  2714  00114A  C06C  F02B         	movff	I2C_timer_prescaler@minB,___flge@ff1
  2715  00114E  C06D  F02C         	movff	I2C_timer_prescaler@minB+1,___flge@ff1+1
  2716  001152  C06E  F02D         	movff	I2C_timer_prescaler@minB+2,___flge@ff1+2
  2717  001156  C06F  F02E         	movff	I2C_timer_prescaler@minB+3,___flge@ff1+3
  2718  00115A  C043  FFD9         	movff	I2C_timer_prescaler@min,fsr2l
  2719  00115E  C044  FFDA         	movff	I2C_timer_prescaler@min+1,fsr2h
  2720  001162  CFDE F02F          	movff	postinc2,___flge@ff2
  2721  001166  CFDE F030          	movff	postinc2,___flge@ff2+1
  2722  00116A  CFDE F031          	movff	postinc2,___flge@ff2+2
  2723  00116E  CFDE F032          	movff	postinc2,___flge@ff2+3
  2724  001172  EC35  F00F         	call	___flge	;wreg free
  2725  001176  B0D8               	btfsc	status,0,c
  2726  001178  EFC0  F008         	goto	u3491
  2727  00117C  EFC2  F008         	goto	u3490
  2728  001180                     u3491:
  2729  001180  EFDE  F008         	goto	l319
  2730  001184                     u3490:
  2731  001184                     
  2732                           ;I2C.c: 502:         {;I2C.c: 503:             *prUsed = pr;
  2733  001184  C03D  FFD9         	movff	I2C_timer_prescaler@prUsed,fsr2l
  2734  001188  C03E  FFDA         	movff	I2C_timer_prescaler@prUsed+1,fsr2h
  2735  00118C  C074  FFDE         	movff	I2C_timer_prescaler@pr,postinc2
  2736  001190  C075  FFDD         	movff	I2C_timer_prescaler@pr+1,postdec2
  2737                           
  2738                           ;I2C.c: 504:             *prescUsed = presc;
  2739  001194  C041  FFD9         	movff	I2C_timer_prescaler@prescUsed,fsr2l
  2740  001198  C042  FFDA         	movff	I2C_timer_prescaler@prescUsed+1,fsr2h
  2741  00119C  C03F  FFDE         	movff	I2C_timer_prescaler@presc,postinc2
  2742  0011A0  C040  FFDD         	movff	I2C_timer_prescaler@presc+1,postdec2
  2743                           
  2744                           ;I2C.c: 505:             *min = minB;
  2745  0011A4  C043  FFD9         	movff	I2C_timer_prescaler@min,fsr2l
  2746  0011A8  C044  FFDA         	movff	I2C_timer_prescaler@min+1,fsr2h
  2747  0011AC  C06C  FFDE         	movff	I2C_timer_prescaler@minB,postinc2
  2748  0011B0  C06D  FFDE         	movff	I2C_timer_prescaler@minB+1,postinc2
  2749  0011B4  C06E  FFDE         	movff	I2C_timer_prescaler@minB+2,postinc2
  2750  0011B8  C06F  FFDE         	movff	I2C_timer_prescaler@minB+3,postinc2
  2751  0011BC                     l319:
  2752  0011BC  0012               	return		;funcret
  2753  0011BE                     __end_of_I2C_timer_prescaler:
  2754                           	opt callstack 0
  2755                           
  2756 ;; *************** function ___xxtofl *****************
  2757 ;; Defined at:
  2758 ;;		line 10 in file "C:\Program Files (x86)\Microchip\xc8\v2.10\pic\sources\c99\common\xxtofl.c"
  2759 ;; Parameters:    Size  Location     Type
  2760 ;;  sign            1    wreg     unsigned char 
  2761 ;;  val             4   17[COMRAM] long 
  2762 ;; Auto vars:     Size  Location     Type
  2763 ;;  sign            1   25[COMRAM] unsigned char 
  2764 ;;  arg             4   27[COMRAM] unsigned long 
  2765 ;;  exp             1   26[COMRAM] unsigned char 
  2766 ;; Return value:  Size  Location     Type
  2767 ;;                  4   17[COMRAM] unsigned char 
  2768 ;; Registers used:
  2769 ;;		wreg, status,2, status,0
  2770 ;; Tracked objects:
  2771 ;;		On entry : 0/0
  2772 ;;		On exit  : 0/0
  2773 ;;		Unchanged: 0/0
  2774 ;; Data sizes:     COMRAM   BANK0   BANK1   BANK2   BANK3   BANK4   BANK5
  2775 ;;      Params:         4       0       0       0       0       0       0
  2776 ;;      Locals:         6       0       0       0       0       0       0
  2777 ;;      Temps:          4       0       0       0       0       0       0
  2778 ;;      Totals:        14       0       0       0       0       0       0
  2779 ;;Total ram usage:       14 bytes
  2780 ;; Hardware stack levels used:    1
  2781 ;; Hardware stack levels required when called:    3
  2782 ;; This function calls:
  2783 ;;		Nothing
  2784 ;; This function is called by:
  2785 ;;		_I2C_timer_prescaler
  2786 ;; This function uses a non-reentrant model
  2787 ;;
  2788                           
  2789                           	psect	text10
  2790  00174E                     __ptext10:
  2791                           	opt callstack 0
  2792  00174E                     ___xxtofl:
  2793                           	opt callstack 25
  2794                           
  2795                           ;incstack = 0
  2796                           ;___xxtofl@sign stored from wreg
  2797  00174E  6E1A               	movwf	___xxtofl@sign^0,c
  2798  001750  501A               	movf	___xxtofl@sign^0,w,c
  2799  001752  B4D8               	btfsc	status,2,c
  2800  001754  EFAE  F00B         	goto	u2971
  2801  001758  EFB0  F00B         	goto	u2970
  2802  00175C                     u2971:
  2803  00175C  EFD2  F00B         	goto	l977
  2804  001760                     u2970:
  2805  001760  BE15               	btfsc	(___xxtofl@val+3)^0,7,c
  2806  001762  EFB7  F00B         	goto	u2980
  2807  001766  EFB5  F00B         	goto	u2981
  2808  00176A                     u2981:
  2809  00176A  EFD2  F00B         	goto	l977
  2810  00176E                     u2980:
  2811  00176E  C012  F016         	movff	___xxtofl@val,??___xxtofl
  2812  001772  C013  F017         	movff	___xxtofl@val+1,??___xxtofl+1
  2813  001776  C014  F018         	movff	___xxtofl@val+2,??___xxtofl+2
  2814  00177A  C015  F019         	movff	___xxtofl@val+3,??___xxtofl+3
  2815  00177E  1E16               	comf	??___xxtofl^0,f,c
  2816  001780  1E17               	comf	(??___xxtofl+1)^0,f,c
  2817  001782  1E18               	comf	(??___xxtofl+2)^0,f,c
  2818  001784  1E19               	comf	(??___xxtofl+3)^0,f,c
  2819  001786  2A16               	incf	??___xxtofl^0,f,c
  2820  001788  0E00               	movlw	0
  2821  00178A  2217               	addwfc	(??___xxtofl+1)^0,f,c
  2822  00178C  2218               	addwfc	(??___xxtofl+2)^0,f,c
  2823  00178E  2219               	addwfc	(??___xxtofl+3)^0,f,c
  2824  001790  C016  F01C         	movff	??___xxtofl,___xxtofl@arg
  2825  001794  C017  F01D         	movff	??___xxtofl+1,___xxtofl@arg+1
  2826  001798  C018  F01E         	movff	??___xxtofl+2,___xxtofl@arg+2
  2827  00179C  C019  F01F         	movff	??___xxtofl+3,___xxtofl@arg+3
  2828  0017A0  EFDA  F00B         	goto	l2849
  2829  0017A4                     l977:
  2830  0017A4  C012  F01C         	movff	___xxtofl@val,___xxtofl@arg
  2831  0017A8  C013  F01D         	movff	___xxtofl@val+1,___xxtofl@arg+1
  2832  0017AC  C014  F01E         	movff	___xxtofl@val+2,___xxtofl@arg+2
  2833  0017B0  C015  F01F         	movff	___xxtofl@val+3,___xxtofl@arg+3
  2834  0017B4                     l2849:
  2835  0017B4  5012               	movf	___xxtofl@val^0,w,c
  2836  0017B6  1013               	iorwf	(___xxtofl@val+1)^0,w,c
  2837  0017B8  1014               	iorwf	(___xxtofl@val+2)^0,w,c
  2838  0017BA  1015               	iorwf	(___xxtofl@val+3)^0,w,c
  2839  0017BC  A4D8               	btfss	status,2,c
  2840  0017BE  EFE3  F00B         	goto	u2991
  2841  0017C2  EFE5  F00B         	goto	u2990
  2842  0017C6                     u2991:
  2843  0017C6  EFEF  F00B         	goto	l2855
  2844  0017CA                     u2990:
  2845  0017CA  0E00               	movlw	0
  2846  0017CC  6E12               	movwf	?___xxtofl^0,c
  2847  0017CE  0E00               	movlw	0
  2848  0017D0  6E13               	movwf	(?___xxtofl+1)^0,c
  2849  0017D2  0E00               	movlw	0
  2850  0017D4  6E14               	movwf	(?___xxtofl+2)^0,c
  2851  0017D6  0E00               	movlw	0
  2852  0017D8  6E15               	movwf	(?___xxtofl+3)^0,c
  2853  0017DA  EF80  F00C         	goto	l980
  2854  0017DE                     l2855:
  2855  0017DE  0E96               	movlw	150
  2856  0017E0  6E1B               	movwf	___xxtofl@exp^0,c
  2857  0017E2  EFF9  F00B         	goto	l2859
  2858  0017E6                     l2857:
  2859  0017E6  2A1B               	incf	___xxtofl@exp^0,f,c
  2860  0017E8  90D8               	bcf	status,0,c
  2861  0017EA  321F               	rrcf	(___xxtofl@arg+3)^0,f,c
  2862  0017EC  321E               	rrcf	(___xxtofl@arg+2)^0,f,c
  2863  0017EE  321D               	rrcf	(___xxtofl@arg+1)^0,f,c
  2864  0017F0  321C               	rrcf	___xxtofl@arg^0,f,c
  2865  0017F2                     l2859:
  2866  0017F2  0E00               	movlw	0
  2867  0017F4  141C               	andwf	___xxtofl@arg^0,w,c
  2868  0017F6  6E16               	movwf	??___xxtofl^0,c
  2869  0017F8  0E00               	movlw	0
  2870  0017FA  141D               	andwf	(___xxtofl@arg+1)^0,w,c
  2871  0017FC  6E17               	movwf	(??___xxtofl+1)^0,c
  2872  0017FE  0E00               	movlw	0
  2873  001800  141E               	andwf	(___xxtofl@arg+2)^0,w,c
  2874  001802  6E18               	movwf	(??___xxtofl+2)^0,c
  2875  001804  0EFE               	movlw	254
  2876  001806  141F               	andwf	(___xxtofl@arg+3)^0,w,c
  2877  001808  6E19               	movwf	(??___xxtofl+3)^0,c
  2878  00180A  5016               	movf	??___xxtofl^0,w,c
  2879  00180C  1017               	iorwf	(??___xxtofl+1)^0,w,c
  2880  00180E  1018               	iorwf	(??___xxtofl+2)^0,w,c
  2881  001810  1019               	iorwf	(??___xxtofl+3)^0,w,c
  2882  001812  A4D8               	btfss	status,2,c
  2883  001814  EF0E  F00C         	goto	u3001
  2884  001818  EF10  F00C         	goto	u3000
  2885  00181C                     u3001:
  2886  00181C  EFF3  F00B         	goto	l2857
  2887  001820                     u3000:
  2888  001820  EF1E  F00C         	goto	l984
  2889  001824                     l2861:
  2890  001824  2A1B               	incf	___xxtofl@exp^0,f,c
  2891  001826  0E01               	movlw	1
  2892  001828  261C               	addwf	___xxtofl@arg^0,f,c
  2893  00182A  0E00               	movlw	0
  2894  00182C  221D               	addwfc	(___xxtofl@arg+1)^0,f,c
  2895  00182E  221E               	addwfc	(___xxtofl@arg+2)^0,f,c
  2896  001830  221F               	addwfc	(___xxtofl@arg+3)^0,f,c
  2897  001832  90D8               	bcf	status,0,c
  2898  001834  321F               	rrcf	(___xxtofl@arg+3)^0,f,c
  2899  001836  321E               	rrcf	(___xxtofl@arg+2)^0,f,c
  2900  001838  321D               	rrcf	(___xxtofl@arg+1)^0,f,c
  2901  00183A  321C               	rrcf	___xxtofl@arg^0,f,c
  2902  00183C                     l984:
  2903  00183C  0E00               	movlw	0
  2904  00183E  141C               	andwf	___xxtofl@arg^0,w,c
  2905  001840  6E16               	movwf	??___xxtofl^0,c
  2906  001842  0E00               	movlw	0
  2907  001844  141D               	andwf	(___xxtofl@arg+1)^0,w,c
  2908  001846  6E17               	movwf	(??___xxtofl+1)^0,c
  2909  001848  0E00               	movlw	0
  2910  00184A  141E               	andwf	(___xxtofl@arg+2)^0,w,c
  2911  00184C  6E18               	movwf	(??___xxtofl+2)^0,c
  2912  00184E  0EFF               	movlw	255
  2913  001850  141F               	andwf	(___xxtofl@arg+3)^0,w,c
  2914  001852  6E19               	movwf	(??___xxtofl+3)^0,c
  2915  001854  5016               	movf	??___xxtofl^0,w,c
  2916  001856  1017               	iorwf	(??___xxtofl+1)^0,w,c
  2917  001858  1018               	iorwf	(??___xxtofl+2)^0,w,c
  2918  00185A  1019               	iorwf	(??___xxtofl+3)^0,w,c
  2919  00185C  A4D8               	btfss	status,2,c
  2920  00185E  EF33  F00C         	goto	u3011
  2921  001862  EF35  F00C         	goto	u3010
  2922  001866                     u3011:
  2923  001866  EF12  F00C         	goto	l2861
  2924  00186A                     u3010:
  2925  00186A  EF3D  F00C         	goto	l2869
  2926  00186E                     l2867:
  2927  00186E  061B               	decf	___xxtofl@exp^0,f,c
  2928  001870  90D8               	bcf	status,0,c
  2929  001872  361C               	rlcf	___xxtofl@arg^0,f,c
  2930  001874  361D               	rlcf	(___xxtofl@arg+1)^0,f,c
  2931  001876  361E               	rlcf	(___xxtofl@arg+2)^0,f,c
  2932  001878  361F               	rlcf	(___xxtofl@arg+3)^0,f,c
  2933  00187A                     l2869:
  2934  00187A  BE1E               	btfsc	(___xxtofl@arg+2)^0,7,c
  2935  00187C  EF42  F00C         	goto	u3021
  2936  001880  EF44  F00C         	goto	u3020
  2937  001884                     u3021:
  2938  001884  EF4C  F00C         	goto	l991
  2939  001888                     u3020:
  2940  001888  0E02               	movlw	2
  2941  00188A  601B               	cpfslt	___xxtofl@exp^0,c
  2942  00188C  EF4A  F00C         	goto	u3031
  2943  001890  EF4C  F00C         	goto	u3030
  2944  001894                     u3031:
  2945  001894  EF37  F00C         	goto	l2867
  2946  001898                     u3030:
  2947  001898                     l991:
  2948  001898  B01B               	btfsc	___xxtofl@exp^0,0,c
  2949  00189A  EF51  F00C         	goto	u3041
  2950  00189E  EF53  F00C         	goto	u3040
  2951  0018A2                     u3041:
  2952  0018A2  EF54  F00C         	goto	l2875
  2953  0018A6                     u3040:
  2954  0018A6  9E1E               	bcf	(___xxtofl@arg+2)^0,7,c
  2955  0018A8                     l2875:
  2956  0018A8  90D8               	bcf	status,0,c
  2957  0018AA  321B               	rrcf	___xxtofl@exp^0,f,c
  2958  0018AC  C01B  F016         	movff	___xxtofl@exp,??___xxtofl
  2959  0018B0  6A17               	clrf	(??___xxtofl+1)^0,c
  2960  0018B2  6A18               	clrf	(??___xxtofl+2)^0,c
  2961  0018B4  6A19               	clrf	(??___xxtofl+3)^0,c
  2962  0018B6  C016  F019         	movff	??___xxtofl,??___xxtofl+3
  2963  0018BA  6A18               	clrf	(??___xxtofl+2)^0,c
  2964  0018BC  6A17               	clrf	(??___xxtofl+1)^0,c
  2965  0018BE  6A16               	clrf	??___xxtofl^0,c
  2966  0018C0  5016               	movf	??___xxtofl^0,w,c
  2967  0018C2  121C               	iorwf	___xxtofl@arg^0,f,c
  2968  0018C4  5017               	movf	(??___xxtofl+1)^0,w,c
  2969  0018C6  121D               	iorwf	(___xxtofl@arg+1)^0,f,c
  2970  0018C8  5018               	movf	(??___xxtofl+2)^0,w,c
  2971  0018CA  121E               	iorwf	(___xxtofl@arg+2)^0,f,c
  2972  0018CC  5019               	movf	(??___xxtofl+3)^0,w,c
  2973  0018CE  121F               	iorwf	(___xxtofl@arg+3)^0,f,c
  2974  0018D0  501A               	movf	___xxtofl@sign^0,w,c
  2975  0018D2  B4D8               	btfsc	status,2,c
  2976  0018D4  EF6E  F00C         	goto	u3051
  2977  0018D8  EF70  F00C         	goto	u3050
  2978  0018DC                     u3051:
  2979  0018DC  EF78  F00C         	goto	l2885
  2980  0018E0                     u3050:
  2981  0018E0  BE15               	btfsc	(___xxtofl@val+3)^0,7,c
  2982  0018E2  EF77  F00C         	goto	u3060
  2983  0018E6  EF75  F00C         	goto	u3061
  2984  0018EA                     u3061:
  2985  0018EA  EF78  F00C         	goto	l2885
  2986  0018EE                     u3060:
  2987  0018EE  8E1F               	bsf	(___xxtofl@arg+3)^0,7,c
  2988  0018F0                     l2885:
  2989  0018F0  C01C  F012         	movff	___xxtofl@arg,?___xxtofl
  2990  0018F4  C01D  F013         	movff	___xxtofl@arg+1,?___xxtofl+1
  2991  0018F8  C01E  F014         	movff	___xxtofl@arg+2,?___xxtofl+2
  2992  0018FC  C01F  F015         	movff	___xxtofl@arg+3,?___xxtofl+3
  2993  001900                     l980:
  2994  001900  0012               	return		;funcret
  2995  001902                     __end_of___xxtofl:
  2996                           	opt callstack 0
  2997                           
  2998 ;; *************** function ___fltol *****************
  2999 ;; Defined at:
  3000 ;;		line 43 in file "C:\Program Files (x86)\Microchip\xc8\v2.10\pic\sources\c99\common\fltol.c"
  3001 ;; Parameters:    Size  Location     Type
  3002 ;;  f1              4   17[COMRAM] unsigned char 
  3003 ;; Auto vars:     Size  Location     Type
  3004 ;;  exp1            1   26[COMRAM] unsigned char 
  3005 ;;  sign1           1   25[COMRAM] unsigned char 
  3006 ;; Return value:  Size  Location     Type
  3007 ;;                  4   17[COMRAM] long 
  3008 ;; Registers used:
  3009 ;;		wreg, status,2, status,0
  3010 ;; Tracked objects:
  3011 ;;		On entry : 0/0
  3012 ;;		On exit  : 0/0
  3013 ;;		Unchanged: 0/0
  3014 ;; Data sizes:     COMRAM   BANK0   BANK1   BANK2   BANK3   BANK4   BANK5
  3015 ;;      Params:         4       0       0       0       0       0       0
  3016 ;;      Locals:         2       0       0       0       0       0       0
  3017 ;;      Temps:          4       0       0       0       0       0       0
  3018 ;;      Totals:        10       0       0       0       0       0       0
  3019 ;;Total ram usage:       10 bytes
  3020 ;; Hardware stack levels used:    1
  3021 ;; Hardware stack levels required when called:    3
  3022 ;; This function calls:
  3023 ;;		Nothing
  3024 ;; This function is called by:
  3025 ;;		_I2C_timer_prescaler
  3026 ;; This function uses a non-reentrant model
  3027 ;;
  3028                           
  3029                           	psect	text11
  3030  001D64                     __ptext11:
  3031                           	opt callstack 0
  3032  001D64                     ___fltol:
  3033                           	opt callstack 25
  3034  001D64  3414               	rlcf	(___fltol@f1+2)^0,w,c
  3035  001D66  3415               	rlcf	(___fltol@f1+3)^0,w,c
  3036  001D68  6E1B               	movwf	___fltol@exp1^0,c
  3037  001D6A  501B               	movf	___fltol@exp1^0,w,c
  3038  001D6C  A4D8               	btfss	status,2,c
  3039  001D6E  EFBB  F00E         	goto	u2901
  3040  001D72  EFBD  F00E         	goto	u2900
  3041  001D76                     u2901:
  3042  001D76  EFC7  F00E         	goto	l2805
  3043  001D7A                     u2900:
  3044  001D7A                     l2801:
  3045  001D7A  0E00               	movlw	0
  3046  001D7C  6E12               	movwf	?___fltol^0,c
  3047  001D7E  0E00               	movlw	0
  3048  001D80  6E13               	movwf	(?___fltol+1)^0,c
  3049  001D82  0E00               	movlw	0
  3050  001D84  6E14               	movwf	(?___fltol+2)^0,c
  3051  001D86  0E00               	movlw	0
  3052  001D88  6E15               	movwf	(?___fltol+3)^0,c
  3053  001D8A  EF34  F00F         	goto	l619
  3054  001D8E                     l2805:
  3055  001D8E  C012  F016         	movff	___fltol@f1,??___fltol
  3056  001D92  C013  F017         	movff	___fltol@f1+1,??___fltol+1
  3057  001D96  C014  F018         	movff	___fltol@f1+2,??___fltol+2
  3058  001D9A  C015  F019         	movff	___fltol@f1+3,??___fltol+3
  3059  001D9E  0E20               	movlw	32
  3060  001DA0  EFD7  F00E         	goto	u2910
  3061  001DA4                     u2915:
  3062  001DA4  90D8               	bcf	status,0,c
  3063  001DA6  3219               	rrcf	(??___fltol+3)^0,f,c
  3064  001DA8  3218               	rrcf	(??___fltol+2)^0,f,c
  3065  001DAA  3217               	rrcf	(??___fltol+1)^0,f,c
  3066  001DAC  3216               	rrcf	??___fltol^0,f,c
  3067  001DAE                     u2910:
  3068  001DAE  2EE8               	decfsz	wreg,f,c
  3069  001DB0  EFD2  F00E         	goto	u2915
  3070  001DB4  5016               	movf	??___fltol^0,w,c
  3071  001DB6  6E1A               	movwf	___fltol@sign1^0,c
  3072  001DB8  8E14               	bsf	(___fltol@f1+2)^0,7,c
  3073  001DBA  0EFF               	movlw	255
  3074  001DBC  1612               	andwf	___fltol@f1^0,f,c
  3075  001DBE  0EFF               	movlw	255
  3076  001DC0  1613               	andwf	(___fltol@f1+1)^0,f,c
  3077  001DC2  0EFF               	movlw	255
  3078  001DC4  1614               	andwf	(___fltol@f1+2)^0,f,c
  3079  001DC6  0E00               	movlw	0
  3080  001DC8  1615               	andwf	(___fltol@f1+3)^0,f,c
  3081  001DCA  0E96               	movlw	150
  3082  001DCC  5E1B               	subwf	___fltol@exp1^0,f,c
  3083  001DCE  BE1B               	btfsc	___fltol@exp1^0,7,c
  3084  001DD0  EFEE  F00E         	goto	u2920
  3085  001DD4  EFEC  F00E         	goto	u2921
  3086  001DD8                     u2921:
  3087  001DD8  EF04  F00F         	goto	l2825
  3088  001DDC                     u2920:
  3089  001DDC  501B               	movf	___fltol@exp1^0,w,c
  3090  001DDE  0A80               	xorlw	128
  3091  001DE0  0F97               	addlw	151
  3092  001DE2  B0D8               	btfsc	status,0,c
  3093  001DE4  EFF6  F00E         	goto	u2931
  3094  001DE8  EFF8  F00E         	goto	u2930
  3095  001DEC                     u2931:
  3096  001DEC  EFFA  F00E         	goto	l2821
  3097  001DF0                     u2930:
  3098  001DF0  EFBD  F00E         	goto	l2801
  3099  001DF4                     l2821:
  3100  001DF4  90D8               	bcf	status,0,c
  3101  001DF6  3215               	rrcf	(___fltol@f1+3)^0,f,c
  3102  001DF8  3214               	rrcf	(___fltol@f1+2)^0,f,c
  3103  001DFA  3213               	rrcf	(___fltol@f1+1)^0,f,c
  3104  001DFC  3212               	rrcf	___fltol@f1^0,f,c
  3105  001DFE  3E1B               	incfsz	___fltol@exp1^0,f,c
  3106  001E00  EFFA  F00E         	goto	l2821
  3107  001E04  EF1C  F00F         	goto	l2835
  3108  001E08                     l2825:
  3109  001E08  0E1F               	movlw	31
  3110  001E0A  641B               	cpfsgt	___fltol@exp1^0,c
  3111  001E0C  EF0A  F00F         	goto	u2941
  3112  001E10  EF0C  F00F         	goto	u2940
  3113  001E14                     u2941:
  3114  001E14  EF14  F00F         	goto	l2833
  3115  001E18                     u2940:
  3116  001E18  EFBD  F00E         	goto	l2801
  3117  001E1C                     l2831:
  3118  001E1C  90D8               	bcf	status,0,c
  3119  001E1E  3612               	rlcf	___fltol@f1^0,f,c
  3120  001E20  3613               	rlcf	(___fltol@f1+1)^0,f,c
  3121  001E22  3614               	rlcf	(___fltol@f1+2)^0,f,c
  3122  001E24  3615               	rlcf	(___fltol@f1+3)^0,f,c
  3123  001E26  061B               	decf	___fltol@exp1^0,f,c
  3124  001E28                     l2833:
  3125  001E28  501B               	movf	___fltol@exp1^0,w,c
  3126  001E2A  A4D8               	btfss	status,2,c
  3127  001E2C  EF1A  F00F         	goto	u2951
  3128  001E30  EF1C  F00F         	goto	u2950
  3129  001E34                     u2951:
  3130  001E34  EF0E  F00F         	goto	l2831
  3131  001E38                     u2950:
  3132  001E38                     l2835:
  3133  001E38  501A               	movf	___fltol@sign1^0,w,c
  3134  001E3A  B4D8               	btfsc	status,2,c
  3135  001E3C  EF22  F00F         	goto	u2961
  3136  001E40  EF24  F00F         	goto	u2960
  3137  001E44                     u2961:
  3138  001E44  EF2C  F00F         	goto	l2839
  3139  001E48                     u2960:
  3140  001E48  1E15               	comf	(___fltol@f1+3)^0,f,c
  3141  001E4A  1E14               	comf	(___fltol@f1+2)^0,f,c
  3142  001E4C  1E13               	comf	(___fltol@f1+1)^0,f,c
  3143  001E4E  6C12               	negf	___fltol@f1^0,c
  3144  001E50  0E00               	movlw	0
  3145  001E52  2213               	addwfc	(___fltol@f1+1)^0,f,c
  3146  001E54  2214               	addwfc	(___fltol@f1+2)^0,f,c
  3147  001E56  2215               	addwfc	(___fltol@f1+3)^0,f,c
  3148  001E58                     l2839:
  3149  001E58  C012  F012         	movff	___fltol@f1,?___fltol
  3150  001E5C  C013  F013         	movff	___fltol@f1+1,?___fltol+1
  3151  001E60  C014  F014         	movff	___fltol@f1+2,?___fltol+2
  3152  001E64  C015  F015         	movff	___fltol@f1+3,?___fltol+3
  3153  001E68                     l619:
  3154  001E68  0012               	return		;funcret
  3155  001E6A                     __end_of___fltol:
  3156                           	opt callstack 0
  3157                           
  3158 ;; *************** function ___flsub *****************
  3159 ;; Defined at:
  3160 ;;		line 245 in file "C:\Program Files (x86)\Microchip\xc8\v2.10\pic\sources\c99\common\sprcadd.c"
  3161 ;; Parameters:    Size  Location     Type
  3162 ;;  b               4   33[COMRAM] long 
  3163 ;;  a               4   37[COMRAM] long 
  3164 ;; Auto vars:     Size  Location     Type
  3165 ;;		None
  3166 ;; Return value:  Size  Location     Type
  3167 ;;                  4   33[COMRAM] long 
  3168 ;; Registers used:
  3169 ;;		wreg, status,2, status,0, cstack
  3170 ;; Tracked objects:
  3171 ;;		On entry : 0/0
  3172 ;;		On exit  : 0/0
  3173 ;;		Unchanged: 0/0
  3174 ;; Data sizes:     COMRAM   BANK0   BANK1   BANK2   BANK3   BANK4   BANK5
  3175 ;;      Params:         8       0       0       0       0       0       0
  3176 ;;      Locals:         0       0       0       0       0       0       0
  3177 ;;      Temps:          0       0       0       0       0       0       0
  3178 ;;      Totals:         8       0       0       0       0       0       0
  3179 ;;Total ram usage:        8 bytes
  3180 ;; Hardware stack levels used:    1
  3181 ;; Hardware stack levels required when called:    4
  3182 ;; This function calls:
  3183 ;;		___fladd
  3184 ;; This function is called by:
  3185 ;;		_I2C_timer_prescaler
  3186 ;; This function uses a non-reentrant model
  3187 ;;
  3188                           
  3189                           	psect	text12
  3190  0022B2                     __ptext12:
  3191                           	opt callstack 0
  3192  0022B2                     ___flsub:
  3193                           	opt callstack 24
  3194  0022B2  0E00               	movlw	0
  3195  0022B4  1A26               	xorwf	___flsub@a^0,f,c
  3196  0022B6  0E00               	movlw	0
  3197  0022B8  1A27               	xorwf	(___flsub@a+1)^0,f,c
  3198  0022BA  0E00               	movlw	0
  3199  0022BC  1A28               	xorwf	(___flsub@a+2)^0,f,c
  3200  0022BE  0E80               	movlw	128
  3201  0022C0  1A29               	xorwf	(___flsub@a+3)^0,f,c
  3202  0022C2  C022  F012         	movff	___flsub@b,___fladd@b
  3203  0022C6  C023  F013         	movff	___flsub@b+1,___fladd@b+1
  3204  0022CA  C024  F014         	movff	___flsub@b+2,___fladd@b+2
  3205  0022CE  C025  F015         	movff	___flsub@b+3,___fladd@b+3
  3206  0022D2  C026  F016         	movff	___flsub@a,___fladd@a
  3207  0022D6  C027  F017         	movff	___flsub@a+1,___fladd@a+1
  3208  0022DA  C028  F018         	movff	___flsub@a+2,___fladd@a+2
  3209  0022DE  C029  F019         	movff	___flsub@a+3,___fladd@a+3
  3210  0022E2  EC9A  F002         	call	___fladd	;wreg free
  3211  0022E6  C012  F022         	movff	?___fladd,?___flsub
  3212  0022EA  C013  F023         	movff	?___fladd+1,?___flsub+1
  3213  0022EE  C014  F024         	movff	?___fladd+2,?___flsub+2
  3214  0022F2  C015  F025         	movff	?___fladd+3,?___flsub+3
  3215  0022F6  0012               	return		;funcret
  3216  0022F8                     __end_of___flsub:
  3217                           	opt callstack 0
  3218                           
  3219 ;; *************** function ___fladd *****************
  3220 ;; Defined at:
  3221 ;;		line 10 in file "C:\Program Files (x86)\Microchip\xc8\v2.10\pic\sources\c99\common\sprcadd.c"
  3222 ;; Parameters:    Size  Location     Type
  3223 ;;  b               4   17[COMRAM] long 
  3224 ;;  a               4   21[COMRAM] long 
  3225 ;; Auto vars:     Size  Location     Type
  3226 ;;  grs             1   32[COMRAM] unsigned char 
  3227 ;;  bexp            1   31[COMRAM] unsigned char 
  3228 ;;  aexp            1   30[COMRAM] unsigned char 
  3229 ;;  signs           1   29[COMRAM] unsigned char 
  3230 ;; Return value:  Size  Location     Type
  3231 ;;                  4   17[COMRAM] unsigned char 
  3232 ;; Registers used:
  3233 ;;		wreg, status,2, status,0
  3234 ;; Tracked objects:
  3235 ;;		On entry : 0/0
  3236 ;;		On exit  : 0/0
  3237 ;;		Unchanged: 0/0
  3238 ;; Data sizes:     COMRAM   BANK0   BANK1   BANK2   BANK3   BANK4   BANK5
  3239 ;;      Params:         8       0       0       0       0       0       0
  3240 ;;      Locals:         4       0       0       0       0       0       0
  3241 ;;      Temps:          4       0       0       0       0       0       0
  3242 ;;      Totals:        16       0       0       0       0       0       0
  3243 ;;Total ram usage:       16 bytes
  3244 ;; Hardware stack levels used:    1
  3245 ;; Hardware stack levels required when called:    3
  3246 ;; This function calls:
  3247 ;;		Nothing
  3248 ;; This function is called by:
  3249 ;;		___flsub
  3250 ;; This function uses a non-reentrant model
  3251 ;;
  3252                           
  3253                           	psect	text13
  3254  000534                     __ptext13:
  3255                           	opt callstack 0
  3256  000534                     ___fladd:
  3257                           	opt callstack 24
  3258  000534  5015               	movf	(___fladd@b+3)^0,w,c
  3259  000536  0B80               	andlw	128
  3260  000538  6E1E               	movwf	___fladd@signs^0,c
  3261  00053A  5015               	movf	(___fladd@b+3)^0,w,c
  3262  00053C  2415               	addwf	(___fladd@b+3)^0,w,c
  3263  00053E  6E20               	movwf	___fladd@bexp^0,c
  3264  000540  AE14               	btfss	(___fladd@b+2)^0,7,c
  3265  000542  EFA5  F002         	goto	u2041
  3266  000546  EFA7  F002         	goto	u2040
  3267  00054A                     u2041:
  3268  00054A  EFA8  F002         	goto	l2307
  3269  00054E                     u2040:
  3270  00054E  8020               	bsf	___fladd@bexp^0,0,c
  3271  000550                     l2307:
  3272  000550  5020               	movf	___fladd@bexp^0,w,c
  3273  000552  B4D8               	btfsc	status,2,c
  3274  000554  EFAE  F002         	goto	u2051
  3275  000558  EFB0  F002         	goto	u2050
  3276  00055C                     u2051:
  3277  00055C  EFC5  F002         	goto	l2317
  3278  000560                     u2050:
  3279  000560  2820               	incf	___fladd@bexp^0,w,c
  3280  000562  A4D8               	btfss	status,2,c
  3281  000564  EFB6  F002         	goto	u2061
  3282  000568  EFB8  F002         	goto	u2060
  3283  00056C                     u2061:
  3284  00056C  EFC0  F002         	goto	l2313
  3285  000570                     u2060:
  3286  000570  0E00               	movlw	0
  3287  000572  6E12               	movwf	___fladd@b^0,c
  3288  000574  0E00               	movlw	0
  3289  000576  6E13               	movwf	(___fladd@b+1)^0,c
  3290  000578  0E00               	movlw	0
  3291  00057A  6E14               	movwf	(___fladd@b+2)^0,c
  3292  00057C  0E00               	movlw	0
  3293  00057E  6E15               	movwf	(___fladd@b+3)^0,c
  3294  000580                     l2313:
  3295  000580  8E14               	bsf	(___fladd@b+2)^0,7,c
  3296  000582  0E00               	movlw	0
  3297  000584  6E15               	movwf	(___fladd@b+3)^0,c
  3298  000586  EFCD  F002         	goto	l2319
  3299  00058A                     l2317:
  3300  00058A  0E00               	movlw	0
  3301  00058C  6E12               	movwf	___fladd@b^0,c
  3302  00058E  0E00               	movlw	0
  3303  000590  6E13               	movwf	(___fladd@b+1)^0,c
  3304  000592  0E00               	movlw	0
  3305  000594  6E14               	movwf	(___fladd@b+2)^0,c
  3306  000596  0E00               	movlw	0
  3307  000598  6E15               	movwf	(___fladd@b+3)^0,c
  3308  00059A                     l2319:
  3309  00059A  5019               	movf	(___fladd@a+3)^0,w,c
  3310  00059C  0B80               	andlw	128
  3311  00059E  6E1F               	movwf	___fladd@aexp^0,c
  3312  0005A0  501E               	movf	___fladd@signs^0,w,c
  3313  0005A2  181F               	xorwf	___fladd@aexp^0,w,c
  3314  0005A4  B4D8               	btfsc	status,2,c
  3315  0005A6  EFD7  F002         	goto	u2071
  3316  0005AA  EFD9  F002         	goto	u2070
  3317  0005AE                     u2071:
  3318  0005AE  EFDA  F002         	goto	l2325
  3319  0005B2                     u2070:
  3320  0005B2  8C1E               	bsf	___fladd@signs^0,6,c
  3321  0005B4                     l2325:
  3322  0005B4  5019               	movf	(___fladd@a+3)^0,w,c
  3323  0005B6  2419               	addwf	(___fladd@a+3)^0,w,c
  3324  0005B8  6E1F               	movwf	___fladd@aexp^0,c
  3325  0005BA  AE18               	btfss	(___fladd@a+2)^0,7,c
  3326  0005BC  EFE2  F002         	goto	u2081
  3327  0005C0  EFE4  F002         	goto	u2080
  3328  0005C4                     u2081:
  3329  0005C4  EFE5  F002         	goto	l2331
  3330  0005C8                     u2080:
  3331  0005C8  801F               	bsf	___fladd@aexp^0,0,c
  3332  0005CA                     l2331:
  3333  0005CA  501F               	movf	___fladd@aexp^0,w,c
  3334  0005CC  B4D8               	btfsc	status,2,c
  3335  0005CE  EFEB  F002         	goto	u2091
  3336  0005D2  EFED  F002         	goto	u2090
  3337  0005D6                     u2091:
  3338  0005D6  EF02  F003         	goto	l2341
  3339  0005DA                     u2090:
  3340  0005DA  281F               	incf	___fladd@aexp^0,w,c
  3341  0005DC  A4D8               	btfss	status,2,c
  3342  0005DE  EFF3  F002         	goto	u2101
  3343  0005E2  EFF5  F002         	goto	u2100
  3344  0005E6                     u2101:
  3345  0005E6  EFFD  F002         	goto	l2337
  3346  0005EA                     u2100:
  3347  0005EA  0E00               	movlw	0
  3348  0005EC  6E16               	movwf	___fladd@a^0,c
  3349  0005EE  0E00               	movlw	0
  3350  0005F0  6E17               	movwf	(___fladd@a+1)^0,c
  3351  0005F2  0E00               	movlw	0
  3352  0005F4  6E18               	movwf	(___fladd@a+2)^0,c
  3353  0005F6  0E00               	movlw	0
  3354  0005F8  6E19               	movwf	(___fladd@a+3)^0,c
  3355  0005FA                     l2337:
  3356  0005FA  8E18               	bsf	(___fladd@a+2)^0,7,c
  3357  0005FC  0E00               	movlw	0
  3358  0005FE  6E19               	movwf	(___fladd@a+3)^0,c
  3359  000600  EF0A  F003         	goto	l2343
  3360  000604                     l2341:
  3361  000604  0E00               	movlw	0
  3362  000606  6E16               	movwf	___fladd@a^0,c
  3363  000608  0E00               	movlw	0
  3364  00060A  6E17               	movwf	(___fladd@a+1)^0,c
  3365  00060C  0E00               	movlw	0
  3366  00060E  6E18               	movwf	(___fladd@a+2)^0,c
  3367  000610  0E00               	movlw	0
  3368  000612  6E19               	movwf	(___fladd@a+3)^0,c
  3369  000614                     l2343:
  3370  000614  5020               	movf	___fladd@bexp^0,w,c
  3371  000616  5C1F               	subwf	___fladd@aexp^0,w,c
  3372  000618  B0D8               	btfsc	status,0,c
  3373  00061A  EF11  F003         	goto	u2111
  3374  00061E  EF13  F003         	goto	u2110
  3375  000622                     u2111:
  3376  000622  EF3A  F003         	goto	l2379
  3377  000626                     u2110:
  3378  000626  AC1E               	btfss	___fladd@signs^0,6,c
  3379  000628  EF18  F003         	goto	u2121
  3380  00062C  EF1A  F003         	goto	u2120
  3381  000630                     u2121:
  3382  000630  EF1C  F003         	goto	l2349
  3383  000634                     u2120:
  3384  000634  0E80               	movlw	128
  3385  000636  1A1E               	xorwf	___fladd@signs^0,f,c
  3386  000638                     l2349:
  3387  000638  C020  F021         	movff	___fladd@bexp,___fladd@grs
  3388  00063C  C01F  F020         	movff	___fladd@aexp,___fladd@bexp
  3389  000640  C021  F01F         	movff	___fladd@grs,___fladd@aexp
  3390  000644  C012  F021         	movff	___fladd@b,___fladd@grs
  3391  000648  C016  F012         	movff	___fladd@a,___fladd@b
  3392  00064C  C021  F016         	movff	___fladd@grs,___fladd@a
  3393  000650  C013  F021         	movff	___fladd@b+1,___fladd@grs
  3394  000654  C017  F013         	movff	___fladd@a+1,___fladd@b+1
  3395  000658  C021  F017         	movff	___fladd@grs,___fladd@a+1
  3396  00065C  C014  F021         	movff	___fladd@b+2,___fladd@grs
  3397  000660  C018  F014         	movff	___fladd@a+2,___fladd@b+2
  3398  000664  C021  F018         	movff	___fladd@grs,___fladd@a+2
  3399  000668  C015  F021         	movff	___fladd@b+3,___fladd@grs
  3400  00066C  C019  F015         	movff	___fladd@a+3,___fladd@b+3
  3401  000670  C021  F019         	movff	___fladd@grs,___fladd@a+3
  3402  000674                     l2379:
  3403  000674  0E00               	movlw	0
  3404  000676  6E21               	movwf	___fladd@grs^0,c
  3405  000678  5020               	movf	___fladd@bexp^0,w,c
  3406  00067A  C01F  F01A         	movff	___fladd@aexp,??___fladd
  3407  00067E  6A1B               	clrf	(??___fladd+1)^0,c
  3408  000680  5E1A               	subwf	??___fladd^0,f,c
  3409  000682  0E00               	movlw	0
  3410  000684  5A1B               	subwfb	(??___fladd+1)^0,f,c
  3411  000686  BE1B               	btfsc	(??___fladd+1)^0,7,c
  3412  000688  EF4F  F003         	goto	u2131
  3413  00068C  501B               	movf	(??___fladd+1)^0,w,c
  3414  00068E  E109               	bnz	u2130
  3415  000690  0E1A               	movlw	26
  3416  000692  5C1A               	subwf	??___fladd^0,w,c
  3417  000694  A0D8               	btfss	status,0,c
  3418  000696  EF4F  F003         	goto	u2131
  3419  00069A  EF51  F003         	goto	u2130
  3420  00069E                     u2131:
  3421  00069E  EF88  F003         	goto	l851
  3422  0006A2                     u2130:
  3423  0006A2  5012               	movf	___fladd@b^0,w,c
  3424  0006A4  1013               	iorwf	(___fladd@b+1)^0,w,c
  3425  0006A6  1014               	iorwf	(___fladd@b+2)^0,w,c
  3426  0006A8  1015               	iorwf	(___fladd@b+3)^0,w,c
  3427  0006AA  A4D8               	btfss	status,2,c
  3428  0006AC  EF5A  F003         	goto	u2141
  3429  0006B0  EF5D  F003         	goto	u2140
  3430  0006B4                     u2141:
  3431  0006B4  0E01               	movlw	1
  3432  0006B6  EF5E  F003         	goto	u2150
  3433  0006BA                     u2140:
  3434  0006BA  0E00               	movlw	0
  3435  0006BC                     u2150:
  3436  0006BC  6E21               	movwf	___fladd@grs^0,c
  3437  0006BE  0E00               	movlw	0
  3438  0006C0  6E12               	movwf	___fladd@b^0,c
  3439  0006C2  0E00               	movlw	0
  3440  0006C4  6E13               	movwf	(___fladd@b+1)^0,c
  3441  0006C6  0E00               	movlw	0
  3442  0006C8  6E14               	movwf	(___fladd@b+2)^0,c
  3443  0006CA  0E00               	movlw	0
  3444  0006CC  6E15               	movwf	(___fladd@b+3)^0,c
  3445  0006CE  C01F  F020         	movff	___fladd@aexp,___fladd@bexp
  3446  0006D2  EF91  F003         	goto	l850
  3447  0006D6                     l852:
  3448  0006D6  A021               	btfss	___fladd@grs^0,0,c
  3449  0006D8  EF70  F003         	goto	u2161
  3450  0006DC  EF72  F003         	goto	u2160
  3451  0006E0                     u2161:
  3452  0006E0  EF78  F003         	goto	l2391
  3453  0006E4                     u2160:
  3454  0006E4  90D8               	bcf	status,0,c
  3455  0006E6  3021               	rrcf	___fladd@grs^0,w,c
  3456  0006E8  0901               	iorlw	1
  3457  0006EA  6E21               	movwf	___fladd@grs^0,c
  3458  0006EC  EF7A  F003         	goto	l2393
  3459  0006F0                     l2391:
  3460  0006F0  90D8               	bcf	status,0,c
  3461  0006F2  3221               	rrcf	___fladd@grs^0,f,c
  3462  0006F4                     l2393:
  3463  0006F4  A012               	btfss	___fladd@b^0,0,c
  3464  0006F6  EF7F  F003         	goto	u2171
  3465  0006FA  EF81  F003         	goto	u2170
  3466  0006FE                     u2171:
  3467  0006FE  EF82  F003         	goto	l2397
  3468  000702                     u2170:
  3469  000702  8E21               	bsf	___fladd@grs^0,7,c
  3470  000704                     l2397:
  3471  000704  3415               	rlcf	(___fladd@b+3)^0,w,c
  3472  000706  3215               	rrcf	(___fladd@b+3)^0,f,c
  3473  000708  3214               	rrcf	(___fladd@b+2)^0,f,c
  3474  00070A  3213               	rrcf	(___fladd@b+1)^0,f,c
  3475  00070C  3212               	rrcf	___fladd@b^0,f,c
  3476  00070E  2A20               	incf	___fladd@bexp^0,f,c
  3477  000710                     l851:
  3478  000710  501F               	movf	___fladd@aexp^0,w,c
  3479  000712  5C20               	subwf	___fladd@bexp^0,w,c
  3480  000714  A0D8               	btfss	status,0,c
  3481  000716  EF8F  F003         	goto	u2181
  3482  00071A  EF91  F003         	goto	u2180
  3483  00071E                     u2181:
  3484  00071E  EF6B  F003         	goto	l852
  3485  000722                     u2180:
  3486  000722                     l850:
  3487  000722  BC1E               	btfsc	___fladd@signs^0,6,c
  3488  000724  EF96  F003         	goto	u2191
  3489  000728  EF98  F003         	goto	u2190
  3490  00072C                     u2191:
  3491  00072C  EFD8  F003         	goto	l2425
  3492  000730                     u2190:
  3493  000730  5020               	movf	___fladd@bexp^0,w,c
  3494  000732  A4D8               	btfss	status,2,c
  3495  000734  EF9E  F003         	goto	u2201
  3496  000738  EFA0  F003         	goto	u2200
  3497  00073C                     u2201:
  3498  00073C  EFAA  F003         	goto	l2407
  3499  000740                     u2200:
  3500  000740  0E00               	movlw	0
  3501  000742  6E12               	movwf	?___fladd^0,c
  3502  000744  0E00               	movlw	0
  3503  000746  6E13               	movwf	(?___fladd+1)^0,c
  3504  000748  0E00               	movlw	0
  3505  00074A  6E14               	movwf	(?___fladd+2)^0,c
  3506  00074C  0E00               	movlw	0
  3507  00074E  6E15               	movwf	(?___fladd+3)^0,c
  3508  000750  EFF9  F004         	goto	l859
  3509  000754                     l2407:
  3510  000754  5016               	movf	___fladd@a^0,w,c
  3511  000756  2612               	addwf	___fladd@b^0,f,c
  3512  000758  5017               	movf	(___fladd@a+1)^0,w,c
  3513  00075A  2213               	addwfc	(___fladd@b+1)^0,f,c
  3514  00075C  5018               	movf	(___fladd@a+2)^0,w,c
  3515  00075E  2214               	addwfc	(___fladd@b+2)^0,f,c
  3516  000760  5019               	movf	(___fladd@a+3)^0,w,c
  3517  000762  2215               	addwfc	(___fladd@b+3)^0,f,c
  3518  000764  A015               	btfss	(___fladd@b+3)^0,0,c
  3519  000766  EFB7  F003         	goto	u2211
  3520  00076A  EFB9  F003         	goto	u2210
  3521  00076E                     u2211:
  3522  00076E  EF65  F004         	goto	l2461
  3523  000772                     u2210:
  3524  000772  A021               	btfss	___fladd@grs^0,0,c
  3525  000774  EFBE  F003         	goto	u2221
  3526  000778  EFC0  F003         	goto	u2220
  3527  00077C                     u2221:
  3528  00077C  EFC6  F003         	goto	l2415
  3529  000780                     u2220:
  3530  000780  90D8               	bcf	status,0,c
  3531  000782  3021               	rrcf	___fladd@grs^0,w,c
  3532  000784  0901               	iorlw	1
  3533  000786  6E21               	movwf	___fladd@grs^0,c
  3534  000788  EFC8  F003         	goto	l2417
  3535  00078C                     l2415:
  3536  00078C  90D8               	bcf	status,0,c
  3537  00078E  3221               	rrcf	___fladd@grs^0,f,c
  3538  000790                     l2417:
  3539  000790  A012               	btfss	___fladd@b^0,0,c
  3540  000792  EFCD  F003         	goto	u2231
  3541  000796  EFCF  F003         	goto	u2230
  3542  00079A                     u2231:
  3543  00079A  EFD0  F003         	goto	l2421
  3544  00079E                     u2230:
  3545  00079E  8E21               	bsf	___fladd@grs^0,7,c
  3546  0007A0                     l2421:
  3547  0007A0  3415               	rlcf	(___fladd@b+3)^0,w,c
  3548  0007A2  3215               	rrcf	(___fladd@b+3)^0,f,c
  3549  0007A4  3214               	rrcf	(___fladd@b+2)^0,f,c
  3550  0007A6  3213               	rrcf	(___fladd@b+1)^0,f,c
  3551  0007A8  3212               	rrcf	___fladd@b^0,f,c
  3552  0007AA  2A20               	incf	___fladd@bexp^0,f,c
  3553  0007AC  EF65  F004         	goto	l2461
  3554  0007B0                     l2425:
  3555  0007B0  5016               	movf	___fladd@a^0,w,c
  3556  0007B2  5C12               	subwf	___fladd@b^0,w,c
  3557  0007B4  5017               	movf	(___fladd@a+1)^0,w,c
  3558  0007B6  5813               	subwfb	(___fladd@b+1)^0,w,c
  3559  0007B8  5018               	movf	(___fladd@a+2)^0,w,c
  3560  0007BA  5814               	subwfb	(___fladd@b+2)^0,w,c
  3561  0007BC  5015               	movf	(___fladd@b+3)^0,w,c
  3562  0007BE  0A80               	xorlw	128
  3563  0007C0  6E1A               	movwf	??___fladd^0,c
  3564  0007C2  5019               	movf	(___fladd@a+3)^0,w,c
  3565  0007C4  0A80               	xorlw	128
  3566  0007C6  581A               	subwfb	??___fladd^0,w,c
  3567  0007C8  B0D8               	btfsc	status,0,c
  3568  0007CA  EFE9  F003         	goto	u2241
  3569  0007CE  EFEB  F003         	goto	u2240
  3570  0007D2                     u2241:
  3571  0007D2  EF16  F004         	goto	l2435
  3572  0007D6                     u2240:
  3573  0007D6  5012               	movf	___fladd@b^0,w,c
  3574  0007D8  5C16               	subwf	___fladd@a^0,w,c
  3575  0007DA  6E1A               	movwf	??___fladd^0,c
  3576  0007DC  5013               	movf	(___fladd@b+1)^0,w,c
  3577  0007DE  5817               	subwfb	(___fladd@a+1)^0,w,c
  3578  0007E0  6E1B               	movwf	(??___fladd+1)^0,c
  3579  0007E2  5014               	movf	(___fladd@b+2)^0,w,c
  3580  0007E4  5818               	subwfb	(___fladd@a+2)^0,w,c
  3581  0007E6  6E1C               	movwf	(??___fladd+2)^0,c
  3582  0007E8  5015               	movf	(___fladd@b+3)^0,w,c
  3583  0007EA  5819               	subwfb	(___fladd@a+3)^0,w,c
  3584  0007EC  6E1D               	movwf	(??___fladd+3)^0,c
  3585  0007EE  0EFF               	movlw	255
  3586  0007F0  241A               	addwf	??___fladd^0,w,c
  3587  0007F2  6E12               	movwf	___fladd@b^0,c
  3588  0007F4  0EFF               	movlw	255
  3589  0007F6  201B               	addwfc	(??___fladd+1)^0,w,c
  3590  0007F8  6E13               	movwf	(___fladd@b+1)^0,c
  3591  0007FA  0EFF               	movlw	255
  3592  0007FC  201C               	addwfc	(??___fladd+2)^0,w,c
  3593  0007FE  6E14               	movwf	(___fladd@b+2)^0,c
  3594  000800  0EFF               	movlw	255
  3595  000802  201D               	addwfc	(??___fladd+3)^0,w,c
  3596  000804  6E15               	movwf	(___fladd@b+3)^0,c
  3597  000806  0E80               	movlw	128
  3598  000808  1A1E               	xorwf	___fladd@signs^0,f,c
  3599  00080A  6C21               	negf	___fladd@grs^0,c
  3600  00080C  5021               	movf	___fladd@grs^0,w,c
  3601  00080E  A4D8               	btfss	status,2,c
  3602  000810  EF0C  F004         	goto	u2251
  3603  000814  EF0E  F004         	goto	u2250
  3604  000818                     u2251:
  3605  000818  EF1E  F004         	goto	l867
  3606  00081C                     u2250:
  3607  00081C  0E01               	movlw	1
  3608  00081E  2612               	addwf	___fladd@b^0,f,c
  3609  000820  0E00               	movlw	0
  3610  000822  2213               	addwfc	(___fladd@b+1)^0,f,c
  3611  000824  2214               	addwfc	(___fladd@b+2)^0,f,c
  3612  000826  2215               	addwfc	(___fladd@b+3)^0,f,c
  3613  000828  EF1E  F004         	goto	l867
  3614  00082C                     l2435:
  3615  00082C  5016               	movf	___fladd@a^0,w,c
  3616  00082E  5E12               	subwf	___fladd@b^0,f,c
  3617  000830  5017               	movf	(___fladd@a+1)^0,w,c
  3618  000832  5A13               	subwfb	(___fladd@b+1)^0,f,c
  3619  000834  5018               	movf	(___fladd@a+2)^0,w,c
  3620  000836  5A14               	subwfb	(___fladd@b+2)^0,f,c
  3621  000838  5019               	movf	(___fladd@a+3)^0,w,c
  3622  00083A  5A15               	subwfb	(___fladd@b+3)^0,f,c
  3623  00083C                     l867:
  3624  00083C  5012               	movf	___fladd@b^0,w,c
  3625  00083E  1013               	iorwf	(___fladd@b+1)^0,w,c
  3626  000840  1014               	iorwf	(___fladd@b+2)^0,w,c
  3627  000842  1015               	iorwf	(___fladd@b+3)^0,w,c
  3628  000844  A4D8               	btfss	status,2,c
  3629  000846  EF27  F004         	goto	u2261
  3630  00084A  EF29  F004         	goto	u2260
  3631  00084E                     u2261:
  3632  00084E  EF5E  F004         	goto	l2459
  3633  000852                     u2260:
  3634  000852  5021               	movf	___fladd@grs^0,w,c
  3635  000854  A4D8               	btfss	status,2,c
  3636  000856  EF2F  F004         	goto	u2271
  3637  00085A  EF31  F004         	goto	u2270
  3638  00085E                     u2271:
  3639  00085E  EF5E  F004         	goto	l2459
  3640  000862                     u2270:
  3641  000862  0E00               	movlw	0
  3642  000864  6E12               	movwf	?___fladd^0,c
  3643  000866  0E00               	movlw	0
  3644  000868  6E13               	movwf	(?___fladd+1)^0,c
  3645  00086A  0E00               	movlw	0
  3646  00086C  6E14               	movwf	(?___fladd+2)^0,c
  3647  00086E  0E00               	movlw	0
  3648  000870  6E15               	movwf	(?___fladd+3)^0,c
  3649  000872  EFF9  F004         	goto	l859
  3650  000876                     l2443:
  3651  000876  90D8               	bcf	status,0,c
  3652  000878  3612               	rlcf	___fladd@b^0,f,c
  3653  00087A  3613               	rlcf	(___fladd@b+1)^0,f,c
  3654  00087C  3614               	rlcf	(___fladd@b+2)^0,f,c
  3655  00087E  3615               	rlcf	(___fladd@b+3)^0,f,c
  3656  000880  AE21               	btfss	___fladd@grs^0,7,c
  3657  000882  EF45  F004         	goto	u2281
  3658  000886  EF47  F004         	goto	u2280
  3659  00088A                     u2281:
  3660  00088A  EF48  F004         	goto	l2449
  3661  00088E                     u2280:
  3662  00088E  8012               	bsf	___fladd@b^0,0,c
  3663  000890                     l2449:
  3664  000890  A021               	btfss	___fladd@grs^0,0,c
  3665  000892  EF4D  F004         	goto	u2291
  3666  000896  EF4F  F004         	goto	u2290
  3667  00089A                     u2291:
  3668  00089A  EF53  F004         	goto	l2453
  3669  00089E                     u2290:
  3670  00089E  80D8               	bsf	status,0,c
  3671  0008A0  3621               	rlcf	___fladd@grs^0,f,c
  3672  0008A2  EF55  F004         	goto	l2455
  3673  0008A6                     l2453:
  3674  0008A6  90D8               	bcf	status,0,c
  3675  0008A8  3621               	rlcf	___fladd@grs^0,f,c
  3676  0008AA                     l2455:
  3677  0008AA  5020               	movf	___fladd@bexp^0,w,c
  3678  0008AC  B4D8               	btfsc	status,2,c
  3679  0008AE  EF5B  F004         	goto	u2301
  3680  0008B2  EF5D  F004         	goto	u2300
  3681  0008B6                     u2301:
  3682  0008B6  EF5E  F004         	goto	l2459
  3683  0008BA                     u2300:
  3684  0008BA  0620               	decf	___fladd@bexp^0,f,c
  3685  0008BC                     l2459:
  3686  0008BC  AE14               	btfss	(___fladd@b+2)^0,7,c
  3687  0008BE  EF63  F004         	goto	u2311
  3688  0008C2  EF65  F004         	goto	u2310
  3689  0008C6                     u2311:
  3690  0008C6  EF3B  F004         	goto	l2443
  3691  0008CA                     u2310:
  3692  0008CA                     l2461:
  3693  0008CA  0E00               	movlw	0
  3694  0008CC  6E1F               	movwf	___fladd@aexp^0,c
  3695  0008CE  AE21               	btfss	___fladd@grs^0,7,c
  3696  0008D0  EF6C  F004         	goto	u2321
  3697  0008D4  EF6E  F004         	goto	u2320
  3698  0008D8                     u2321:
  3699  0008D8  EF86  F004         	goto	l876
  3700  0008DC                     u2320:
  3701  0008DC  C021  F01A         	movff	___fladd@grs,??___fladd
  3702  0008E0  0E7F               	movlw	127
  3703  0008E2  161A               	andwf	??___fladd^0,f,c
  3704  0008E4  B4D8               	btfsc	status,2,c
  3705  0008E6  EF77  F004         	goto	u2331
  3706  0008EA  EF79  F004         	goto	u2330
  3707  0008EE                     u2331:
  3708  0008EE  EF7D  F004         	goto	l877
  3709  0008F2                     u2330:
  3710  0008F2                     l2467:
  3711  0008F2  0E01               	movlw	1
  3712  0008F4  6E1F               	movwf	___fladd@aexp^0,c
  3713  0008F6  EF86  F004         	goto	l876
  3714  0008FA                     l877:
  3715  0008FA  A012               	btfss	___fladd@b^0,0,c
  3716  0008FC  EF82  F004         	goto	u2341
  3717  000900  EF84  F004         	goto	u2340
  3718  000904                     u2341:
  3719  000904  EF86  F004         	goto	l876
  3720  000908                     u2340:
  3721  000908  EF79  F004         	goto	l2467
  3722  00090C                     l876:
  3723  00090C  501F               	movf	___fladd@aexp^0,w,c
  3724  00090E  B4D8               	btfsc	status,2,c
  3725  000910  EF8C  F004         	goto	u2351
  3726  000914  EF8E  F004         	goto	u2350
  3727  000918                     u2351:
  3728  000918  EFB9  F004         	goto	l2479
  3729  00091C                     u2350:
  3730  00091C  0E01               	movlw	1
  3731  00091E  2612               	addwf	___fladd@b^0,f,c
  3732  000920  0E00               	movlw	0
  3733  000922  2213               	addwfc	(___fladd@b+1)^0,f,c
  3734  000924  2214               	addwfc	(___fladd@b+2)^0,f,c
  3735  000926  2215               	addwfc	(___fladd@b+3)^0,f,c
  3736  000928  A015               	btfss	(___fladd@b+3)^0,0,c
  3737  00092A  EF99  F004         	goto	u2361
  3738  00092E  EF9B  F004         	goto	u2360
  3739  000932                     u2361:
  3740  000932  EFB9  F004         	goto	l2479
  3741  000936                     u2360:
  3742  000936  C012  F01A         	movff	___fladd@b,??___fladd
  3743  00093A  C013  F01B         	movff	___fladd@b+1,??___fladd+1
  3744  00093E  C014  F01C         	movff	___fladd@b+2,??___fladd+2
  3745  000942  C015  F01D         	movff	___fladd@b+3,??___fladd+3
  3746  000946  341D               	rlcf	(??___fladd+3)^0,w,c
  3747  000948  321D               	rrcf	(??___fladd+3)^0,f,c
  3748  00094A  321C               	rrcf	(??___fladd+2)^0,f,c
  3749  00094C  321B               	rrcf	(??___fladd+1)^0,f,c
  3750  00094E  321A               	rrcf	??___fladd^0,f,c
  3751  000950  C01A  F012         	movff	??___fladd,___fladd@b
  3752  000954  C01B  F013         	movff	??___fladd+1,___fladd@b+1
  3753  000958  C01C  F014         	movff	??___fladd+2,___fladd@b+2
  3754  00095C  C01D  F015         	movff	??___fladd+3,___fladd@b+3
  3755  000960  2820               	incf	___fladd@bexp^0,w,c
  3756  000962  B4D8               	btfsc	status,2,c
  3757  000964  EFB6  F004         	goto	u2371
  3758  000968  EFB8  F004         	goto	u2370
  3759  00096C                     u2371:
  3760  00096C  EFB9  F004         	goto	l2479
  3761  000970                     u2370:
  3762  000970  2A20               	incf	___fladd@bexp^0,f,c
  3763  000972                     l2479:
  3764  000972  2820               	incf	___fladd@bexp^0,w,c
  3765  000974  B4D8               	btfsc	status,2,c
  3766  000976  EFBF  F004         	goto	u2381
  3767  00097A  EFC1  F004         	goto	u2380
  3768  00097E                     u2381:
  3769  00097E  EFC9  F004         	goto	l2483
  3770  000982                     u2380:
  3771  000982  5020               	movf	___fladd@bexp^0,w,c
  3772  000984  A4D8               	btfss	status,2,c
  3773  000986  EFC7  F004         	goto	u2391
  3774  00098A  EFC9  F004         	goto	u2390
  3775  00098E                     u2391:
  3776  00098E  EFDB  F004         	goto	l2487
  3777  000992                     u2390:
  3778  000992                     l2483:
  3779  000992  0E00               	movlw	0
  3780  000994  6E12               	movwf	___fladd@b^0,c
  3781  000996  0E00               	movlw	0
  3782  000998  6E13               	movwf	(___fladd@b+1)^0,c
  3783  00099A  0E00               	movlw	0
  3784  00099C  6E14               	movwf	(___fladd@b+2)^0,c
  3785  00099E  0E00               	movlw	0
  3786  0009A0  6E15               	movwf	(___fladd@b+3)^0,c
  3787  0009A2  5020               	movf	___fladd@bexp^0,w,c
  3788  0009A4  A4D8               	btfss	status,2,c
  3789  0009A6  EFD7  F004         	goto	u2401
  3790  0009AA  EFD9  F004         	goto	u2400
  3791  0009AE                     u2401:
  3792  0009AE  EFDB  F004         	goto	l2487
  3793  0009B2                     u2400:
  3794  0009B2  0E00               	movlw	0
  3795  0009B4  6E1E               	movwf	___fladd@signs^0,c
  3796  0009B6                     l2487:
  3797  0009B6  A020               	btfss	___fladd@bexp^0,0,c
  3798  0009B8  EFE0  F004         	goto	u2411
  3799  0009BC  EFE2  F004         	goto	u2410
  3800  0009C0                     u2411:
  3801  0009C0  EFE5  F004         	goto	l2491
  3802  0009C4                     u2410:
  3803  0009C4  8E14               	bsf	(___fladd@b+2)^0,7,c
  3804  0009C6  EFE6  F004         	goto	l2493
  3805  0009CA                     l2491:
  3806  0009CA  9E14               	bcf	(___fladd@b+2)^0,7,c
  3807  0009CC                     l2493:
  3808  0009CC  90D8               	bcf	status,0,c
  3809  0009CE  3020               	rrcf	___fladd@bexp^0,w,c
  3810  0009D0  6E15               	movwf	(___fladd@b+3)^0,c
  3811  0009D2  AE1E               	btfss	___fladd@signs^0,7,c
  3812  0009D4  EFEE  F004         	goto	u2421
  3813  0009D8  EFF0  F004         	goto	u2420
  3814  0009DC                     u2421:
  3815  0009DC  EFF1  F004         	goto	l2499
  3816  0009E0                     u2420:
  3817  0009E0  8E15               	bsf	(___fladd@b+3)^0,7,c
  3818  0009E2                     l2499:
  3819  0009E2  C012  F012         	movff	___fladd@b,?___fladd
  3820  0009E6  C013  F013         	movff	___fladd@b+1,?___fladd+1
  3821  0009EA  C014  F014         	movff	___fladd@b+2,?___fladd+2
  3822  0009EE  C015  F015         	movff	___fladd@b+3,?___fladd+3
  3823  0009F2                     l859:
  3824  0009F2  0012               	return		;funcret
  3825  0009F4                     __end_of___fladd:
  3826                           	opt callstack 0
  3827                           
  3828 ;; *************** function ___flmul *****************
  3829 ;; Defined at:
  3830 ;;		line 8 in file "C:\Program Files (x86)\Microchip\xc8\v2.10\pic\sources\c99\common\sprcmul.c"
  3831 ;; Parameters:    Size  Location     Type
  3832 ;;  b               4   17[COMRAM] unsigned char 
  3833 ;;  a               4   21[COMRAM] unsigned char 
  3834 ;; Auto vars:     Size  Location     Type
  3835 ;;  prod            4   36[COMRAM] struct .
  3836 ;;  grs             4   30[COMRAM] unsigned long 
  3837 ;;  temp            2   40[COMRAM] struct .
  3838 ;;  bexp            1   35[COMRAM] unsigned char 
  3839 ;;  aexp            1   34[COMRAM] unsigned char 
  3840 ;;  sign            1   29[COMRAM] unsigned char 
  3841 ;; Return value:  Size  Location     Type
  3842 ;;                  4   17[COMRAM] unsigned char 
  3843 ;; Registers used:
  3844 ;;		wreg, status,2, status,0, prodl, prodh
  3845 ;; Tracked objects:
  3846 ;;		On entry : 0/0
  3847 ;;		On exit  : 0/0
  3848 ;;		Unchanged: 0/0
  3849 ;; Data sizes:     COMRAM   BANK0   BANK1   BANK2   BANK3   BANK4   BANK5
  3850 ;;      Params:         8       0       0       0       0       0       0
  3851 ;;      Locals:        13       0       0       0       0       0       0
  3852 ;;      Temps:          4       0       0       0       0       0       0
  3853 ;;      Totals:        25       0       0       0       0       0       0
  3854 ;;Total ram usage:       25 bytes
  3855 ;; Hardware stack levels used:    1
  3856 ;; Hardware stack levels required when called:    3
  3857 ;; This function calls:
  3858 ;;		Nothing
  3859 ;; This function is called by:
  3860 ;;		_I2C_timer_prescaler
  3861 ;; This function uses a non-reentrant model
  3862 ;;
  3863                           
  3864                           	psect	text14
  3865  0009F4                     __ptext14:
  3866                           	opt callstack 0
  3867  0009F4                     ___flmul:
  3868                           	opt callstack 25
  3869  0009F4  5015               	movf	(___flmul@b+3)^0,w,c
  3870  0009F6  0B80               	andlw	128
  3871  0009F8  6E1E               	movwf	___flmul@sign^0,c
  3872  0009FA  5015               	movf	(___flmul@b+3)^0,w,c
  3873  0009FC  2415               	addwf	(___flmul@b+3)^0,w,c
  3874  0009FE  6E24               	movwf	___flmul@bexp^0,c
  3875  000A00  AE14               	btfss	(___flmul@b+2)^0,7,c
  3876  000A02  EF05  F005         	goto	u2661
  3877  000A06  EF07  F005         	goto	u2660
  3878  000A0A                     u2661:
  3879  000A0A  EF08  F005         	goto	l2647
  3880  000A0E                     u2660:
  3881  000A0E  8024               	bsf	___flmul@bexp^0,0,c
  3882  000A10                     l2647:
  3883  000A10  5024               	movf	___flmul@bexp^0,w,c
  3884  000A12  B4D8               	btfsc	status,2,c
  3885  000A14  EF0E  F005         	goto	u2671
  3886  000A18  EF10  F005         	goto	u2670
  3887  000A1C                     u2671:
  3888  000A1C  EF23  F005         	goto	l2655
  3889  000A20                     u2670:
  3890  000A20  2824               	incf	___flmul@bexp^0,w,c
  3891  000A22  A4D8               	btfss	status,2,c
  3892  000A24  EF16  F005         	goto	u2681
  3893  000A28  EF18  F005         	goto	u2680
  3894  000A2C                     u2681:
  3895  000A2C  EF20  F005         	goto	l2653
  3896  000A30                     u2680:
  3897  000A30  0E00               	movlw	0
  3898  000A32  6E12               	movwf	___flmul@b^0,c
  3899  000A34  0E00               	movlw	0
  3900  000A36  6E13               	movwf	(___flmul@b+1)^0,c
  3901  000A38  0E00               	movlw	0
  3902  000A3A  6E14               	movwf	(___flmul@b+2)^0,c
  3903  000A3C  0E00               	movlw	0
  3904  000A3E  6E15               	movwf	(___flmul@b+3)^0,c
  3905  000A40                     l2653:
  3906  000A40  8E14               	bsf	(___flmul@b+2)^0,7,c
  3907  000A42  EF2B  F005         	goto	l2657
  3908  000A46                     l2655:
  3909  000A46  0E00               	movlw	0
  3910  000A48  6E12               	movwf	___flmul@b^0,c
  3911  000A4A  0E00               	movlw	0
  3912  000A4C  6E13               	movwf	(___flmul@b+1)^0,c
  3913  000A4E  0E00               	movlw	0
  3914  000A50  6E14               	movwf	(___flmul@b+2)^0,c
  3915  000A52  0E00               	movlw	0
  3916  000A54  6E15               	movwf	(___flmul@b+3)^0,c
  3917  000A56                     l2657:
  3918  000A56  5019               	movf	(___flmul@a+3)^0,w,c
  3919  000A58  0B80               	andlw	128
  3920  000A5A  1A1E               	xorwf	___flmul@sign^0,f,c
  3921  000A5C  5019               	movf	(___flmul@a+3)^0,w,c
  3922  000A5E  2419               	addwf	(___flmul@a+3)^0,w,c
  3923  000A60  6E23               	movwf	___flmul@aexp^0,c
  3924  000A62  AE18               	btfss	(___flmul@a+2)^0,7,c
  3925  000A64  EF36  F005         	goto	u2691
  3926  000A68  EF38  F005         	goto	u2690
  3927  000A6C                     u2691:
  3928  000A6C  EF39  F005         	goto	l2665
  3929  000A70                     u2690:
  3930  000A70  8023               	bsf	___flmul@aexp^0,0,c
  3931  000A72                     l2665:
  3932  000A72  5023               	movf	___flmul@aexp^0,w,c
  3933  000A74  B4D8               	btfsc	status,2,c
  3934  000A76  EF3F  F005         	goto	u2701
  3935  000A7A  EF41  F005         	goto	u2700
  3936  000A7E                     u2701:
  3937  000A7E  EF54  F005         	goto	l2673
  3938  000A82                     u2700:
  3939  000A82  2823               	incf	___flmul@aexp^0,w,c
  3940  000A84  A4D8               	btfss	status,2,c
  3941  000A86  EF47  F005         	goto	u2711
  3942  000A8A  EF49  F005         	goto	u2710
  3943  000A8E                     u2711:
  3944  000A8E  EF51  F005         	goto	l2671
  3945  000A92                     u2710:
  3946  000A92  0E00               	movlw	0
  3947  000A94  6E16               	movwf	___flmul@a^0,c
  3948  000A96  0E00               	movlw	0
  3949  000A98  6E17               	movwf	(___flmul@a+1)^0,c
  3950  000A9A  0E00               	movlw	0
  3951  000A9C  6E18               	movwf	(___flmul@a+2)^0,c
  3952  000A9E  0E00               	movlw	0
  3953  000AA0  6E19               	movwf	(___flmul@a+3)^0,c
  3954  000AA2                     l2671:
  3955  000AA2  8E18               	bsf	(___flmul@a+2)^0,7,c
  3956  000AA4  EF5C  F005         	goto	l936
  3957  000AA8                     l2673:
  3958  000AA8  0E00               	movlw	0
  3959  000AAA  6E16               	movwf	___flmul@a^0,c
  3960  000AAC  0E00               	movlw	0
  3961  000AAE  6E17               	movwf	(___flmul@a+1)^0,c
  3962  000AB0  0E00               	movlw	0
  3963  000AB2  6E18               	movwf	(___flmul@a+2)^0,c
  3964  000AB4  0E00               	movlw	0
  3965  000AB6  6E19               	movwf	(___flmul@a+3)^0,c
  3966  000AB8                     l936:
  3967  000AB8  5023               	movf	___flmul@aexp^0,w,c
  3968  000ABA  B4D8               	btfsc	status,2,c
  3969  000ABC  EF62  F005         	goto	u2721
  3970  000AC0  EF64  F005         	goto	u2720
  3971  000AC4                     u2721:
  3972  000AC4  EF6C  F005         	goto	l2677
  3973  000AC8                     u2720:
  3974  000AC8  5024               	movf	___flmul@bexp^0,w,c
  3975  000ACA  A4D8               	btfss	status,2,c
  3976  000ACC  EF6A  F005         	goto	u2731
  3977  000AD0  EF6C  F005         	goto	u2730
  3978  000AD4                     u2731:
  3979  000AD4  EF76  F005         	goto	l2681
  3980  000AD8                     u2730:
  3981  000AD8                     l2677:
  3982  000AD8  0E00               	movlw	0
  3983  000ADA  6E12               	movwf	?___flmul^0,c
  3984  000ADC  0E00               	movlw	0
  3985  000ADE  6E13               	movwf	(?___flmul+1)^0,c
  3986  000AE0  0E00               	movlw	0
  3987  000AE2  6E14               	movwf	(?___flmul+2)^0,c
  3988  000AE4  0E00               	movlw	0
  3989  000AE6  6E15               	movwf	(?___flmul+3)^0,c
  3990  000AE8  EF0E  F007         	goto	l940
  3991  000AEC                     l2681:
  3992  000AEC  5018               	movf	(___flmul@a+2)^0,w,c
  3993  000AEE  0212               	mulwf	___flmul@b^0,c
  3994  000AF0  CFF3 F029          	movff	prodl,___flmul@temp
  3995  000AF4  CFF4 F02A          	movff	prodh,___flmul@temp+1
  3996  000AF8  5029               	movf	___flmul@temp^0,w,c
  3997  000AFA  6E1F               	movwf	___flmul@grs^0,c
  3998  000AFC  6A20               	clrf	(___flmul@grs+1)^0,c
  3999  000AFE  6A21               	clrf	(___flmul@grs+2)^0,c
  4000  000B00  6A22               	clrf	(___flmul@grs+3)^0,c
  4001  000B02  502A               	movf	(___flmul@temp+1)^0,w,c
  4002  000B04  6E25               	movwf	___flmul@prod^0,c
  4003  000B06  6A26               	clrf	(___flmul@prod+1)^0,c
  4004  000B08  6A27               	clrf	(___flmul@prod+2)^0,c
  4005  000B0A  6A28               	clrf	(___flmul@prod+3)^0,c
  4006  000B0C  5017               	movf	(___flmul@a+1)^0,w,c
  4007  000B0E  0213               	mulwf	(___flmul@b+1)^0,c
  4008  000B10  CFF3 F029          	movff	prodl,___flmul@temp
  4009  000B14  CFF4 F02A          	movff	prodh,___flmul@temp+1
  4010  000B18  5029               	movf	___flmul@temp^0,w,c
  4011  000B1A  261F               	addwf	___flmul@grs^0,f,c
  4012  000B1C  0E00               	movlw	0
  4013  000B1E  2220               	addwfc	(___flmul@grs+1)^0,f,c
  4014  000B20  2221               	addwfc	(___flmul@grs+2)^0,f,c
  4015  000B22  2222               	addwfc	(___flmul@grs+3)^0,f,c
  4016  000B24  502A               	movf	(___flmul@temp+1)^0,w,c
  4017  000B26  2625               	addwf	___flmul@prod^0,f,c
  4018  000B28  0E00               	movlw	0
  4019  000B2A  2226               	addwfc	(___flmul@prod+1)^0,f,c
  4020  000B2C  2227               	addwfc	(___flmul@prod+2)^0,f,c
  4021  000B2E  2228               	addwfc	(___flmul@prod+3)^0,f,c
  4022  000B30  5016               	movf	___flmul@a^0,w,c
  4023  000B32  0214               	mulwf	(___flmul@b+2)^0,c
  4024  000B34  CFF3 F029          	movff	prodl,___flmul@temp
  4025  000B38  CFF4 F02A          	movff	prodh,___flmul@temp+1
  4026  000B3C  5029               	movf	___flmul@temp^0,w,c
  4027  000B3E  261F               	addwf	___flmul@grs^0,f,c
  4028  000B40  0E00               	movlw	0
  4029  000B42  2220               	addwfc	(___flmul@grs+1)^0,f,c
  4030  000B44  2221               	addwfc	(___flmul@grs+2)^0,f,c
  4031  000B46  2222               	addwfc	(___flmul@grs+3)^0,f,c
  4032  000B48  502A               	movf	(___flmul@temp+1)^0,w,c
  4033  000B4A  2625               	addwf	___flmul@prod^0,f,c
  4034  000B4C  0E00               	movlw	0
  4035  000B4E  2226               	addwfc	(___flmul@prod+1)^0,f,c
  4036  000B50  2227               	addwfc	(___flmul@prod+2)^0,f,c
  4037  000B52  2228               	addwfc	(___flmul@prod+3)^0,f,c
  4038  000B54  C021  F022         	movff	___flmul@grs+2,___flmul@grs+3
  4039  000B58  C020  F021         	movff	___flmul@grs+1,___flmul@grs+2
  4040  000B5C  C01F  F020         	movff	___flmul@grs,___flmul@grs+1
  4041  000B60  6A1F               	clrf	___flmul@grs^0,c
  4042  000B62  5016               	movf	___flmul@a^0,w,c
  4043  000B64  0213               	mulwf	(___flmul@b+1)^0,c
  4044  000B66  CFF3 F029          	movff	prodl,___flmul@temp
  4045  000B6A  CFF4 F02A          	movff	prodh,___flmul@temp+1
  4046  000B6E  5029               	movf	___flmul@temp^0,w,c
  4047  000B70  261F               	addwf	___flmul@grs^0,f,c
  4048  000B72  502A               	movf	(___flmul@temp+1)^0,w,c
  4049  000B74  2220               	addwfc	(___flmul@grs+1)^0,f,c
  4050  000B76  0E00               	movlw	0
  4051  000B78  2221               	addwfc	(___flmul@grs+2)^0,f,c
  4052  000B7A  0E00               	movlw	0
  4053  000B7C  2222               	addwfc	(___flmul@grs+3)^0,f,c
  4054  000B7E  5017               	movf	(___flmul@a+1)^0,w,c
  4055  000B80  0212               	mulwf	___flmul@b^0,c
  4056  000B82  CFF3 F029          	movff	prodl,___flmul@temp
  4057  000B86  CFF4 F02A          	movff	prodh,___flmul@temp+1
  4058  000B8A  5029               	movf	___flmul@temp^0,w,c
  4059  000B8C  261F               	addwf	___flmul@grs^0,f,c
  4060  000B8E  502A               	movf	(___flmul@temp+1)^0,w,c
  4061  000B90  2220               	addwfc	(___flmul@grs+1)^0,f,c
  4062  000B92  0E00               	movlw	0
  4063  000B94  2221               	addwfc	(___flmul@grs+2)^0,f,c
  4064  000B96  0E00               	movlw	0
  4065  000B98  2222               	addwfc	(___flmul@grs+3)^0,f,c
  4066  000B9A  C021  F022         	movff	___flmul@grs+2,___flmul@grs+3
  4067  000B9E  C020  F021         	movff	___flmul@grs+1,___flmul@grs+2
  4068  000BA2  C01F  F020         	movff	___flmul@grs,___flmul@grs+1
  4069  000BA6  6A1F               	clrf	___flmul@grs^0,c
  4070  000BA8  5016               	movf	___flmul@a^0,w,c
  4071  000BAA  0212               	mulwf	___flmul@b^0,c
  4072  000BAC  CFF3 F029          	movff	prodl,___flmul@temp
  4073  000BB0  CFF4 F02A          	movff	prodh,___flmul@temp+1
  4074  000BB4  5029               	movf	___flmul@temp^0,w,c
  4075  000BB6  261F               	addwf	___flmul@grs^0,f,c
  4076  000BB8  502A               	movf	(___flmul@temp+1)^0,w,c
  4077  000BBA  2220               	addwfc	(___flmul@grs+1)^0,f,c
  4078  000BBC  0E00               	movlw	0
  4079  000BBE  2221               	addwfc	(___flmul@grs+2)^0,f,c
  4080  000BC0  0E00               	movlw	0
  4081  000BC2  2222               	addwfc	(___flmul@grs+3)^0,f,c
  4082  000BC4  5018               	movf	(___flmul@a+2)^0,w,c
  4083  000BC6  0213               	mulwf	(___flmul@b+1)^0,c
  4084  000BC8  CFF3 F029          	movff	prodl,___flmul@temp
  4085  000BCC  CFF4 F02A          	movff	prodh,___flmul@temp+1
  4086  000BD0  5029               	movf	___flmul@temp^0,w,c
  4087  000BD2  2625               	addwf	___flmul@prod^0,f,c
  4088  000BD4  502A               	movf	(___flmul@temp+1)^0,w,c
  4089  000BD6  2226               	addwfc	(___flmul@prod+1)^0,f,c
  4090  000BD8  0E00               	movlw	0
  4091  000BDA  2227               	addwfc	(___flmul@prod+2)^0,f,c
  4092  000BDC  0E00               	movlw	0
  4093  000BDE  2228               	addwfc	(___flmul@prod+3)^0,f,c
  4094  000BE0  5017               	movf	(___flmul@a+1)^0,w,c
  4095  000BE2  0214               	mulwf	(___flmul@b+2)^0,c
  4096  000BE4  CFF3 F029          	movff	prodl,___flmul@temp
  4097  000BE8  CFF4 F02A          	movff	prodh,___flmul@temp+1
  4098  000BEC  5029               	movf	___flmul@temp^0,w,c
  4099  000BEE  2625               	addwf	___flmul@prod^0,f,c
  4100  000BF0  502A               	movf	(___flmul@temp+1)^0,w,c
  4101  000BF2  2226               	addwfc	(___flmul@prod+1)^0,f,c
  4102  000BF4  0E00               	movlw	0
  4103  000BF6  2227               	addwfc	(___flmul@prod+2)^0,f,c
  4104  000BF8  0E00               	movlw	0
  4105  000BFA  2228               	addwfc	(___flmul@prod+3)^0,f,c
  4106  000BFC  5018               	movf	(___flmul@a+2)^0,w,c
  4107  000BFE  0214               	mulwf	(___flmul@b+2)^0,c
  4108  000C00  CFF3 F029          	movff	prodl,___flmul@temp
  4109  000C04  CFF4 F02A          	movff	prodh,___flmul@temp+1
  4110  000C08  5029               	movf	___flmul@temp^0,w,c
  4111  000C0A  6E1A               	movwf	??___flmul^0,c
  4112  000C0C  502A               	movf	(___flmul@temp+1)^0,w,c
  4113  000C0E  6E1B               	movwf	(??___flmul+1)^0,c
  4114  000C10  6A1C               	clrf	(??___flmul+2)^0,c
  4115  000C12  6A1D               	clrf	(??___flmul+3)^0,c
  4116  000C14  C01C  F01D         	movff	??___flmul+2,??___flmul+3
  4117  000C18  C01B  F01C         	movff	??___flmul+1,??___flmul+2
  4118  000C1C  C01A  F01B         	movff	??___flmul,??___flmul+1
  4119  000C20  6A1A               	clrf	??___flmul^0,c
  4120  000C22  501A               	movf	??___flmul^0,w,c
  4121  000C24  2625               	addwf	___flmul@prod^0,f,c
  4122  000C26  501B               	movf	(??___flmul+1)^0,w,c
  4123  000C28  2226               	addwfc	(___flmul@prod+1)^0,f,c
  4124  000C2A  501C               	movf	(??___flmul+2)^0,w,c
  4125  000C2C  2227               	addwfc	(___flmul@prod+2)^0,f,c
  4126  000C2E  501D               	movf	(??___flmul+3)^0,w,c
  4127  000C30  2228               	addwfc	(___flmul@prod+3)^0,f,c
  4128  000C32  C01F  F01A         	movff	___flmul@grs,??___flmul
  4129  000C36  C020  F01B         	movff	___flmul@grs+1,??___flmul+1
  4130  000C3A  C021  F01C         	movff	___flmul@grs+2,??___flmul+2
  4131  000C3E  C022  F01D         	movff	___flmul@grs+3,??___flmul+3
  4132  000C42  0E19               	movlw	25
  4133  000C44  EF29  F006         	goto	u2740
  4134  000C48                     u2745:
  4135  000C48  90D8               	bcf	status,0,c
  4136  000C4A  321D               	rrcf	(??___flmul+3)^0,f,c
  4137  000C4C  321C               	rrcf	(??___flmul+2)^0,f,c
  4138  000C4E  321B               	rrcf	(??___flmul+1)^0,f,c
  4139  000C50  321A               	rrcf	??___flmul^0,f,c
  4140  000C52                     u2740:
  4141  000C52  2EE8               	decfsz	wreg,f,c
  4142  000C54  EF24  F006         	goto	u2745
  4143  000C58  501A               	movf	??___flmul^0,w,c
  4144  000C5A  2625               	addwf	___flmul@prod^0,f,c
  4145  000C5C  501B               	movf	(??___flmul+1)^0,w,c
  4146  000C5E  2226               	addwfc	(___flmul@prod+1)^0,f,c
  4147  000C60  501C               	movf	(??___flmul+2)^0,w,c
  4148  000C62  2227               	addwfc	(___flmul@prod+2)^0,f,c
  4149  000C64  501D               	movf	(??___flmul+3)^0,w,c
  4150  000C66  2228               	addwfc	(___flmul@prod+3)^0,f,c
  4151  000C68  C021  F022         	movff	___flmul@grs+2,___flmul@grs+3
  4152  000C6C  C020  F021         	movff	___flmul@grs+1,___flmul@grs+2
  4153  000C70  C01F  F020         	movff	___flmul@grs,___flmul@grs+1
  4154  000C74  6A1F               	clrf	___flmul@grs^0,c
  4155  000C76  5023               	movf	___flmul@aexp^0,w,c
  4156  000C78  C024  F01A         	movff	___flmul@bexp,??___flmul
  4157  000C7C  6A1B               	clrf	(??___flmul+1)^0,c
  4158  000C7E  261A               	addwf	??___flmul^0,f,c
  4159  000C80  0E00               	movlw	0
  4160  000C82  221B               	addwfc	(??___flmul+1)^0,f,c
  4161  000C84  0E82               	movlw	130
  4162  000C86  241A               	addwf	??___flmul^0,w,c
  4163  000C88  6E29               	movwf	___flmul@temp^0,c
  4164  000C8A  0EFF               	movlw	255
  4165  000C8C  201B               	addwfc	(??___flmul+1)^0,w,c
  4166  000C8E  6E2A               	movwf	(___flmul@temp+1)^0,c
  4167  000C90  EF5F  F006         	goto	l2729
  4168  000C94                     l2723:
  4169  000C94  90D8               	bcf	status,0,c
  4170  000C96  3625               	rlcf	___flmul@prod^0,f,c
  4171  000C98  3626               	rlcf	(___flmul@prod+1)^0,f,c
  4172  000C9A  3627               	rlcf	(___flmul@prod+2)^0,f,c
  4173  000C9C  3628               	rlcf	(___flmul@prod+3)^0,f,c
  4174  000C9E  AE22               	btfss	(___flmul@grs+3)^0,7,c
  4175  000CA0  EF54  F006         	goto	u2751
  4176  000CA4  EF56  F006         	goto	u2750
  4177  000CA8                     u2751:
  4178  000CA8  EF57  F006         	goto	l943
  4179  000CAC                     u2750:
  4180  000CAC  8025               	bsf	___flmul@prod^0,0,c
  4181  000CAE                     l943:
  4182  000CAE  90D8               	bcf	status,0,c
  4183  000CB0  361F               	rlcf	___flmul@grs^0,f,c
  4184  000CB2  3620               	rlcf	(___flmul@grs+1)^0,f,c
  4185  000CB4  3621               	rlcf	(___flmul@grs+2)^0,f,c
  4186  000CB6  3622               	rlcf	(___flmul@grs+3)^0,f,c
  4187  000CB8  0629               	decf	___flmul@temp^0,f,c
  4188  000CBA  A0D8               	btfss	status,0,c
  4189  000CBC  062A               	decf	(___flmul@temp+1)^0,f,c
  4190  000CBE                     l2729:
  4191  000CBE  AE27               	btfss	(___flmul@prod+2)^0,7,c
  4192  000CC0  EF64  F006         	goto	u2761
  4193  000CC4  EF66  F006         	goto	u2760
  4194  000CC8                     u2761:
  4195  000CC8  EF4A  F006         	goto	l2723
  4196  000CCC                     u2760:
  4197  000CCC  0E00               	movlw	0
  4198  000CCE  6E23               	movwf	___flmul@aexp^0,c
  4199  000CD0  AE22               	btfss	(___flmul@grs+3)^0,7,c
  4200  000CD2  EF6D  F006         	goto	u2771
  4201  000CD6  EF6F  F006         	goto	u2770
  4202  000CDA                     u2771:
  4203  000CDA  EF93  F006         	goto	l945
  4204  000CDE                     u2770:
  4205  000CDE  0EFF               	movlw	255
  4206  000CE0  141F               	andwf	___flmul@grs^0,w,c
  4207  000CE2  6E1A               	movwf	??___flmul^0,c
  4208  000CE4  0EFF               	movlw	255
  4209  000CE6  1420               	andwf	(___flmul@grs+1)^0,w,c
  4210  000CE8  6E1B               	movwf	(??___flmul+1)^0,c
  4211  000CEA  0EFF               	movlw	255
  4212  000CEC  1421               	andwf	(___flmul@grs+2)^0,w,c
  4213  000CEE  6E1C               	movwf	(??___flmul+2)^0,c
  4214  000CF0  0E7F               	movlw	127
  4215  000CF2  1422               	andwf	(___flmul@grs+3)^0,w,c
  4216  000CF4  6E1D               	movwf	(??___flmul+3)^0,c
  4217  000CF6  501A               	movf	??___flmul^0,w,c
  4218  000CF8  101B               	iorwf	(??___flmul+1)^0,w,c
  4219  000CFA  101C               	iorwf	(??___flmul+2)^0,w,c
  4220  000CFC  101D               	iorwf	(??___flmul+3)^0,w,c
  4221  000CFE  B4D8               	btfsc	status,2,c
  4222  000D00  EF84  F006         	goto	u2781
  4223  000D04  EF86  F006         	goto	u2780
  4224  000D08                     u2781:
  4225  000D08  EF8A  F006         	goto	l946
  4226  000D0C                     u2780:
  4227  000D0C                     l2737:
  4228  000D0C  0E01               	movlw	1
  4229  000D0E  6E23               	movwf	___flmul@aexp^0,c
  4230  000D10  EF93  F006         	goto	l945
  4231  000D14                     l946:
  4232  000D14  A025               	btfss	___flmul@prod^0,0,c
  4233  000D16  EF8F  F006         	goto	u2791
  4234  000D1A  EF91  F006         	goto	u2790
  4235  000D1E                     u2791:
  4236  000D1E  EF93  F006         	goto	l945
  4237  000D22                     u2790:
  4238  000D22  EF86  F006         	goto	l2737
  4239  000D26                     l945:
  4240  000D26  5023               	movf	___flmul@aexp^0,w,c
  4241  000D28  B4D8               	btfsc	status,2,c
  4242  000D2A  EF99  F006         	goto	u2801
  4243  000D2E  EF9B  F006         	goto	u2800
  4244  000D32                     u2801:
  4245  000D32  EFBF  F006         	goto	l2749
  4246  000D36                     u2800:
  4247  000D36  0E01               	movlw	1
  4248  000D38  2625               	addwf	___flmul@prod^0,f,c
  4249  000D3A  0E00               	movlw	0
  4250  000D3C  2226               	addwfc	(___flmul@prod+1)^0,f,c
  4251  000D3E  2227               	addwfc	(___flmul@prod+2)^0,f,c
  4252  000D40  2228               	addwfc	(___flmul@prod+3)^0,f,c
  4253  000D42  A028               	btfss	(___flmul@prod+3)^0,0,c
  4254  000D44  EFA6  F006         	goto	u2811
  4255  000D48  EFA8  F006         	goto	u2810
  4256  000D4C                     u2811:
  4257  000D4C  EFBF  F006         	goto	l2749
  4258  000D50                     u2810:
  4259  000D50  C025  F01A         	movff	___flmul@prod,??___flmul
  4260  000D54  C026  F01B         	movff	___flmul@prod+1,??___flmul+1
  4261  000D58  C027  F01C         	movff	___flmul@prod+2,??___flmul+2
  4262  000D5C  C028  F01D         	movff	___flmul@prod+3,??___flmul+3
  4263  000D60  341D               	rlcf	(??___flmul+3)^0,w,c
  4264  000D62  321D               	rrcf	(??___flmul+3)^0,f,c
  4265  000D64  321C               	rrcf	(??___flmul+2)^0,f,c
  4266  000D66  321B               	rrcf	(??___flmul+1)^0,f,c
  4267  000D68  321A               	rrcf	??___flmul^0,f,c
  4268  000D6A  C01A  F025         	movff	??___flmul,___flmul@prod
  4269  000D6E  C01B  F026         	movff	??___flmul+1,___flmul@prod+1
  4270  000D72  C01C  F027         	movff	??___flmul+2,___flmul@prod+2
  4271  000D76  C01D  F028         	movff	??___flmul+3,___flmul@prod+3
  4272  000D7A  4A29               	infsnz	___flmul@temp^0,f,c
  4273  000D7C  2A2A               	incf	(___flmul@temp+1)^0,f,c
  4274  000D7E                     l2749:
  4275  000D7E  BE2A               	btfsc	(___flmul@temp+1)^0,7,c
  4276  000D80  EFCA  F006         	goto	u2821
  4277  000D84  502A               	movf	(___flmul@temp+1)^0,w,c
  4278  000D86  E108               	bnz	u2820
  4279  000D88  2829               	incf	___flmul@temp^0,w,c
  4280  000D8A  A0D8               	btfss	status,0,c
  4281  000D8C  EFCA  F006         	goto	u2821
  4282  000D90  EFCC  F006         	goto	u2820
  4283  000D94                     u2821:
  4284  000D94  EFD6  F006         	goto	l2753
  4285  000D98                     u2820:
  4286  000D98  0E00               	movlw	0
  4287  000D9A  6E25               	movwf	___flmul@prod^0,c
  4288  000D9C  0E00               	movlw	0
  4289  000D9E  6E26               	movwf	(___flmul@prod+1)^0,c
  4290  000DA0  0E80               	movlw	128
  4291  000DA2  6E27               	movwf	(___flmul@prod+2)^0,c
  4292  000DA4  0E7F               	movlw	127
  4293  000DA6  6E28               	movwf	(___flmul@prod+3)^0,c
  4294  000DA8  EF04  F007         	goto	l2765
  4295  000DAC                     l2753:
  4296  000DAC  BE2A               	btfsc	(___flmul@temp+1)^0,7,c
  4297  000DAE  EFE3  F006         	goto	u2830
  4298  000DB2  502A               	movf	(___flmul@temp+1)^0,w,c
  4299  000DB4  E106               	bnz	u2831
  4300  000DB6  0429               	decf	___flmul@temp^0,w,c
  4301  000DB8  B0D8               	btfsc	status,0,c
  4302  000DBA  EFE1  F006         	goto	u2831
  4303  000DBE  EFE3  F006         	goto	u2830
  4304  000DC2                     u2831:
  4305  000DC2  EFEF  F006         	goto	l953
  4306  000DC6                     u2830:
  4307  000DC6  0E00               	movlw	0
  4308  000DC8  6E25               	movwf	___flmul@prod^0,c
  4309  000DCA  0E00               	movlw	0
  4310  000DCC  6E26               	movwf	(___flmul@prod+1)^0,c
  4311  000DCE  0E00               	movlw	0
  4312  000DD0  6E27               	movwf	(___flmul@prod+2)^0,c
  4313  000DD2  0E00               	movlw	0
  4314  000DD4  6E28               	movwf	(___flmul@prod+3)^0,c
  4315  000DD6  0E00               	movlw	0
  4316  000DD8  6E1E               	movwf	___flmul@sign^0,c
  4317  000DDA  EF04  F007         	goto	l2765
  4318  000DDE                     l953:
  4319  000DDE  C029  F024         	movff	___flmul@temp,___flmul@bexp
  4320  000DE2  0EFF               	movlw	255
  4321  000DE4  1625               	andwf	___flmul@prod^0,f,c
  4322  000DE6  0EFF               	movlw	255
  4323  000DE8  1626               	andwf	(___flmul@prod+1)^0,f,c
  4324  000DEA  0E7F               	movlw	127
  4325  000DEC  1627               	andwf	(___flmul@prod+2)^0,f,c
  4326  000DEE  0E00               	movlw	0
  4327  000DF0  1628               	andwf	(___flmul@prod+3)^0,f,c
  4328  000DF2  A024               	btfss	___flmul@bexp^0,0,c
  4329  000DF4  EFFE  F006         	goto	u2841
  4330  000DF8  EF00  F007         	goto	u2840
  4331  000DFC                     u2841:
  4332  000DFC  EF01  F007         	goto	l2763
  4333  000E00                     u2840:
  4334  000E00  8E27               	bsf	(___flmul@prod+2)^0,7,c
  4335  000E02                     l2763:
  4336  000E02  90D8               	bcf	status,0,c
  4337  000E04  3024               	rrcf	___flmul@bexp^0,w,c
  4338  000E06  6E28               	movwf	(___flmul@prod+3)^0,c
  4339  000E08                     l2765:
  4340  000E08  501E               	movf	___flmul@sign^0,w,c
  4341  000E0A  1228               	iorwf	(___flmul@prod+3)^0,f,c
  4342  000E0C  C025  F012         	movff	___flmul@prod,?___flmul
  4343  000E10  C026  F013         	movff	___flmul@prod+1,?___flmul+1
  4344  000E14  C027  F014         	movff	___flmul@prod+2,?___flmul+2
  4345  000E18  C028  F015         	movff	___flmul@prod+3,?___flmul+3
  4346  000E1C                     l940:
  4347  000E1C  0012               	return		;funcret
  4348  000E1E                     __end_of___flmul:
  4349                           	opt callstack 0
  4350                           
  4351 ;; *************** function ___flge *****************
  4352 ;; Defined at:
  4353 ;;		line 4 in file "C:\Program Files (x86)\Microchip\xc8\v2.10\pic\sources\c99\common\flge.c"
  4354 ;; Parameters:    Size  Location     Type
  4355 ;;  ff1             4   42[COMRAM] unsigned char 
  4356 ;;  ff2             4   46[COMRAM] unsigned char 
  4357 ;; Auto vars:     Size  Location     Type
  4358 ;;		None
  4359 ;; Return value:  Size  Location     Type
  4360 ;;		None               void
  4361 ;; Registers used:
  4362 ;;		wreg, status,2, status,0
  4363 ;; Tracked objects:
  4364 ;;		On entry : 0/0
  4365 ;;		On exit  : 0/0
  4366 ;;		Unchanged: 0/0
  4367 ;; Data sizes:     COMRAM   BANK0   BANK1   BANK2   BANK3   BANK4   BANK5
  4368 ;;      Params:         8       0       0       0       0       0       0
  4369 ;;      Locals:         0       0       0       0       0       0       0
  4370 ;;      Temps:          4       0       0       0       0       0       0
  4371 ;;      Totals:        12       0       0       0       0       0       0
  4372 ;;Total ram usage:       12 bytes
  4373 ;; Hardware stack levels used:    1
  4374 ;; Hardware stack levels required when called:    3
  4375 ;; This function calls:
  4376 ;;		Nothing
  4377 ;; This function is called by:
  4378 ;;		_I2C_timer_prescaler
  4379 ;; This function uses a non-reentrant model
  4380 ;;
  4381                           
  4382                           	psect	text15
  4383  001E6A                     __ptext15:
  4384                           	opt callstack 0
  4385  001E6A                     ___flge:
  4386                           	opt callstack 25
  4387  001E6A  0E00               	movlw	0
  4388  001E6C  142B               	andwf	___flge@ff1^0,w,c
  4389  001E6E  6E33               	movwf	??___flge^0,c
  4390  001E70  0E00               	movlw	0
  4391  001E72  142C               	andwf	(___flge@ff1+1)^0,w,c
  4392  001E74  6E34               	movwf	(??___flge+1)^0,c
  4393  001E76  0E80               	movlw	128
  4394  001E78  142D               	andwf	(___flge@ff1+2)^0,w,c
  4395  001E7A  6E35               	movwf	(??___flge+2)^0,c
  4396  001E7C  0E7F               	movlw	127
  4397  001E7E  142E               	andwf	(___flge@ff1+3)^0,w,c
  4398  001E80  6E36               	movwf	(??___flge+3)^0,c
  4399  001E82  5033               	movf	??___flge^0,w,c
  4400  001E84  1034               	iorwf	(??___flge+1)^0,w,c
  4401  001E86  1035               	iorwf	(??___flge+2)^0,w,c
  4402  001E88  1036               	iorwf	(??___flge+3)^0,w,c
  4403  001E8A  A4D8               	btfss	status,2,c
  4404  001E8C  EF4A  F00F         	goto	u2851
  4405  001E90  EF4C  F00F         	goto	u2850
  4406  001E94                     u2851:
  4407  001E94  EF54  F00F         	goto	l2781
  4408  001E98                     u2850:
  4409  001E98  0E00               	movlw	0
  4410  001E9A  6E2B               	movwf	___flge@ff1^0,c
  4411  001E9C  0E00               	movlw	0
  4412  001E9E  6E2C               	movwf	(___flge@ff1+1)^0,c
  4413  001EA0  0E00               	movlw	0
  4414  001EA2  6E2D               	movwf	(___flge@ff1+2)^0,c
  4415  001EA4  0E00               	movlw	0
  4416  001EA6  6E2E               	movwf	(___flge@ff1+3)^0,c
  4417  001EA8                     l2781:
  4418  001EA8  0E00               	movlw	0
  4419  001EAA  142F               	andwf	___flge@ff2^0,w,c
  4420  001EAC  6E33               	movwf	??___flge^0,c
  4421  001EAE  0E00               	movlw	0
  4422  001EB0  1430               	andwf	(___flge@ff2+1)^0,w,c
  4423  001EB2  6E34               	movwf	(??___flge+1)^0,c
  4424  001EB4  0E80               	movlw	128
  4425  001EB6  1431               	andwf	(___flge@ff2+2)^0,w,c
  4426  001EB8  6E35               	movwf	(??___flge+2)^0,c
  4427  001EBA  0E7F               	movlw	127
  4428  001EBC  1432               	andwf	(___flge@ff2+3)^0,w,c
  4429  001EBE  6E36               	movwf	(??___flge+3)^0,c
  4430  001EC0  5033               	movf	??___flge^0,w,c
  4431  001EC2  1034               	iorwf	(??___flge+1)^0,w,c
  4432  001EC4  1035               	iorwf	(??___flge+2)^0,w,c
  4433  001EC6  1036               	iorwf	(??___flge+3)^0,w,c
  4434  001EC8  A4D8               	btfss	status,2,c
  4435  001ECA  EF69  F00F         	goto	u2861
  4436  001ECE  EF6B  F00F         	goto	u2860
  4437  001ED2                     u2861:
  4438  001ED2  EF73  F00F         	goto	l2785
  4439  001ED6                     u2860:
  4440  001ED6  0E00               	movlw	0
  4441  001ED8  6E2F               	movwf	___flge@ff2^0,c
  4442  001EDA  0E00               	movlw	0
  4443  001EDC  6E30               	movwf	(___flge@ff2+1)^0,c
  4444  001EDE  0E00               	movlw	0
  4445  001EE0  6E31               	movwf	(___flge@ff2+2)^0,c
  4446  001EE2  0E00               	movlw	0
  4447  001EE4  6E32               	movwf	(___flge@ff2+3)^0,c
  4448  001EE6                     l2785:
  4449  001EE6  AE2E               	btfss	(___flge@ff1+3)^0,7,c
  4450  001EE8  EF78  F00F         	goto	u2871
  4451  001EEC  EF7A  F00F         	goto	u2870
  4452  001EF0                     u2871:
  4453  001EF0  EF83  F00F         	goto	l2789
  4454  001EF4                     u2870:
  4455  001EF4  6C2B               	negf	___flge@ff1^0,c
  4456  001EF6  1E2C               	comf	(___flge@ff1+1)^0,f,c
  4457  001EF8  B0D8               	btfsc	status,0,c
  4458  001EFA  2A2C               	incf	(___flge@ff1+1)^0,f,c
  4459  001EFC  1E2D               	comf	(___flge@ff1+2)^0,f,c
  4460  001EFE  B0D8               	btfsc	status,0,c
  4461  001F00  2A2D               	incf	(___flge@ff1+2)^0,f,c
  4462  001F02  0E80               	movlw	128
  4463  001F04  562E               	subfwb	(___flge@ff1+3)^0,f,c
  4464  001F06                     l2789:
  4465  001F06  AE32               	btfss	(___flge@ff2+3)^0,7,c
  4466  001F08  EF88  F00F         	goto	u2881
  4467  001F0C  EF8A  F00F         	goto	u2880
  4468  001F10                     u2881:
  4469  001F10  EF93  F00F         	goto	l587
  4470  001F14                     u2880:
  4471  001F14  6C2F               	negf	___flge@ff2^0,c
  4472  001F16  1E30               	comf	(___flge@ff2+1)^0,f,c
  4473  001F18  B0D8               	btfsc	status,0,c
  4474  001F1A  2A30               	incf	(___flge@ff2+1)^0,f,c
  4475  001F1C  1E31               	comf	(___flge@ff2+2)^0,f,c
  4476  001F1E  B0D8               	btfsc	status,0,c
  4477  001F20  2A31               	incf	(___flge@ff2+2)^0,f,c
  4478  001F22  0E80               	movlw	128
  4479  001F24  5632               	subfwb	(___flge@ff2+3)^0,f,c
  4480  001F26                     l587:
  4481  001F26  0E00               	movlw	0
  4482  001F28  1A2B               	xorwf	___flge@ff1^0,f,c
  4483  001F2A  0E00               	movlw	0
  4484  001F2C  1A2C               	xorwf	(___flge@ff1+1)^0,f,c
  4485  001F2E  0E00               	movlw	0
  4486  001F30  1A2D               	xorwf	(___flge@ff1+2)^0,f,c
  4487  001F32  0E80               	movlw	128
  4488  001F34  1A2E               	xorwf	(___flge@ff1+3)^0,f,c
  4489  001F36  0E00               	movlw	0
  4490  001F38  1A2F               	xorwf	___flge@ff2^0,f,c
  4491  001F3A  0E00               	movlw	0
  4492  001F3C  1A30               	xorwf	(___flge@ff2+1)^0,f,c
  4493  001F3E  0E00               	movlw	0
  4494  001F40  1A31               	xorwf	(___flge@ff2+2)^0,f,c
  4495  001F42  0E80               	movlw	128
  4496  001F44  1A32               	xorwf	(___flge@ff2+3)^0,f,c
  4497  001F46  502F               	movf	___flge@ff2^0,w,c
  4498  001F48  5C2B               	subwf	___flge@ff1^0,w,c
  4499  001F4A  5030               	movf	(___flge@ff2+1)^0,w,c
  4500  001F4C  582C               	subwfb	(___flge@ff1+1)^0,w,c
  4501  001F4E  5031               	movf	(___flge@ff2+2)^0,w,c
  4502  001F50  582D               	subwfb	(___flge@ff1+2)^0,w,c
  4503  001F52  5032               	movf	(___flge@ff2+3)^0,w,c
  4504  001F54  582E               	subwfb	(___flge@ff1+3)^0,w,c
  4505  001F56  B0D8               	btfsc	status,0,c
  4506  001F58  EFB0  F00F         	goto	u2891
  4507  001F5C  EFB2  F00F         	goto	u2890
  4508  001F60                     u2891:
  4509  001F60  EFB5  F00F         	goto	l2795
  4510  001F64                     u2890:
  4511  001F64  90D8               	bcf	status,0,c
  4512  001F66  EFB6  F00F         	goto	l592
  4513  001F6A                     l2795:
  4514  001F6A  80D8               	bsf	status,0,c
  4515  001F6C                     l592:
  4516  001F6C  0012               	return		;funcret
  4517  001F6E                     __end_of___flge:
  4518                           	opt callstack 0
  4519                           
  4520 ;; *************** function ___fldiv *****************
  4521 ;; Defined at:
  4522 ;;		line 11 in file "C:\Program Files (x86)\Microchip\xc8\v2.10\pic\sources\c99\common\sprcdiv.c"
  4523 ;; Parameters:    Size  Location     Type
  4524 ;;  b               4   31[COMRAM] unsigned char 
  4525 ;;  a               4   35[COMRAM] unsigned char 
  4526 ;; Auto vars:     Size  Location     Type
  4527 ;;  grs             4   50[COMRAM] unsigned long 
  4528 ;;  rem             4   43[COMRAM] unsigned long 
  4529 ;;  new_exp         2   48[COMRAM] short 
  4530 ;;  aexp            1   55[COMRAM] unsigned char 
  4531 ;;  bexp            1   54[COMRAM] unsigned char 
  4532 ;;  sign            1   47[COMRAM] unsigned char 
  4533 ;; Return value:  Size  Location     Type
  4534 ;;                  4   31[COMRAM] unsigned char 
  4535 ;; Registers used:
  4536 ;;		wreg, status,2, status,0
  4537 ;; Tracked objects:
  4538 ;;		On entry : 0/0
  4539 ;;		On exit  : 0/0
  4540 ;;		Unchanged: 0/0
  4541 ;; Data sizes:     COMRAM   BANK0   BANK1   BANK2   BANK3   BANK4   BANK5
  4542 ;;      Params:         8       0       0       0       0       0       0
  4543 ;;      Locals:        13       0       0       0       0       0       0
  4544 ;;      Temps:          4       0       0       0       0       0       0
  4545 ;;      Totals:        25       0       0       0       0       0       0
  4546 ;;Total ram usage:       25 bytes
  4547 ;; Hardware stack levels used:    1
  4548 ;; Hardware stack levels required when called:    3
  4549 ;; This function calls:
  4550 ;;		Nothing
  4551 ;; This function is called by:
  4552 ;;		_I2C_timer_prescaler
  4553 ;; This function uses a non-reentrant model
  4554 ;;
  4555                           
  4556                           	psect	text16
  4557  0011BE                     __ptext16:
  4558                           	opt callstack 0
  4559  0011BE                     ___fldiv:
  4560                           	opt callstack 25
  4561  0011BE  5023               	movf	(___fldiv@b+3)^0,w,c
  4562  0011C0  0B80               	andlw	128
  4563  0011C2  6E30               	movwf	___fldiv@sign^0,c
  4564  0011C4  5023               	movf	(___fldiv@b+3)^0,w,c
  4565  0011C6  2423               	addwf	(___fldiv@b+3)^0,w,c
  4566  0011C8  6E37               	movwf	___fldiv@bexp^0,c
  4567  0011CA  AE22               	btfss	(___fldiv@b+2)^0,7,c
  4568  0011CC  EFEA  F008         	goto	u2431
  4569  0011D0  EFEC  F008         	goto	u2430
  4570  0011D4                     u2431:
  4571  0011D4  EFED  F008         	goto	l2509
  4572  0011D8                     u2430:
  4573  0011D8  8037               	bsf	___fldiv@bexp^0,0,c
  4574  0011DA                     l2509:
  4575  0011DA  5037               	movf	___fldiv@bexp^0,w,c
  4576  0011DC  B4D8               	btfsc	status,2,c
  4577  0011DE  EFF3  F008         	goto	u2441
  4578  0011E2  EFF5  F008         	goto	u2440
  4579  0011E6                     u2441:
  4580  0011E6  EF0A  F009         	goto	l2519
  4581  0011EA                     u2440:
  4582  0011EA  2837               	incf	___fldiv@bexp^0,w,c
  4583  0011EC  A4D8               	btfss	status,2,c
  4584  0011EE  EFFB  F008         	goto	u2451
  4585  0011F2  EFFD  F008         	goto	u2450
  4586  0011F6                     u2451:
  4587  0011F6  EF05  F009         	goto	l2515
  4588  0011FA                     u2450:
  4589  0011FA  0E00               	movlw	0
  4590  0011FC  6E20               	movwf	___fldiv@b^0,c
  4591  0011FE  0E00               	movlw	0
  4592  001200  6E21               	movwf	(___fldiv@b+1)^0,c
  4593  001202  0E00               	movlw	0
  4594  001204  6E22               	movwf	(___fldiv@b+2)^0,c
  4595  001206  0E00               	movlw	0
  4596  001208  6E23               	movwf	(___fldiv@b+3)^0,c
  4597  00120A                     l2515:
  4598  00120A  8E22               	bsf	(___fldiv@b+2)^0,7,c
  4599  00120C  0E00               	movlw	0
  4600  00120E  6E23               	movwf	(___fldiv@b+3)^0,c
  4601  001210  EF12  F009         	goto	l2521
  4602  001214                     l2519:
  4603  001214  0E00               	movlw	0
  4604  001216  6E20               	movwf	___fldiv@b^0,c
  4605  001218  0E00               	movlw	0
  4606  00121A  6E21               	movwf	(___fldiv@b+1)^0,c
  4607  00121C  0E00               	movlw	0
  4608  00121E  6E22               	movwf	(___fldiv@b+2)^0,c
  4609  001220  0E00               	movlw	0
  4610  001222  6E23               	movwf	(___fldiv@b+3)^0,c
  4611  001224                     l2521:
  4612  001224  5027               	movf	(___fldiv@a+3)^0,w,c
  4613  001226  0B80               	andlw	128
  4614  001228  1A30               	xorwf	___fldiv@sign^0,f,c
  4615  00122A  5027               	movf	(___fldiv@a+3)^0,w,c
  4616  00122C  2427               	addwf	(___fldiv@a+3)^0,w,c
  4617  00122E  6E38               	movwf	___fldiv@aexp^0,c
  4618  001230  AE26               	btfss	(___fldiv@a+2)^0,7,c
  4619  001232  EF1D  F009         	goto	u2461
  4620  001236  EF1F  F009         	goto	u2460
  4621  00123A                     u2461:
  4622  00123A  EF20  F009         	goto	l2529
  4623  00123E                     u2460:
  4624  00123E  8038               	bsf	___fldiv@aexp^0,0,c
  4625  001240                     l2529:
  4626  001240  5038               	movf	___fldiv@aexp^0,w,c
  4627  001242  B4D8               	btfsc	status,2,c
  4628  001244  EF26  F009         	goto	u2471
  4629  001248  EF28  F009         	goto	u2470
  4630  00124C                     u2471:
  4631  00124C  EF3D  F009         	goto	l2539
  4632  001250                     u2470:
  4633  001250  2838               	incf	___fldiv@aexp^0,w,c
  4634  001252  A4D8               	btfss	status,2,c
  4635  001254  EF2E  F009         	goto	u2481
  4636  001258  EF30  F009         	goto	u2480
  4637  00125C                     u2481:
  4638  00125C  EF38  F009         	goto	l2535
  4639  001260                     u2480:
  4640  001260  0E00               	movlw	0
  4641  001262  6E24               	movwf	___fldiv@a^0,c
  4642  001264  0E00               	movlw	0
  4643  001266  6E25               	movwf	(___fldiv@a+1)^0,c
  4644  001268  0E00               	movlw	0
  4645  00126A  6E26               	movwf	(___fldiv@a+2)^0,c
  4646  00126C  0E00               	movlw	0
  4647  00126E  6E27               	movwf	(___fldiv@a+3)^0,c
  4648  001270                     l2535:
  4649  001270  8E26               	bsf	(___fldiv@a+2)^0,7,c
  4650  001272  0E00               	movlw	0
  4651  001274  6E27               	movwf	(___fldiv@a+3)^0,c
  4652  001276  EF45  F009         	goto	l2541
  4653  00127A                     l2539:
  4654  00127A  0E00               	movlw	0
  4655  00127C  6E24               	movwf	___fldiv@a^0,c
  4656  00127E  0E00               	movlw	0
  4657  001280  6E25               	movwf	(___fldiv@a+1)^0,c
  4658  001282  0E00               	movlw	0
  4659  001284  6E26               	movwf	(___fldiv@a+2)^0,c
  4660  001286  0E00               	movlw	0
  4661  001288  6E27               	movwf	(___fldiv@a+3)^0,c
  4662  00128A                     l2541:
  4663  00128A  5024               	movf	___fldiv@a^0,w,c
  4664  00128C  1025               	iorwf	(___fldiv@a+1)^0,w,c
  4665  00128E  1026               	iorwf	(___fldiv@a+2)^0,w,c
  4666  001290  1027               	iorwf	(___fldiv@a+3)^0,w,c
  4667  001292  A4D8               	btfss	status,2,c
  4668  001294  EF4E  F009         	goto	u2491
  4669  001298  EF50  F009         	goto	u2490
  4670  00129C                     u2491:
  4671  00129C  EF68  F009         	goto	l2553
  4672  0012A0                     u2490:
  4673  0012A0  0E00               	movlw	0
  4674  0012A2  6E20               	movwf	___fldiv@b^0,c
  4675  0012A4  0E00               	movlw	0
  4676  0012A6  6E21               	movwf	(___fldiv@b+1)^0,c
  4677  0012A8  0E00               	movlw	0
  4678  0012AA  6E22               	movwf	(___fldiv@b+2)^0,c
  4679  0012AC  0E00               	movlw	0
  4680  0012AE  6E23               	movwf	(___fldiv@b+3)^0,c
  4681  0012B0  0E80               	movlw	128
  4682  0012B2  1222               	iorwf	(___fldiv@b+2)^0,f,c
  4683  0012B4  0E7F               	movlw	127
  4684  0012B6  1223               	iorwf	(___fldiv@b+3)^0,f,c
  4685  0012B8                     l2547:
  4686  0012B8  5030               	movf	___fldiv@sign^0,w,c
  4687  0012BA  1223               	iorwf	(___fldiv@b+3)^0,f,c
  4688  0012BC  C020  F020         	movff	___fldiv@b,?___fldiv
  4689  0012C0  C021  F021         	movff	___fldiv@b+1,?___fldiv+1
  4690  0012C4  C022  F022         	movff	___fldiv@b+2,?___fldiv+2
  4691  0012C8  C023  F023         	movff	___fldiv@b+3,?___fldiv+3
  4692  0012CC  EFAB  F00A         	goto	l904
  4693  0012D0                     l2553:
  4694  0012D0  5037               	movf	___fldiv@bexp^0,w,c
  4695  0012D2  A4D8               	btfss	status,2,c
  4696  0012D4  EF6E  F009         	goto	u2501
  4697  0012D8  EF70  F009         	goto	u2500
  4698  0012DC                     u2501:
  4699  0012DC  EF7A  F009         	goto	l2561
  4700  0012E0                     u2500:
  4701  0012E0  0E00               	movlw	0
  4702  0012E2  6E20               	movwf	?___fldiv^0,c
  4703  0012E4  0E00               	movlw	0
  4704  0012E6  6E21               	movwf	(?___fldiv+1)^0,c
  4705  0012E8  0E00               	movlw	0
  4706  0012EA  6E22               	movwf	(?___fldiv+2)^0,c
  4707  0012EC  0E00               	movlw	0
  4708  0012EE  6E23               	movwf	(?___fldiv+3)^0,c
  4709  0012F0  EFAB  F00A         	goto	l904
  4710  0012F4                     l2561:
  4711  0012F4  5038               	movf	___fldiv@aexp^0,w,c
  4712  0012F6  C037  F028         	movff	___fldiv@bexp,??___fldiv
  4713  0012FA  6A29               	clrf	(??___fldiv+1)^0,c
  4714  0012FC  5E28               	subwf	??___fldiv^0,f,c
  4715  0012FE  0E00               	movlw	0
  4716  001300  5A29               	subwfb	(??___fldiv+1)^0,f,c
  4717  001302  0E7F               	movlw	127
  4718  001304  2428               	addwf	??___fldiv^0,w,c
  4719  001306  6E31               	movwf	___fldiv@new_exp^0,c
  4720  001308  0E00               	movlw	0
  4721  00130A  2029               	addwfc	(??___fldiv+1)^0,w,c
  4722  00130C  6E32               	movwf	(___fldiv@new_exp+1)^0,c
  4723  00130E  C020  F02C         	movff	___fldiv@b,___fldiv@rem
  4724  001312  C021  F02D         	movff	___fldiv@b+1,___fldiv@rem+1
  4725  001316  C022  F02E         	movff	___fldiv@b+2,___fldiv@rem+2
  4726  00131A  C023  F02F         	movff	___fldiv@b+3,___fldiv@rem+3
  4727  00131E  0E00               	movlw	0
  4728  001320  6E20               	movwf	___fldiv@b^0,c
  4729  001322  0E00               	movlw	0
  4730  001324  6E21               	movwf	(___fldiv@b+1)^0,c
  4731  001326  0E00               	movlw	0
  4732  001328  6E22               	movwf	(___fldiv@b+2)^0,c
  4733  00132A  0E00               	movlw	0
  4734  00132C  6E23               	movwf	(___fldiv@b+3)^0,c
  4735  00132E  0E00               	movlw	0
  4736  001330  6E33               	movwf	___fldiv@grs^0,c
  4737  001332  0E00               	movlw	0
  4738  001334  6E34               	movwf	(___fldiv@grs+1)^0,c
  4739  001336  0E00               	movlw	0
  4740  001338  6E35               	movwf	(___fldiv@grs+2)^0,c
  4741  00133A  0E00               	movlw	0
  4742  00133C  6E36               	movwf	(___fldiv@grs+3)^0,c
  4743  00133E  0E00               	movlw	0
  4744  001340  6E38               	movwf	___fldiv@aexp^0,c
  4745  001342  EFDB  F009         	goto	l906
  4746  001346                     l2571:
  4747  001346  5038               	movf	___fldiv@aexp^0,w,c
  4748  001348  B4D8               	btfsc	status,2,c
  4749  00134A  EFA9  F009         	goto	u2511
  4750  00134E  EFAB  F009         	goto	u2510
  4751  001352                     u2511:
  4752  001352  EFC2  F009         	goto	l2579
  4753  001356                     u2510:
  4754  001356  90D8               	bcf	status,0,c
  4755  001358  362C               	rlcf	___fldiv@rem^0,f,c
  4756  00135A  362D               	rlcf	(___fldiv@rem+1)^0,f,c
  4757  00135C  362E               	rlcf	(___fldiv@rem+2)^0,f,c
  4758  00135E  362F               	rlcf	(___fldiv@rem+3)^0,f,c
  4759  001360  90D8               	bcf	status,0,c
  4760  001362  3620               	rlcf	___fldiv@b^0,f,c
  4761  001364  3621               	rlcf	(___fldiv@b+1)^0,f,c
  4762  001366  3622               	rlcf	(___fldiv@b+2)^0,f,c
  4763  001368  3623               	rlcf	(___fldiv@b+3)^0,f,c
  4764  00136A  AE36               	btfss	(___fldiv@grs+3)^0,7,c
  4765  00136C  EFBA  F009         	goto	u2521
  4766  001370  EFBC  F009         	goto	u2520
  4767  001374                     u2521:
  4768  001374  EFBD  F009         	goto	l909
  4769  001378                     u2520:
  4770  001378  8020               	bsf	___fldiv@b^0,0,c
  4771  00137A                     l909:
  4772  00137A  90D8               	bcf	status,0,c
  4773  00137C  3633               	rlcf	___fldiv@grs^0,f,c
  4774  00137E  3634               	rlcf	(___fldiv@grs+1)^0,f,c
  4775  001380  3635               	rlcf	(___fldiv@grs+2)^0,f,c
  4776  001382  3636               	rlcf	(___fldiv@grs+3)^0,f,c
  4777  001384                     l2579:
  4778  001384  5024               	movf	___fldiv@a^0,w,c
  4779  001386  5C2C               	subwf	___fldiv@rem^0,w,c
  4780  001388  5025               	movf	(___fldiv@a+1)^0,w,c
  4781  00138A  582D               	subwfb	(___fldiv@rem+1)^0,w,c
  4782  00138C  5026               	movf	(___fldiv@a+2)^0,w,c
  4783  00138E  582E               	subwfb	(___fldiv@rem+2)^0,w,c
  4784  001390  5027               	movf	(___fldiv@a+3)^0,w,c
  4785  001392  582F               	subwfb	(___fldiv@rem+3)^0,w,c
  4786  001394  A0D8               	btfss	status,0,c
  4787  001396  EFCF  F009         	goto	u2531
  4788  00139A  EFD1  F009         	goto	u2530
  4789  00139E                     u2531:
  4790  00139E  EFDA  F009         	goto	l2585
  4791  0013A2                     u2530:
  4792  0013A2  8C36               	bsf	(___fldiv@grs+3)^0,6,c
  4793  0013A4  5024               	movf	___fldiv@a^0,w,c
  4794  0013A6  5E2C               	subwf	___fldiv@rem^0,f,c
  4795  0013A8  5025               	movf	(___fldiv@a+1)^0,w,c
  4796  0013AA  5A2D               	subwfb	(___fldiv@rem+1)^0,f,c
  4797  0013AC  5026               	movf	(___fldiv@a+2)^0,w,c
  4798  0013AE  5A2E               	subwfb	(___fldiv@rem+2)^0,f,c
  4799  0013B0  5027               	movf	(___fldiv@a+3)^0,w,c
  4800  0013B2  5A2F               	subwfb	(___fldiv@rem+3)^0,f,c
  4801  0013B4                     l2585:
  4802  0013B4  2A38               	incf	___fldiv@aexp^0,f,c
  4803  0013B6                     l906:
  4804  0013B6  0E19               	movlw	25
  4805  0013B8  6438               	cpfsgt	___fldiv@aexp^0,c
  4806  0013BA  EFE1  F009         	goto	u2541
  4807  0013BE  EFE3  F009         	goto	u2540
  4808  0013C2                     u2541:
  4809  0013C2  EFA3  F009         	goto	l2571
  4810  0013C6                     u2540:
  4811  0013C6  502C               	movf	___fldiv@rem^0,w,c
  4812  0013C8  102D               	iorwf	(___fldiv@rem+1)^0,w,c
  4813  0013CA  102E               	iorwf	(___fldiv@rem+2)^0,w,c
  4814  0013CC  102F               	iorwf	(___fldiv@rem+3)^0,w,c
  4815  0013CE  B4D8               	btfsc	status,2,c
  4816  0013D0  EFEC  F009         	goto	u2551
  4817  0013D4  EFEE  F009         	goto	u2550
  4818  0013D8                     u2551:
  4819  0013D8  EF06  F00A         	goto	l2597
  4820  0013DC                     u2550:
  4821  0013DC  8033               	bsf	___fldiv@grs^0,0,c
  4822  0013DE  EF06  F00A         	goto	l2597
  4823  0013E2                     l2591:
  4824  0013E2  90D8               	bcf	status,0,c
  4825  0013E4  3620               	rlcf	___fldiv@b^0,f,c
  4826  0013E6  3621               	rlcf	(___fldiv@b+1)^0,f,c
  4827  0013E8  3622               	rlcf	(___fldiv@b+2)^0,f,c
  4828  0013EA  3623               	rlcf	(___fldiv@b+3)^0,f,c
  4829  0013EC  AE36               	btfss	(___fldiv@grs+3)^0,7,c
  4830  0013EE  EFFB  F009         	goto	u2561
  4831  0013F2  EFFD  F009         	goto	u2560
  4832  0013F6                     u2561:
  4833  0013F6  EFFE  F009         	goto	l915
  4834  0013FA                     u2560:
  4835  0013FA  8020               	bsf	___fldiv@b^0,0,c
  4836  0013FC                     l915:
  4837  0013FC  90D8               	bcf	status,0,c
  4838  0013FE  3633               	rlcf	___fldiv@grs^0,f,c
  4839  001400  3634               	rlcf	(___fldiv@grs+1)^0,f,c
  4840  001402  3635               	rlcf	(___fldiv@grs+2)^0,f,c
  4841  001404  3636               	rlcf	(___fldiv@grs+3)^0,f,c
  4842  001406  0631               	decf	___fldiv@new_exp^0,f,c
  4843  001408  A0D8               	btfss	status,0,c
  4844  00140A  0632               	decf	(___fldiv@new_exp+1)^0,f,c
  4845  00140C                     l2597:
  4846  00140C  AE22               	btfss	(___fldiv@b+2)^0,7,c
  4847  00140E  EF0B  F00A         	goto	u2571
  4848  001412  EF0D  F00A         	goto	u2570
  4849  001416                     u2571:
  4850  001416  EFF1  F009         	goto	l2591
  4851  00141A                     u2570:
  4852  00141A  0E00               	movlw	0
  4853  00141C  6E38               	movwf	___fldiv@aexp^0,c
  4854  00141E  AE36               	btfss	(___fldiv@grs+3)^0,7,c
  4855  001420  EF14  F00A         	goto	u2581
  4856  001424  EF16  F00A         	goto	u2580
  4857  001428                     u2581:
  4858  001428  EF3A  F00A         	goto	l917
  4859  00142C                     u2580:
  4860  00142C  0EFF               	movlw	255
  4861  00142E  1433               	andwf	___fldiv@grs^0,w,c
  4862  001430  6E28               	movwf	??___fldiv^0,c
  4863  001432  0EFF               	movlw	255
  4864  001434  1434               	andwf	(___fldiv@grs+1)^0,w,c
  4865  001436  6E29               	movwf	(??___fldiv+1)^0,c
  4866  001438  0EFF               	movlw	255
  4867  00143A  1435               	andwf	(___fldiv@grs+2)^0,w,c
  4868  00143C  6E2A               	movwf	(??___fldiv+2)^0,c
  4869  00143E  0E7F               	movlw	127
  4870  001440  1436               	andwf	(___fldiv@grs+3)^0,w,c
  4871  001442  6E2B               	movwf	(??___fldiv+3)^0,c
  4872  001444  5028               	movf	??___fldiv^0,w,c
  4873  001446  1029               	iorwf	(??___fldiv+1)^0,w,c
  4874  001448  102A               	iorwf	(??___fldiv+2)^0,w,c
  4875  00144A  102B               	iorwf	(??___fldiv+3)^0,w,c
  4876  00144C  B4D8               	btfsc	status,2,c
  4877  00144E  EF2B  F00A         	goto	u2591
  4878  001452  EF2D  F00A         	goto	u2590
  4879  001456                     u2591:
  4880  001456  EF31  F00A         	goto	l918
  4881  00145A                     u2590:
  4882  00145A                     l2605:
  4883  00145A  0E01               	movlw	1
  4884  00145C  6E38               	movwf	___fldiv@aexp^0,c
  4885  00145E  EF3A  F00A         	goto	l917
  4886  001462                     l918:
  4887  001462  A020               	btfss	___fldiv@b^0,0,c
  4888  001464  EF36  F00A         	goto	u2601
  4889  001468  EF38  F00A         	goto	u2600
  4890  00146C                     u2601:
  4891  00146C  EF3A  F00A         	goto	l917
  4892  001470                     u2600:
  4893  001470  EF2D  F00A         	goto	l2605
  4894  001474                     l917:
  4895  001474  5038               	movf	___fldiv@aexp^0,w,c
  4896  001476  B4D8               	btfsc	status,2,c
  4897  001478  EF40  F00A         	goto	u2611
  4898  00147C  EF42  F00A         	goto	u2610
  4899  001480                     u2611:
  4900  001480  EF66  F00A         	goto	l2617
  4901  001484                     u2610:
  4902  001484  0E01               	movlw	1
  4903  001486  2620               	addwf	___fldiv@b^0,f,c
  4904  001488  0E00               	movlw	0
  4905  00148A  2221               	addwfc	(___fldiv@b+1)^0,f,c
  4906  00148C  2222               	addwfc	(___fldiv@b+2)^0,f,c
  4907  00148E  2223               	addwfc	(___fldiv@b+3)^0,f,c
  4908  001490  A023               	btfss	(___fldiv@b+3)^0,0,c
  4909  001492  EF4D  F00A         	goto	u2621
  4910  001496  EF4F  F00A         	goto	u2620
  4911  00149A                     u2621:
  4912  00149A  EF66  F00A         	goto	l2617
  4913  00149E                     u2620:
  4914  00149E  C020  F028         	movff	___fldiv@b,??___fldiv
  4915  0014A2  C021  F029         	movff	___fldiv@b+1,??___fldiv+1
  4916  0014A6  C022  F02A         	movff	___fldiv@b+2,??___fldiv+2
  4917  0014AA  C023  F02B         	movff	___fldiv@b+3,??___fldiv+3
  4918  0014AE  342B               	rlcf	(??___fldiv+3)^0,w,c
  4919  0014B0  322B               	rrcf	(??___fldiv+3)^0,f,c
  4920  0014B2  322A               	rrcf	(??___fldiv+2)^0,f,c
  4921  0014B4  3229               	rrcf	(??___fldiv+1)^0,f,c
  4922  0014B6  3228               	rrcf	??___fldiv^0,f,c
  4923  0014B8  C028  F020         	movff	??___fldiv,___fldiv@b
  4924  0014BC  C029  F021         	movff	??___fldiv+1,___fldiv@b+1
  4925  0014C0  C02A  F022         	movff	??___fldiv+2,___fldiv@b+2
  4926  0014C4  C02B  F023         	movff	??___fldiv+3,___fldiv@b+3
  4927  0014C8  4A31               	infsnz	___fldiv@new_exp^0,f,c
  4928  0014CA  2A32               	incf	(___fldiv@new_exp+1)^0,f,c
  4929  0014CC                     l2617:
  4930  0014CC  BE32               	btfsc	(___fldiv@new_exp+1)^0,7,c
  4931  0014CE  EF71  F00A         	goto	u2631
  4932  0014D2  5032               	movf	(___fldiv@new_exp+1)^0,w,c
  4933  0014D4  E108               	bnz	u2630
  4934  0014D6  2831               	incf	___fldiv@new_exp^0,w,c
  4935  0014D8  A0D8               	btfss	status,0,c
  4936  0014DA  EF71  F00A         	goto	u2631
  4937  0014DE  EF73  F00A         	goto	u2630
  4938  0014E2                     u2631:
  4939  0014E2  EF7E  F00A         	goto	l2621
  4940  0014E6                     u2630:
  4941  0014E6  0E00               	movlw	0
  4942  0014E8  6E32               	movwf	(___fldiv@new_exp+1)^0,c
  4943  0014EA  6831               	setf	___fldiv@new_exp^0,c
  4944  0014EC  0E00               	movlw	0
  4945  0014EE  6E20               	movwf	___fldiv@b^0,c
  4946  0014F0  0E00               	movlw	0
  4947  0014F2  6E21               	movwf	(___fldiv@b+1)^0,c
  4948  0014F4  0E00               	movlw	0
  4949  0014F6  6E22               	movwf	(___fldiv@b+2)^0,c
  4950  0014F8  0E00               	movlw	0
  4951  0014FA  6E23               	movwf	(___fldiv@b+3)^0,c
  4952  0014FC                     l2621:
  4953  0014FC  BE32               	btfsc	(___fldiv@new_exp+1)^0,7,c
  4954  0014FE  EF8B  F00A         	goto	u2640
  4955  001502  5032               	movf	(___fldiv@new_exp+1)^0,w,c
  4956  001504  E106               	bnz	u2641
  4957  001506  0431               	decf	___fldiv@new_exp^0,w,c
  4958  001508  B0D8               	btfsc	status,0,c
  4959  00150A  EF89  F00A         	goto	u2641
  4960  00150E  EF8B  F00A         	goto	u2640
  4961  001512                     u2641:
  4962  001512  EF99  F00A         	goto	l2625
  4963  001516                     u2640:
  4964  001516  0E00               	movlw	0
  4965  001518  6E32               	movwf	(___fldiv@new_exp+1)^0,c
  4966  00151A  0E00               	movlw	0
  4967  00151C  6E31               	movwf	___fldiv@new_exp^0,c
  4968  00151E  0E00               	movlw	0
  4969  001520  6E20               	movwf	___fldiv@b^0,c
  4970  001522  0E00               	movlw	0
  4971  001524  6E21               	movwf	(___fldiv@b+1)^0,c
  4972  001526  0E00               	movlw	0
  4973  001528  6E22               	movwf	(___fldiv@b+2)^0,c
  4974  00152A  0E00               	movlw	0
  4975  00152C  6E23               	movwf	(___fldiv@b+3)^0,c
  4976  00152E  0E00               	movlw	0
  4977  001530  6E30               	movwf	___fldiv@sign^0,c
  4978  001532                     l2625:
  4979  001532  C031  F037         	movff	___fldiv@new_exp,___fldiv@bexp
  4980  001536  A037               	btfss	___fldiv@bexp^0,0,c
  4981  001538  EFA0  F00A         	goto	u2651
  4982  00153C  EFA2  F00A         	goto	u2650
  4983  001540                     u2651:
  4984  001540  EFA5  F00A         	goto	l2631
  4985  001544                     u2650:
  4986  001544  8E22               	bsf	(___fldiv@b+2)^0,7,c
  4987  001546  EFA6  F00A         	goto	l2633
  4988  00154A                     l2631:
  4989  00154A  9E22               	bcf	(___fldiv@b+2)^0,7,c
  4990  00154C                     l2633:
  4991  00154C  90D8               	bcf	status,0,c
  4992  00154E  3037               	rrcf	___fldiv@bexp^0,w,c
  4993  001550  6E23               	movwf	(___fldiv@b+3)^0,c
  4994  001552  EF5C  F009         	goto	l2547
  4995  001556                     l904:
  4996  001556  0012               	return		;funcret
  4997  001558                     __end_of___fldiv:
  4998                           	opt callstack 0
  4999                           
  5000 ;; *************** function _I2C_Get_Status *****************
  5001 ;; Defined at:
  5002 ;;		line 255 in file "I2C.c"
  5003 ;; Parameters:    Size  Location     Type
  5004 ;;  MsgID           1    wreg     unsigned char 
  5005 ;; Auto vars:     Size  Location     Type
  5006 ;;  MsgID           1   20[COMRAM] unsigned char 
  5007 ;;  i               1   21[COMRAM] unsigned char 
  5008 ;; Return value:  Size  Location     Type
  5009 ;;                  2   17[COMRAM] int 
  5010 ;; Registers used:
  5011 ;;		wreg, fsr2l, fsr2h, status,2, status,0
  5012 ;; Tracked objects:
  5013 ;;		On entry : 0/0
  5014 ;;		On exit  : 0/0
  5015 ;;		Unchanged: 0/0
  5016 ;; Data sizes:     COMRAM   BANK0   BANK1   BANK2   BANK3   BANK4   BANK5
  5017 ;;      Params:         2       0       0       0       0       0       0
  5018 ;;      Locals:         2       0       0       0       0       0       0
  5019 ;;      Temps:          1       0       0       0       0       0       0
  5020 ;;      Totals:         5       0       0       0       0       0       0
  5021 ;;Total ram usage:        5 bytes
  5022 ;; Hardware stack levels used:    1
  5023 ;; Hardware stack levels required when called:    3
  5024 ;; This function calls:
  5025 ;;		Nothing
  5026 ;; This function is called by:
  5027 ;;		_main
  5028 ;; This function uses a non-reentrant model
  5029 ;;
  5030                           
  5031                           	psect	text17
  5032  0021AA                     __ptext17:
  5033                           	opt callstack 0
  5034  0021AA                     _I2C_Get_Status:
  5035                           	opt callstack 27
  5036                           
  5037                           ;incstack = 0
  5038                           ;I2C_Get_Status@MsgID stored from wreg
  5039  0021AA  6E15               	movwf	I2C_Get_Status@MsgID^0,c
  5040  0021AC                     
  5041                           ;I2C.c: 255: int I2C_Get_Status(u8 MsgID);I2C.c: 256: {;I2C.c: 257:     u8 i;;I2C.c: 258
      +                          :     if(I2CConfig.Status != 1)
  5042  0021AC  0101               	movlb	1	; () banked
  5043  0021AE  0586               	decf	(_I2CConfig+134)& (0+255),w,b
  5044  0021B0  B4D8               	btfsc	status,2,c
  5045  0021B2  EFDD  F010         	goto	u3681
  5046  0021B6  EFDF  F010         	goto	u3680
  5047  0021BA                     u3681:
  5048  0021BA  EFE3  F010         	goto	l3295
  5049  0021BE                     u3680:
  5050  0021BE                     
  5051                           ; BSR set to: 1
  5052                           ;I2C.c: 259:         return (-1);
  5053  0021BE  6812               	setf	?_I2C_Get_Status^0,c
  5054  0021C0  6813               	setf	(?_I2C_Get_Status+1)^0,c
  5055  0021C2  EF0A  F011         	goto	l212
  5056  0021C6                     l3295:
  5057                           
  5058                           ; BSR set to: 1
  5059                           ;I2C.c: 260:     for(i = 0; i<I2CConfig.BufferNbr ; i++)
  5060  0021C6  0E00               	movlw	0
  5061  0021C8  6E16               	movwf	I2C_Get_Status@i^0,c
  5062  0021CA  EFFD  F010         	goto	l3305
  5063  0021CE                     l3297:
  5064                           
  5065                           ; BSR set to: 1
  5066                           ;I2C.c: 261:     {;I2C.c: 262:         if(I2CConfig.MsgID[i] == MsgID)
  5067  0021CE  0E79               	movlw	low (_I2CConfig+121)
  5068  0021D0  2416               	addwf	I2C_Get_Status@i^0,w,c
  5069  0021D2  6ED9               	movwf	fsr2l,c
  5070  0021D4  6ADA               	clrf	fsr2h,c
  5071  0021D6  0E01               	movlw	high (_I2CConfig+121)
  5072  0021D8  22DA               	addwfc	fsr2h,f,c
  5073  0021DA  5015               	movf	I2C_Get_Status@MsgID^0,w,c
  5074  0021DC  18DE               	xorwf	postinc2,w,c
  5075  0021DE  A4D8               	btfss	status,2,c
  5076  0021E0  EFF4  F010         	goto	u3691
  5077  0021E4  EFF6  F010         	goto	u3690
  5078  0021E8                     u3691:
  5079  0021E8  EFFC  F010         	goto	l3303
  5080  0021EC                     u3690:
  5081  0021EC                     
  5082                           ; BSR set to: 1
  5083                           ;I2C.c: 263:             return 0;
  5084  0021EC  0E00               	movlw	0
  5085  0021EE  6E13               	movwf	(?_I2C_Get_Status+1)^0,c
  5086  0021F0  0E00               	movlw	0
  5087  0021F2  6E12               	movwf	?_I2C_Get_Status^0,c
  5088  0021F4  EF0A  F011         	goto	l212
  5089  0021F8                     l3303:
  5090                           
  5091                           ; BSR set to: 1
  5092                           ;I2C.c: 264:     }
  5093  0021F8  2A16               	incf	I2C_Get_Status@i^0,f,c
  5094  0021FA                     l3305:
  5095                           
  5096                           ; BSR set to: 1
  5097  0021FA  5184               	movf	(_I2CConfig+132)& (0+255),w,b
  5098  0021FC  5C16               	subwf	I2C_Get_Status@i^0,w,c
  5099  0021FE  A0D8               	btfss	status,0,c
  5100  002200  EF04  F011         	goto	u3701
  5101  002204  EF06  F011         	goto	u3700
  5102  002208                     u3701:
  5103  002208  EFE7  F010         	goto	l3297
  5104  00220C                     u3700:
  5105  00220C                     
  5106                           ; BSR set to: 1
  5107                           ;I2C.c: 265:     return 1;
  5108  00220C  0E00               	movlw	0
  5109  00220E  6E13               	movwf	(?_I2C_Get_Status+1)^0,c
  5110  002210  0E01               	movlw	1
  5111  002212  6E12               	movwf	?_I2C_Get_Status^0,c
  5112  002214                     l212:
  5113                           
  5114                           ; BSR set to: 1
  5115  002214  0012               	return		;funcret
  5116  002216                     __end_of_I2C_Get_Status:
  5117                           	opt callstack 0
  5118                           
  5119 ;; *************** function _ISR_Routine *****************
  5120 ;; Defined at:
  5121 ;;		line 40 in file "interrupt.c"
  5122 ;; Parameters:    Size  Location     Type
  5123 ;;		None
  5124 ;; Auto vars:     Size  Location     Type
  5125 ;;		None
  5126 ;; Return value:  Size  Location     Type
  5127 ;;                  1    wreg      void 
  5128 ;; Registers used:
  5129 ;;		wreg, fsr1l, fsr1h, fsr2l, fsr2h, status,2, status,0, pclath, tosl, prodl, prodh, cstack
  5130 ;; Tracked objects:
  5131 ;;		On entry : 0/0
  5132 ;;		On exit  : 0/0
  5133 ;;		Unchanged: 0/0
  5134 ;; Data sizes:     COMRAM   BANK0   BANK1   BANK2   BANK3   BANK4   BANK5
  5135 ;;      Params:         0       0       0       0       0       0       0
  5136 ;;      Locals:         0       0       0       0       0       0       0
  5137 ;;      Temps:          8       0       0       0       0       0       0
  5138 ;;      Totals:         8       0       0       0       0       0       0
  5139 ;;Total ram usage:        8 bytes
  5140 ;; Hardware stack levels used:    1
  5141 ;; Hardware stack levels required when called:    2
  5142 ;; This function calls:
  5143 ;;		_ISR_Tasks
  5144 ;; This function is called by:
  5145 ;;		Interrupt level 2
  5146 ;; This function uses a non-reentrant model
  5147 ;;
  5148                           
  5149                           	psect	intcode
  5150  000008                     __pintcode:
  5151                           	opt callstack 0
  5152  000008                     _ISR_Routine:
  5153                           	opt callstack 24
  5154                           
  5155                           ; BSR set to: 1
  5156                           ;incstack = 0
  5157  000008  824E               	bsf	int$flags,1,c	;set compiler interrupt flag (level 2)
  5158  00000A  CFFA F00A          	movff	pclath,??_ISR_Routine
  5159  00000E  CFFB F00B          	movff	pclatu,??_ISR_Routine+1
  5160  000012  CFE1 F00C          	movff	fsr1l,??_ISR_Routine+2
  5161  000016  CFE2 F00D          	movff	fsr1h,??_ISR_Routine+3
  5162  00001A  CFD9 F00E          	movff	fsr2l,??_ISR_Routine+4
  5163  00001E  CFDA F00F          	movff	fsr2h,??_ISR_Routine+5
  5164  000022  CFF3 F010          	movff	prodl,??_ISR_Routine+6
  5165  000026  CFF4 F011          	movff	prodh,??_ISR_Routine+7
  5166  00002A                     
  5167                           ;interrupt.c: 42:     ISR_Tasks();
  5168  00002A  EC34  F011         	call	_ISR_Tasks	;wreg free
  5169  00002E  C011  FFF4         	movff	??_ISR_Routine+7,prodh
  5170  000032  C010  FFF3         	movff	??_ISR_Routine+6,prodl
  5171  000036  C00F  FFDA         	movff	??_ISR_Routine+5,fsr2h
  5172  00003A  C00E  FFD9         	movff	??_ISR_Routine+4,fsr2l
  5173  00003E  C00D  FFE2         	movff	??_ISR_Routine+3,fsr1h
  5174  000042  C00C  FFE1         	movff	??_ISR_Routine+2,fsr1l
  5175  000046  C00B  FFFB         	movff	??_ISR_Routine+1,pclatu
  5176  00004A  C00A  FFFA         	movff	??_ISR_Routine,pclath
  5177  00004E  924E               	bcf	int$flags,1,c	;clear compiler interrupt flag (level 2)
  5178  000050  0011               	retfie		f
  5179  000052                     __end_of_ISR_Routine:
  5180                           	opt callstack 0
  5181                           
  5182 ;; *************** function _ISR_Tasks *****************
  5183 ;; Defined at:
  5184 ;;		line 103 in file "interrupt.c"
  5185 ;; Parameters:    Size  Location     Type
  5186 ;;		None
  5187 ;; Auto vars:     Size  Location     Type
  5188 ;;  i               1    8[COMRAM] unsigned char 
  5189 ;; Return value:  Size  Location     Type
  5190 ;;                  1    wreg      void 
  5191 ;; Registers used:
  5192 ;;		wreg, fsr1l, fsr1h, fsr2l, fsr2h, status,2, status,0, pclath, tosl, prodl, prodh, cstack
  5193 ;; Tracked objects:
  5194 ;;		On entry : 0/0
  5195 ;;		On exit  : 0/0
  5196 ;;		Unchanged: 0/0
  5197 ;; Data sizes:     COMRAM   BANK0   BANK1   BANK2   BANK3   BANK4   BANK5
  5198 ;;      Params:         0       0       0       0       0       0       0
  5199 ;;      Locals:         1       0       0       0       0       0       0
  5200 ;;      Temps:          0       0       0       0       0       0       0
  5201 ;;      Totals:         1       0       0       0       0       0       0
  5202 ;;Total ram usage:        1 bytes
  5203 ;; Hardware stack levels used:    1
  5204 ;; Hardware stack levels required when called:    1
  5205 ;; This function calls:
  5206 ;;		_I2C_ISR
  5207 ;; This function is called by:
  5208 ;;		_ISR_Routine
  5209 ;; This function uses a non-reentrant model
  5210 ;;
  5211                           
  5212                           	psect	text19
  5213  002268                     __ptext19:
  5214                           	opt callstack 0
  5215  002268                     _ISR_Tasks:
  5216                           	opt callstack 24
  5217  002268                     
  5218                           ;interrupt.c: 105:     u8 i;;interrupt.c: 106:     for(i=0;i<ISRConfig.ISRnbr;i++)
  5219  002268  0E00               	movlw	0
  5220  00226A  6E09               	movwf	ISR_Tasks@i^0,c
  5221  00226C  EF4E  F011         	goto	i2l3167
  5222  002270                     i2l3163:
  5223                           
  5224                           ; BSR set to: 0
  5225                           ;interrupt.c: 107:         ISRConfig.FunctTab[i]();
  5226  002270  5009               	movf	ISR_Tasks@i^0,w,c
  5227  002272  0D02               	mullw	2
  5228  002274  0E96               	movlw	low (_ISRConfig+1)
  5229  002276  24F3               	addwf	243,w,c
  5230  002278  6ED9               	movwf	fsr2l,c
  5231  00227A  0E00               	movlw	high (_ISRConfig+1)
  5232  00227C  20F4               	addwfc	prodh,w,c
  5233  00227E  6EDA               	movwf	fsr2h,c
  5234  002280  D802               	call	i2u358_48
  5235  002282  EF4D  F011         	goto	i2u358_49
  5236  002286                     i2u358_48:
  5237  002286  0005               	push	
  5238  002288  6EFA               	movwf	pclath,c
  5239  00228A  50DE               	movf	postinc2,w,c
  5240  00228C  6EFD               	movwf	tosl,c
  5241  00228E  50DE               	movf	postinc2,w,c
  5242  002290  6EFE               	movwf	tosh,c
  5243  002292  50F8               	movf	tblptru,w,c
  5244  002294  6EFF               	movwf	tosu,c
  5245  002296  50FA               	movf	pclath,w,c
  5246  002298  0012               	return		;indir
  5247  00229A                     i2u358_49:
  5248  00229A  2A09               	incf	ISR_Tasks@i^0,f,c
  5249  00229C                     i2l3167:
  5250  00229C  0100               	movlb	0	; () banked
  5251  00229E  5195               	movf	_ISRConfig& (0+255),w,b
  5252  0022A0  5C09               	subwf	ISR_Tasks@i^0,w,c
  5253  0022A2  A0D8               	btfss	status,0,c
  5254  0022A4  EF56  F011         	goto	i2u359_41
  5255  0022A8  EF58  F011         	goto	i2u359_40
  5256  0022AC                     i2u359_41:
  5257  0022AC  EF38  F011         	goto	i2l3163
  5258  0022B0                     i2u359_40:
  5259  0022B0                     
  5260                           ; BSR set to: 0
  5261  0022B0  0012               	return		;funcret
  5262  0022B2                     __end_of_ISR_Tasks:
  5263                           	opt callstack 0
  5264                           
  5265 ;; *************** function _I2C_ISR *****************
  5266 ;; Defined at:
  5267 ;;		line 8 in file "I2C.c"
  5268 ;; Parameters:    Size  Location     Type
  5269 ;;		None
  5270 ;; Auto vars:     Size  Location     Type
  5271 ;;  type            1    7[COMRAM] unsigned char 
  5272 ;; Return value:  Size  Location     Type
  5273 ;;                  1    wreg      void 
  5274 ;; Registers used:
  5275 ;;		wreg, fsr1l, fsr1h, fsr2l, fsr2h, status,2, status,0, prodl, prodh
  5276 ;; Tracked objects:
  5277 ;;		On entry : 0/0
  5278 ;;		On exit  : 0/0
  5279 ;;		Unchanged: 0/0
  5280 ;; Data sizes:     COMRAM   BANK0   BANK1   BANK2   BANK3   BANK4   BANK5
  5281 ;;      Params:         0       0       0       0       0       0       0
  5282 ;;      Locals:         1       0       0       0       0       0       0
  5283 ;;      Temps:          7       0       0       0       0       0       0
  5284 ;;      Totals:         8       0       0       0       0       0       0
  5285 ;;Total ram usage:        8 bytes
  5286 ;; Hardware stack levels used:    1
  5287 ;; This function calls:
  5288 ;;		Nothing
  5289 ;; This function is called by:
  5290 ;;		_main
  5291 ;;		_ISR_Tasks
  5292 ;; This function uses a non-reentrant model
  5293 ;;
  5294                           
  5295                           	psect	text20
  5296  000056                     __ptext20:
  5297                           	opt callstack 0
  5298  000056                     _I2C_ISR:
  5299                           	opt callstack 24
  5300  000056                     
  5301                           ;I2C.c: 10:     static u8 i = 0;;I2C.c: 11:     static u8 test = 0;;I2C.c: 12:     stati
      +                          c u8 ack = 0;;I2C.c: 13:     u8 type;;I2C.c: 15:     if((SSP1IF == 1) || ((TMR2IF == 1) 
      +                          && ((I2CConfig.State == DELAY_DA) || (I2CConfig.State == DELAY_INTER))))
  5302  000056  B69E               	btfsc	3998,3,c	;volatile
  5303  000058  EF30  F000         	goto	i2u307_41
  5304  00005C  EF32  F000         	goto	i2u307_40
  5305  000060                     i2u307_41:
  5306  000060  EF4E  F002         	goto	i2l3065
  5307  000064                     i2u307_40:
  5308  000064  A29E               	btfss	3998,1,c	;volatile
  5309  000066  EF37  F000         	goto	i2u308_41
  5310  00006A  EF39  F000         	goto	i2u308_40
  5311  00006E                     i2u308_41:
  5312  00006E  EF81  F002         	goto	i2l138
  5313  000072                     i2u308_40:
  5314  000072  0E0E               	movlw	14
  5315  000074  0101               	movlb	1	; () banked
  5316  000076  1900               	xorwf	_I2CConfig& (0+255),w,b
  5317  000078  B4D8               	btfsc	status,2,c
  5318  00007A  EF41  F000         	goto	i2u309_41
  5319  00007E  EF43  F000         	goto	i2u309_40
  5320  000082                     i2u309_41:
  5321  000082  EF4E  F000         	goto	i2l143
  5322  000086                     i2u309_40:
  5323  000086                     
  5324                           ; BSR set to: 1
  5325  000086  0E0D               	movlw	13
  5326  000088  1900               	xorwf	_I2CConfig& (0+255),w,b
  5327  00008A  A4D8               	btfss	status,2,c
  5328  00008C  EF4A  F000         	goto	i2u310_41
  5329  000090  EF4C  F000         	goto	i2u310_40
  5330  000094                     i2u310_41:
  5331  000094  EF81  F002         	goto	i2l138
  5332  000098                     i2u310_40:
  5333  000098  EF4E  F002         	goto	i2l3065
  5334  00009C                     i2l143:
  5335                           
  5336                           ; BSR set to: 1
  5337                           ;I2C.c: 18:         switch(I2CConfig.State)
  5338  00009C  EF4E  F002         	goto	i2l3065
  5339  0000A0                     i2l2897:
  5340                           
  5341                           ; BSR set to: 1
  5342                           ;I2C.c: 22:                 i = 0;
  5343  0000A0  0E00               	movlw	0
  5344  0000A2  6E4C               	movwf	I2C_ISR@i^0,c
  5345                           
  5346                           ;I2C.c: 23:                 ack = 0;
  5347  0000A4  0E00               	movlw	0
  5348  0000A6  6E4A               	movwf	I2C_ISR@ack^0,c
  5349                           
  5350                           ;I2C.c: 24:                 if(I2CConfig.Buffer[0].delay > 0)
  5351  0000A8  5106               	movf	(_I2CConfig+6)& (0+255),w,b
  5352  0000AA  B4D8               	btfsc	status,2,c
  5353  0000AC  EF5A  F000         	goto	i2u311_41
  5354  0000B0  EF5C  F000         	goto	i2u311_40
  5355  0000B4                     i2u311_41:
  5356  0000B4  EF63  F000         	goto	i2l2903
  5357  0000B8                     i2u311_40:
  5358  0000B8                     
  5359                           ; BSR set to: 1
  5360                           ;I2C.c: 25:                 {;I2C.c: 26:                     timer = I2CConfig.Buffer[0]
      +                          .delay;
  5361  0000B8  C106  F046         	movff	_I2CConfig+6,_timer
  5362  0000BC  6A47               	clrf	(_timer+1)^0,c
  5363  0000BE                     
  5364                           ; BSR set to: 1
  5365                           ;I2C.c: 27:                     I2CConfig.State = DELAY_DA;
  5366  0000BE  0E0E               	movlw	14
  5367  0000C0  6F00               	movwf	_I2CConfig& (0+255),b
  5368                           
  5369                           ;I2C.c: 28:                 }
  5370  0000C2  EF69  F000         	goto	i2l2905
  5371  0000C6                     i2l2903:
  5372                           
  5373                           ; BSR set to: 1
  5374                           ;I2C.c: 30:                 {;I2C.c: 31:                     timer = 10;
  5375  0000C6  0E00               	movlw	0
  5376  0000C8  6E47               	movwf	(_timer+1)^0,c
  5377  0000CA  0E0A               	movlw	10
  5378  0000CC  6E46               	movwf	_timer^0,c
  5379                           
  5380                           ;I2C.c: 32:                     I2CConfig.State = DELAY_TIMEOUT;
  5381  0000CE  0E0C               	movlw	12
  5382  0000D0  6F00               	movwf	_I2CConfig& (0+255),b
  5383  0000D2                     i2l2905:
  5384                           
  5385                           ; BSR set to: 1
  5386                           ;I2C.c: 35:                 SSP1BUF = I2CConfig.Buffer[0].adress;
  5387  0000D2  C102  FFC9         	movff	_I2CConfig+2,4041	;volatile
  5388                           
  5389                           ;I2C.c: 36:                 break;
  5390  0000D6  EF80  F002         	goto	i2l148
  5391  0000DA                     i2l149:
  5392                           
  5393                           ; BSR set to: 1
  5394                           ;I2C.c: 38:                 if(SSP1CON2bits.ACKSTAT==0)
  5395  0000DA  BCC5               	btfsc	197,6,c	;volatile
  5396  0000DC  EF72  F000         	goto	i2u312_41
  5397  0000E0  EF74  F000         	goto	i2u312_40
  5398  0000E4                     i2u312_41:
  5399  0000E4  EFB2  F000         	goto	i2l2933
  5400  0000E8                     i2u312_40:
  5401  0000E8                     
  5402                           ; BSR set to: 1
  5403                           ;I2C.c: 39:                 {;I2C.c: 40:                     if(I2CConfig.Buffer[0].size
      +                          Data > 1)
  5404  0000E8  0E01               	movlw	1
  5405  0000EA  6505               	cpfsgt	(_I2CConfig+5)& (0+255),b
  5406  0000EC  EF7A  F000         	goto	i2u313_41
  5407  0000F0  EF7C  F000         	goto	i2u313_40
  5408  0000F4                     i2u313_41:
  5409  0000F4  EF97  F000         	goto	i2l2921
  5410  0000F8                     i2u313_40:
  5411  0000F8                     
  5412                           ; BSR set to: 1
  5413                           ;I2C.c: 41:                     {;I2C.c: 42:                         SSP1BUF = I2CConfig
      +                          .Buffer[0].data[i];
  5414  0000F8  504C               	movf	I2C_ISR@i^0,w,c
  5415  0000FA  2503               	addwf	(_I2CConfig+3)& (0+255),w,b
  5416  0000FC  6ED9               	movwf	fsr2l,c
  5417  0000FE  0E00               	movlw	0
  5418  000100  2104               	addwfc	(_I2CConfig+4)& (0+255),w,b
  5419  000102  6EDA               	movwf	fsr2h,c
  5420  000104  50DF               	movf	indf2,w,c
  5421  000106  6EC9               	movwf	201,c	;volatile
  5422  000108                     
  5423                           ; BSR set to: 1
  5424                           ;I2C.c: 43:                         i++;
  5425  000108  2A4C               	incf	I2C_ISR@i^0,f,c
  5426  00010A                     
  5427                           ; BSR set to: 1
  5428                           ;I2C.c: 44:                         I2CConfig.Buffer[0].sizeData--;
  5429  00010A  0705               	decf	(_I2CConfig+5)& (0+255),f,b
  5430  00010C                     
  5431                           ; BSR set to: 1
  5432                           ;I2C.c: 45:                         if(I2CConfig.Buffer[0].delay > 0)
  5433  00010C  5106               	movf	(_I2CConfig+6)& (0+255),w,b
  5434  00010E  B4D8               	btfsc	status,2,c
  5435  000110  EF8C  F000         	goto	i2u314_41
  5436  000114  EF8E  F000         	goto	i2u314_40
  5437  000118                     i2u314_41:
  5438  000118  EF80  F002         	goto	i2l148
  5439  00011C                     i2u314_40:
  5440  00011C                     
  5441                           ; BSR set to: 1
  5442                           ;I2C.c: 46:                         {;I2C.c: 47:                             ack = 0;
  5443  00011C  0E00               	movlw	0
  5444  00011E  6E4A               	movwf	I2C_ISR@ack^0,c
  5445                           
  5446                           ;I2C.c: 48:                             I2CConfig.State = DELAY_DA;
  5447  000120  0E0E               	movlw	14
  5448  000122  6F00               	movwf	_I2CConfig& (0+255),b
  5449  000124                     i2l2919:
  5450                           
  5451                           ; BSR set to: 1
  5452                           ;I2C.c: 49:                             timer = I2CConfig.Buffer[0].delay;
  5453  000124  C106  F046         	movff	_I2CConfig+6,_timer
  5454  000128  6A47               	clrf	(_timer+1)^0,c
  5455  00012A  EF80  F002         	goto	i2l148
  5456  00012E                     i2l2921:
  5457                           
  5458                           ; BSR set to: 1
  5459                           ;I2C.c: 53:                     {;I2C.c: 54:                         SSP1BUF = I2CConfig
      +                          .Buffer[0].data[i];
  5460  00012E  504C               	movf	I2C_ISR@i^0,w,c
  5461  000130  2503               	addwf	(_I2CConfig+3)& (0+255),w,b
  5462  000132  6ED9               	movwf	fsr2l,c
  5463  000134  0E00               	movlw	0
  5464  000136  2104               	addwfc	(_I2CConfig+4)& (0+255),w,b
  5465  000138  6EDA               	movwf	fsr2h,c
  5466  00013A  50DF               	movf	indf2,w,c
  5467  00013C  6EC9               	movwf	201,c	;volatile
  5468  00013E                     
  5469                           ; BSR set to: 1
  5470                           ;I2C.c: 55:                         i++;
  5471  00013E  2A4C               	incf	I2C_ISR@i^0,f,c
  5472  000140                     
  5473                           ; BSR set to: 1
  5474                           ;I2C.c: 56:                         I2CConfig.Buffer[0].sizeData--;
  5475  000140  0705               	decf	(_I2CConfig+5)& (0+255),f,b
  5476  000142                     
  5477                           ; BSR set to: 1
  5478                           ;I2C.c: 57:                         if(I2CConfig.Buffer[0].type == I2C_MASTER_WRITE_WITH
      +                          _RESTART)
  5479  000142  0E02               	movlw	2
  5480  000144  1901               	xorwf	(_I2CConfig+1)& (0+255),w,b
  5481  000146  A4D8               	btfss	status,2,c
  5482  000148  EFA8  F000         	goto	i2u315_41
  5483  00014C  EFAA  F000         	goto	i2u315_40
  5484  000150                     i2u315_41:
  5485  000150  EFAE  F000         	goto	i2l2931
  5486  000154                     i2u315_40:
  5487  000154                     i2l2929:
  5488                           
  5489                           ; BSR set to: 1
  5490                           ;I2C.c: 58:                         {;I2C.c: 59:                             I2CConfig.S
      +                          tate = MASTER_STOP;
  5491  000154  0E08               	movlw	8
  5492  000156  6F00               	movwf	_I2CConfig& (0+255),b
  5493                           
  5494                           ;I2C.c: 60:                         }
  5495  000158  EF80  F002         	goto	i2l148
  5496  00015C                     i2l2931:
  5497                           
  5498                           ; BSR set to: 1
  5499                           ;I2C.c: 62:                             I2CConfig.State = MASTER_ACK_DA;
  5500  00015C  0E04               	movlw	4
  5501  00015E  6F00               	movwf	_I2CConfig& (0+255),b
  5502  000160  EF80  F002         	goto	i2l148
  5503  000164                     i2l2933:
  5504                           
  5505                           ; BSR set to: 1
  5506                           ;I2C.c: 68:                 {;I2C.c: 69:                     ack = 0;
  5507  000164  0E00               	movlw	0
  5508  000166  6E4A               	movwf	I2C_ISR@ack^0,c
  5509  000168                     
  5510                           ; BSR set to: 1
  5511                           ;I2C.c: 70:                     SSP1CON2bits.PEN = 1;
  5512  000168  84C5               	bsf	197,2,c	;volatile
  5513                           
  5514                           ;I2C.c: 71:                     if(I2CConfig.Buffer[0].delay > 0)
  5515  00016A  5106               	movf	(_I2CConfig+6)& (0+255),w,b
  5516  00016C  B4D8               	btfsc	status,2,c
  5517  00016E  EFBB  F000         	goto	i2u316_41
  5518  000172  EFBD  F000         	goto	i2u316_40
  5519  000176                     i2u316_41:
  5520  000176  EFAA  F000         	goto	i2l2929
  5521  00017A                     i2u316_40:
  5522  00017A                     i2l2937:
  5523                           
  5524                           ; BSR set to: 1
  5525                           ;I2C.c: 72:                     {;I2C.c: 73:                         I2CConfig.State = D
      +                          ELAY_INTER;
  5526  00017A  0E0D               	movlw	13
  5527  00017C  6F00               	movwf	_I2CConfig& (0+255),b
  5528  00017E  EF92  F000         	goto	i2l2919
  5529  000182                     i2l159:
  5530                           
  5531                           ; BSR set to: 1
  5532                           ;I2C.c: 83:                 SSP1CON2bits.RCEN = 1;
  5533  000182  86C5               	bsf	197,3,c	;volatile
  5534  000184                     
  5535                           ; BSR set to: 1
  5536                           ;I2C.c: 84:                 I2CConfig.State = MASTER_READ_NOACK;
  5537  000184  0E06               	movlw	6
  5538  000186  6F00               	movwf	_I2CConfig& (0+255),b
  5539                           
  5540                           ;I2C.c: 85:                 break;
  5541  000188  EF80  F002         	goto	i2l148
  5542  00018C                     i2l2945:
  5543                           
  5544                           ; BSR set to: 1
  5545                           ;I2C.c: 87:                 if(i < (I2CConfig.Buffer[0].sizeData - 1))
  5546  00018C  0EFF               	movlw	255
  5547  00018E  6E01               	movwf	??_I2C_ISR^0,c
  5548  000190  0EFF               	movlw	255
  5549  000192  6E02               	movwf	(??_I2C_ISR+1)^0,c
  5550  000194  5105               	movf	(_I2CConfig+5)& (0+255),w,b
  5551  000196  6E03               	movwf	(??_I2C_ISR+2)^0,c
  5552  000198  6A04               	clrf	(??_I2C_ISR+3)^0,c
  5553  00019A  5001               	movf	??_I2C_ISR^0,w,c
  5554  00019C  2603               	addwf	(??_I2C_ISR+2)^0,f,c
  5555  00019E  5002               	movf	(??_I2C_ISR+1)^0,w,c
  5556  0001A0  2204               	addwfc	(??_I2C_ISR+3)^0,f,c
  5557  0001A2  504C               	movf	I2C_ISR@i^0,w,c
  5558  0001A4  6E05               	movwf	(??_I2C_ISR+4)^0,c
  5559  0001A6  6A06               	clrf	(??_I2C_ISR+5)^0,c
  5560  0001A8  5003               	movf	(??_I2C_ISR+2)^0,w,c
  5561  0001AA  5C05               	subwf	(??_I2C_ISR+4)^0,w,c
  5562  0001AC  5006               	movf	(??_I2C_ISR+5)^0,w,c
  5563  0001AE  0A80               	xorlw	128
  5564  0001B0  6E07               	movwf	(??_I2C_ISR+6)^0,c
  5565  0001B2  5004               	movf	(??_I2C_ISR+3)^0,w,c
  5566  0001B4  0A80               	xorlw	128
  5567  0001B6  5807               	subwfb	(??_I2C_ISR+6)^0,w,c
  5568  0001B8  B0D8               	btfsc	status,0,c
  5569  0001BA  EFE1  F000         	goto	i2u317_41
  5570  0001BE  EFE3  F000         	goto	i2u317_40
  5571  0001C2                     i2u317_41:
  5572  0001C2  EF02  F001         	goto	i2l161
  5573  0001C6                     i2u317_40:
  5574  0001C6                     
  5575                           ; BSR set to: 1
  5576                           ;I2C.c: 88:                 {;I2C.c: 89:                     SSP1CON2bits.ACKDT = 0;
  5577  0001C6  9AC5               	bcf	197,5,c	;volatile
  5578  0001C8                     
  5579                           ; BSR set to: 1
  5580                           ;I2C.c: 90:                     I2CConfig.Buffer[0].data[i] = SSP1BUF;
  5581  0001C8  504C               	movf	I2C_ISR@i^0,w,c
  5582  0001CA  2503               	addwf	(_I2CConfig+3)& (0+255),w,b
  5583  0001CC  6ED9               	movwf	fsr2l,c
  5584  0001CE  0E00               	movlw	0
  5585  0001D0  2104               	addwfc	(_I2CConfig+4)& (0+255),w,b
  5586  0001D2  6EDA               	movwf	fsr2h,c
  5587  0001D4  CFC9 FFDF          	movff	4041,indf2	;volatile
  5588  0001D8                     
  5589                           ; BSR set to: 1
  5590                           ;I2C.c: 91:                     i++;
  5591  0001D8  2A4C               	incf	I2C_ISR@i^0,f,c
  5592  0001DA                     
  5593                           ; BSR set to: 1
  5594                           ;I2C.c: 92:                     if(I2CConfig.Buffer[0].delay > 0)
  5595  0001DA  5106               	movf	(_I2CConfig+6)& (0+255),w,b
  5596  0001DC  B4D8               	btfsc	status,2,c
  5597  0001DE  EFF3  F000         	goto	i2u318_41
  5598  0001E2  EFF5  F000         	goto	i2u318_40
  5599  0001E6                     i2u318_41:
  5600  0001E6  EFFE  F000         	goto	i2l2959
  5601  0001EA                     i2u318_40:
  5602  0001EA                     
  5603                           ; BSR set to: 1
  5604                           ;I2C.c: 93:                     {;I2C.c: 94:                         ack = 0;
  5605  0001EA  0E00               	movlw	0
  5606  0001EC  6E4A               	movwf	I2C_ISR@ack^0,c
  5607                           
  5608                           ;I2C.c: 95:                         I2CConfig.State = DELAY_DA;
  5609  0001EE  0E0E               	movlw	14
  5610  0001F0  6F00               	movwf	_I2CConfig& (0+255),b
  5611  0001F2                     
  5612                           ; BSR set to: 1
  5613                           ;I2C.c: 96:                         timer = I2CConfig.Buffer[0].delay;
  5614  0001F2  C106  F046         	movff	_I2CConfig+6,_timer
  5615  0001F6  6A47               	clrf	(_timer+1)^0,c
  5616                           
  5617                           ;I2C.c: 97:                     }
  5618  0001F8  EF0E  F001         	goto	i2l2967
  5619  0001FC                     i2l2959:
  5620                           
  5621                           ; BSR set to: 1
  5622                           ;I2C.c: 99:                         I2CConfig.State = MASTER_READ;
  5623  0001FC  0E05               	movlw	5
  5624  0001FE  6F00               	movwf	_I2CConfig& (0+255),b
  5625  000200  EF0E  F001         	goto	i2l2967
  5626  000204                     i2l161:
  5627                           
  5628                           ; BSR set to: 1
  5629                           ;I2C.c: 102:                 {;I2C.c: 103:                     SSP1CON2bits.ACKDT = 1;
  5630  000204  8AC5               	bsf	197,5,c	;volatile
  5631  000206                     
  5632                           ; BSR set to: 1
  5633                           ;I2C.c: 104:                     I2CConfig.Buffer[0].data[i] = SSP1BUF;
  5634  000206  504C               	movf	I2C_ISR@i^0,w,c
  5635  000208  2503               	addwf	(_I2CConfig+3)& (0+255),w,b
  5636  00020A  6ED9               	movwf	fsr2l,c
  5637  00020C  0E00               	movlw	0
  5638  00020E  2104               	addwfc	(_I2CConfig+4)& (0+255),w,b
  5639  000210  6EDA               	movwf	fsr2h,c
  5640  000212  CFC9 FFDF          	movff	4041,indf2	;volatile
  5641  000216                     
  5642                           ; BSR set to: 1
  5643                           ;I2C.c: 105:                     i++;
  5644  000216  2A4C               	incf	I2C_ISR@i^0,f,c
  5645  000218                     
  5646                           ; BSR set to: 1
  5647                           ;I2C.c: 106:                     I2CConfig.State = MASTER_ACK_DA;
  5648  000218  0E04               	movlw	4
  5649  00021A  6F00               	movwf	_I2CConfig& (0+255),b
  5650  00021C                     i2l2967:
  5651                           
  5652                           ; BSR set to: 1
  5653                           ;I2C.c: 108:                 SSP1CON2bits.ACKEN=1;
  5654  00021C  88C5               	bsf	197,4,c	;volatile
  5655                           
  5656                           ;I2C.c: 109:                 break;
  5657  00021E  EF80  F002         	goto	i2l148
  5658  000222                     i2l2969:
  5659                           
  5660                           ; BSR set to: 1
  5661                           ;I2C.c: 111:                 ack = 0;
  5662  000222  0E00               	movlw	0
  5663  000224  6E4A               	movwf	I2C_ISR@ack^0,c
  5664  000226                     
  5665                           ; BSR set to: 1
  5666                           ;I2C.c: 112:                 SSP1CON2bits.PEN = 1;
  5667  000226  84C5               	bsf	197,2,c	;volatile
  5668                           
  5669                           ;I2C.c: 113:                 if(I2CConfig.Buffer[0].delay > 0)
  5670  000228  5106               	movf	(_I2CConfig+6)& (0+255),w,b
  5671  00022A  B4D8               	btfsc	status,2,c
  5672  00022C  EF1A  F001         	goto	i2u319_41
  5673  000230  EF1C  F001         	goto	i2u319_40
  5674  000234                     i2u319_41:
  5675  000234  EFAA  F000         	goto	i2l2929
  5676  000238                     i2u319_40:
  5677  000238  EFBD  F000         	goto	i2l2937
  5678  00023C                     i2l168:
  5679                           
  5680                           ; BSR set to: 1
  5681                           ;I2C.c: 124:                 type = I2CConfig.Buffer[0].type;
  5682  00023C  C101  F008         	movff	_I2CConfig+1,I2C_ISR@type
  5683  000240                     
  5684                           ; BSR set to: 1
  5685                           ;I2C.c: 125:                 if(I2CConfig.Buffer[0].type == I2C_MASTER_READ)
  5686  000240  0501               	decf	(_I2CConfig+1)& (0+255),w,b
  5687  000242  A4D8               	btfss	status,2,c
  5688  000244  EF26  F001         	goto	i2u320_41
  5689  000248  EF28  F001         	goto	i2u320_40
  5690  00024C                     i2u320_41:
  5691  00024C  EF49  F001         	goto	i2l2985
  5692  000250                     i2u320_40:
  5693  000250                     
  5694                           ; BSR set to: 1
  5695                           ;I2C.c: 126:                 {;I2C.c: 127:                     I2CConfig.RcvBuffer[I2CCo
      +                          nfig.RcvBufferNbr].adress = I2CConfig.Buffer[0].adress;
  5696  000250  5185               	movf	(_I2CConfig+133)& (0+255),w,b
  5697  000252  0D06               	mullw	6
  5698  000254  0E3E               	movlw	low (_I2CConfig+62)
  5699  000256  24F3               	addwf	243,w,c
  5700  000258  6ED9               	movwf	fsr2l,c
  5701  00025A  0E01               	movlw	high (_I2CConfig+62)
  5702  00025C  20F4               	addwfc	prodh,w,c
  5703  00025E  6EDA               	movwf	fsr2h,c
  5704  000260  C102  FFDF         	movff	_I2CConfig+2,indf2
  5705                           
  5706                           ;I2C.c: 128:                     I2CConfig.RcvBuffer[I2CConfig.RcvBufferNbr].data = I2CC
      +                          onfig.Buffer[0].data;
  5707  000264  5185               	movf	(_I2CConfig+133)& (0+255),w,b
  5708  000266  0D06               	mullw	6
  5709  000268  0E3F               	movlw	low (_I2CConfig+63)
  5710  00026A  24F3               	addwf	243,w,c
  5711  00026C  6ED9               	movwf	fsr2l,c
  5712  00026E  0E01               	movlw	high (_I2CConfig+63)
  5713  000270  20F4               	addwfc	prodh,w,c
  5714  000272  6EDA               	movwf	fsr2h,c
  5715  000274  C103  FFDE         	movff	_I2CConfig+3,postinc2
  5716  000278  C104  FFDD         	movff	_I2CConfig+4,postdec2
  5717                           
  5718                           ;I2C.c: 129:                     I2CConfig.RcvBuffer[I2CConfig.RcvBufferNbr].sizeData = 
      +                          i;
  5719  00027C  5185               	movf	(_I2CConfig+133)& (0+255),w,b
  5720  00027E  0D06               	mullw	6
  5721  000280  0E41               	movlw	low (_I2CConfig+65)
  5722  000282  24F3               	addwf	243,w,c
  5723  000284  6ED9               	movwf	fsr2l,c
  5724  000286  0E01               	movlw	high (_I2CConfig+65)
  5725  000288  20F4               	addwfc	prodh,w,c
  5726  00028A  6EDA               	movwf	fsr2h,c
  5727  00028C  C04C  FFDF         	movff	I2C_ISR@i,indf2
  5728  000290                     
  5729                           ; BSR set to: 1
  5730                           ;I2C.c: 130:                     I2CConfig.RcvBufferNbr++;
  5731  000290  2B85               	incf	(_I2CConfig+133)& (0+255),f,b
  5732  000292                     i2l2985:
  5733                           
  5734                           ; BSR set to: 1
  5735                           ;I2C.c: 132:                 for(i = 0; i<I2CConfig.BufferNbr ; i++)
  5736  000292  0E00               	movlw	0
  5737  000294  6E4C               	movwf	I2C_ISR@i^0,c
  5738  000296  EF71  F001         	goto	i2l2993
  5739  00029A                     i2l2987:
  5740                           
  5741                           ; BSR set to: 1
  5742                           ;I2C.c: 133:                 {;I2C.c: 134:                     I2CConfig.Buffer[i] = I2C
      +                          Config.Buffer[i+1];
  5743  00029A  504C               	movf	I2C_ISR@i^0,w,c
  5744  00029C  0D06               	mullw	6
  5745  00029E  0E07               	movlw	low (_I2CConfig+7)
  5746  0002A0  24F3               	addwf	243,w,c
  5747  0002A2  6ED9               	movwf	fsr2l,c
  5748  0002A4  0E01               	movlw	high (_I2CConfig+7)
  5749  0002A6  20F4               	addwfc	prodh,w,c
  5750  0002A8  6EDA               	movwf	fsr2h,c
  5751  0002AA  504C               	movf	I2C_ISR@i^0,w,c
  5752  0002AC  0D06               	mullw	6
  5753  0002AE  0E01               	movlw	low (_I2CConfig+1)
  5754  0002B0  24F3               	addwf	243,w,c
  5755  0002B2  6EE1               	movwf	fsr1l,c
  5756  0002B4  0E01               	movlw	high (_I2CConfig+1)
  5757  0002B6  20F4               	addwfc	prodh,w,c
  5758  0002B8  6EE2               	movwf	fsr1h,c
  5759  0002BA  0E05               	movlw	5
  5760  0002BC                     i2u321_41:
  5761  0002BC  CFDB FFE3          	movff	plusw2,plusw1
  5762  0002C0  06E8               	decf	wreg,f,c
  5763  0002C2  E2FC               	bc	i2u321_41
  5764  0002C4                     
  5765                           ; BSR set to: 1
  5766                           ;I2C.c: 135:                     I2CConfig.MsgID[i] = I2CConfig.MsgID[i+1];
  5767  0002C4  0E7A               	movlw	low (_I2CConfig+122)
  5768  0002C6  244C               	addwf	I2C_ISR@i^0,w,c
  5769  0002C8  6ED9               	movwf	fsr2l,c
  5770  0002CA  6ADA               	clrf	fsr2h,c
  5771  0002CC  0E01               	movlw	high (_I2CConfig+122)
  5772  0002CE  22DA               	addwfc	fsr2h,f,c
  5773  0002D0  0E79               	movlw	low (_I2CConfig+121)
  5774  0002D2  244C               	addwf	I2C_ISR@i^0,w,c
  5775  0002D4  6EE1               	movwf	fsr1l,c
  5776  0002D6  6AE2               	clrf	fsr1h,c
  5777  0002D8  0E01               	movlw	high (_I2CConfig+121)
  5778  0002DA  22E2               	addwfc	fsr1h,f,c
  5779  0002DC  CFDF FFE7          	movff	indf2,indf1
  5780  0002E0                     
  5781                           ; BSR set to: 1
  5782                           ;I2C.c: 136:                 }
  5783  0002E0  2A4C               	incf	I2C_ISR@i^0,f,c
  5784  0002E2                     i2l2993:
  5785                           
  5786                           ; BSR set to: 1
  5787  0002E2  5184               	movf	(_I2CConfig+132)& (0+255),w,b
  5788  0002E4  5C4C               	subwf	I2C_ISR@i^0,w,c
  5789  0002E6  A0D8               	btfss	status,0,c
  5790  0002E8  EF78  F001         	goto	i2u322_41
  5791  0002EC  EF7A  F001         	goto	i2u322_40
  5792  0002F0                     i2u322_41:
  5793  0002F0  EF4D  F001         	goto	i2l2987
  5794  0002F4                     i2u322_40:
  5795  0002F4                     
  5796                           ; BSR set to: 1
  5797                           ;I2C.c: 137:                 I2CConfig.BufferNbr--;
  5798  0002F4  0784               	decf	(_I2CConfig+132)& (0+255),f,b
  5799  0002F6                     
  5800                           ; BSR set to: 1
  5801                           ;I2C.c: 138:                 if(I2CConfig.BufferNbr > 0)
  5802  0002F6  5184               	movf	(_I2CConfig+132)& (0+255),w,b
  5803  0002F8  B4D8               	btfsc	status,2,c
  5804  0002FA  EF81  F001         	goto	i2u323_41
  5805  0002FE  EF83  F001         	goto	i2u323_40
  5806  000302                     i2u323_41:
  5807  000302  EF94  F001         	goto	i2l3005
  5808  000306                     i2u323_40:
  5809  000306                     
  5810                           ; BSR set to: 1
  5811                           ;I2C.c: 139:                 {;I2C.c: 140:                     I2CConfig.State = MASTER_
      +                          START;
  5812  000306  0E00               	movlw	0
  5813  000308  6F00               	movwf	_I2CConfig& (0+255),b
  5814  00030A                     
  5815                           ; BSR set to: 1
  5816                           ;I2C.c: 141:                     if(type == I2C_MASTER_WRITE_WITH_RESTART)
  5817  00030A  0E02               	movlw	2
  5818  00030C  1808               	xorwf	I2C_ISR@type^0,w,c
  5819  00030E  A4D8               	btfss	status,2,c
  5820  000310  EF8C  F001         	goto	i2u324_41
  5821  000314  EF8E  F001         	goto	i2u324_40
  5822  000318                     i2u324_41:
  5823  000318  EF91  F001         	goto	i2l174
  5824  00031C                     i2u324_40:
  5825  00031C                     
  5826                           ; BSR set to: 1
  5827                           ;I2C.c: 142:                     {;I2C.c: 143:                         SSP1CON2bits.RSEN
      +                           = 1;
  5828  00031C  82C5               	bsf	197,1,c	;volatile
  5829                           
  5830                           ;I2C.c: 144:                     }
  5831  00031E  EF80  F002         	goto	i2l148
  5832  000322                     i2l174:
  5833                           
  5834                           ; BSR set to: 1
  5835                           ;I2C.c: 146:                         SSP1CON2bits.SEN = 1;
  5836  000322  80C5               	bsf	197,0,c	;volatile
  5837  000324  EF80  F002         	goto	i2l148
  5838  000328                     i2l3005:
  5839                           
  5840                           ; BSR set to: 1
  5841                           ;I2C.c: 149:                     I2CConfig.State = BUS_READY;
  5842  000328  0E0B               	movlw	11
  5843  00032A  6F00               	movwf	_I2CConfig& (0+255),b
  5844  00032C  EF80  F002         	goto	i2l148
  5845  000330                     i2l177:
  5846                           
  5847                           ; BSR set to: 1
  5848                           ;I2C.c: 152:                 if(SSP1IF)
  5849  000330  A69E               	btfss	3998,3,c	;volatile
  5850  000332  EF9D  F001         	goto	i2u325_41
  5851  000336  EF9F  F001         	goto	i2u325_40
  5852  00033A                     i2u325_41:
  5853  00033A  EFA1  F001         	goto	i2l3009
  5854  00033E                     i2u325_40:
  5855  00033E                     
  5856                           ; BSR set to: 1
  5857                           ;I2C.c: 153:                     ack = 1;
  5858  00033E  0E01               	movlw	1
  5859  000340  6E4A               	movwf	I2C_ISR@ack^0,c
  5860  000342                     i2l3009:
  5861                           
  5862                           ; BSR set to: 1
  5863                           ;I2C.c: 154:                 if((timer == 0) && ack)
  5864  000342  5046               	movf	_timer^0,w,c
  5865  000344  1047               	iorwf	(_timer+1)^0,w,c
  5866  000346  A4D8               	btfss	status,2,c
  5867  000348  EFA8  F001         	goto	i2u326_41
  5868  00034C  EFAA  F001         	goto	i2u326_40
  5869  000350                     i2u326_41:
  5870  000350  EFD3  F001         	goto	i2l3023
  5871  000354                     i2u326_40:
  5872  000354                     
  5873                           ; BSR set to: 1
  5874  000354  504A               	movf	I2C_ISR@ack^0,w,c
  5875  000356  B4D8               	btfsc	status,2,c
  5876  000358  EFB0  F001         	goto	i2u327_41
  5877  00035C  EFB2  F001         	goto	i2u327_40
  5878  000360                     i2u327_41:
  5879  000360  EFD3  F001         	goto	i2l3023
  5880  000364                     i2u327_40:
  5881  000364                     
  5882                           ; BSR set to: 1
  5883                           ;I2C.c: 155:                 {;I2C.c: 156:                     if((I2CConfig.Buffer[0].t
      +                          ype == I2C_MASTER_WRITE)||(I2CConfig.Buffer[0].type == I2C_MASTER_WRITE_WITH_RESTART))
  5884  000364  5101               	movf	(_I2CConfig+1)& (0+255),w,b
  5885  000366  B4D8               	btfsc	status,2,c
  5886  000368  EFB8  F001         	goto	i2u328_41
  5887  00036C  EFBA  F001         	goto	i2u328_40
  5888  000370                     i2u328_41:
  5889  000370  EFC3  F001         	goto	i2l3017
  5890  000374                     i2u328_40:
  5891  000374                     
  5892                           ; BSR set to: 1
  5893  000374  0E02               	movlw	2
  5894  000376  1901               	xorwf	(_I2CConfig+1)& (0+255),w,b
  5895  000378  A4D8               	btfss	status,2,c
  5896  00037A  EFC1  F001         	goto	i2u329_41
  5897  00037E  EFC3  F001         	goto	i2u329_40
  5898  000382                     i2u329_41:
  5899  000382  EFC7  F001         	goto	i2l3019
  5900  000386                     i2u329_40:
  5901  000386                     i2l3017:
  5902                           
  5903                           ; BSR set to: 1
  5904                           ;I2C.c: 157:                     {;I2C.c: 158:                         I2CConfig.State =
      +                           MASTER_WRITE;
  5905  000386  0E03               	movlw	3
  5906  000388  6F00               	movwf	_I2CConfig& (0+255),b
  5907                           
  5908                           ;I2C.c: 159:                         goto delay_end;
  5909  00038A  EF4E  F002         	goto	i2l3065
  5910  00038E                     i2l3019:
  5911                           
  5912                           ; BSR set to: 1
  5913                           ;I2C.c: 161:                     if(I2CConfig.Buffer[0].type == I2C_MASTER_READ)
  5914  00038E  0501               	decf	(_I2CConfig+1)& (0+255),w,b
  5915  000390  A4D8               	btfss	status,2,c
  5916  000392  EFCD  F001         	goto	i2u330_41
  5917  000396  EFCF  F001         	goto	i2u330_40
  5918  00039A                     i2u330_41:
  5919  00039A  EFD3  F001         	goto	i2l3023
  5920  00039E                     i2u330_40:
  5921  00039E                     i2l3021:
  5922                           
  5923                           ; BSR set to: 1
  5924                           ;I2C.c: 162:                     {;I2C.c: 163:                         I2CConfig.State =
      +                           MASTER_READ;
  5925  00039E  0E05               	movlw	5
  5926  0003A0  6F00               	movwf	_I2CConfig& (0+255),b
  5927                           
  5928                           ;I2C.c: 164:                         goto delay_end;
  5929  0003A2  EF4E  F002         	goto	i2l3065
  5930  0003A6                     i2l3023:
  5931                           
  5932                           ; BSR set to: 1
  5933                           ;I2C.c: 167:                 if((timer == 0) && (ack == 0))
  5934  0003A6  5046               	movf	_timer^0,w,c
  5935  0003A8  1047               	iorwf	(_timer+1)^0,w,c
  5936  0003AA  A4D8               	btfss	status,2,c
  5937  0003AC  EFDA  F001         	goto	i2u331_41
  5938  0003B0  EFDC  F001         	goto	i2u331_40
  5939  0003B4                     i2u331_41:
  5940  0003B4  EF80  F002         	goto	i2l148
  5941  0003B8                     i2u331_40:
  5942  0003B8                     
  5943                           ; BSR set to: 1
  5944  0003B8  504A               	movf	I2C_ISR@ack^0,w,c
  5945  0003BA  A4D8               	btfss	status,2,c
  5946  0003BC  EFE2  F001         	goto	i2u332_41
  5947  0003C0  EFE4  F001         	goto	i2u332_40
  5948  0003C4                     i2u332_41:
  5949  0003C4  EF80  F002         	goto	i2l148
  5950  0003C8                     i2u332_40:
  5951  0003C8                     
  5952                           ; BSR set to: 1
  5953                           ;I2C.c: 168:                 {;I2C.c: 169:                     SSP1CON2bits.SEN = 0;
  5954  0003C8  90C5               	bcf	197,0,c	;volatile
  5955                           
  5956                           ;I2C.c: 170:                     SSP1CON2bits.SEN = 1;
  5957  0003CA  80C5               	bsf	197,0,c	;volatile
  5958  0003CC                     i2l3029:
  5959                           
  5960                           ; BSR set to: 1
  5961                           ;I2C.c: 171:                     I2CConfig.State = MASTER_START;
  5962  0003CC  0E00               	movlw	0
  5963  0003CE  6F00               	movwf	_I2CConfig& (0+255),b
  5964  0003D0  EF80  F002         	goto	i2l148
  5965  0003D4                     i2l185:
  5966                           
  5967                           ; BSR set to: 1
  5968                           ;I2C.c: 175:                 if(SSP1IF)
  5969  0003D4  A69E               	btfss	3998,3,c	;volatile
  5970  0003D6  EFEF  F001         	goto	i2u333_41
  5971  0003DA  EFF1  F001         	goto	i2u333_40
  5972  0003DE                     i2u333_41:
  5973  0003DE  EF0E  F002         	goto	i2l3041
  5974  0003E2                     i2u333_40:
  5975  0003E2                     
  5976                           ; BSR set to: 1
  5977                           ;I2C.c: 176:                 {;I2C.c: 178:                     if((I2CConfig.Buffer[0].t
      +                          ype == I2C_MASTER_WRITE)||(I2CConfig.Buffer[0].type == I2C_MASTER_WRITE_WITH_RESTART))
  5978  0003E2  5101               	movf	(_I2CConfig+1)& (0+255),w,b
  5979  0003E4  B4D8               	btfsc	status,2,c
  5980  0003E6  EFF7  F001         	goto	i2u334_41
  5981  0003EA  EFF9  F001         	goto	i2u334_40
  5982  0003EE                     i2u334_41:
  5983  0003EE  EFC3  F001         	goto	i2l3017
  5984  0003F2                     i2u334_40:
  5985  0003F2                     
  5986                           ; BSR set to: 1
  5987  0003F2  0E02               	movlw	2
  5988  0003F4  1901               	xorwf	(_I2CConfig+1)& (0+255),w,b
  5989  0003F6  A4D8               	btfss	status,2,c
  5990  0003F8  EF00  F002         	goto	i2u335_41
  5991  0003FC  EF02  F002         	goto	i2u335_40
  5992  000400                     i2u335_41:
  5993  000400  EF04  F002         	goto	i2l3037
  5994  000404                     i2u335_40:
  5995  000404  EFC3  F001         	goto	i2l3017
  5996  000408                     i2l3037:
  5997                           
  5998                           ; BSR set to: 1
  5999                           ;I2C.c: 183:                     if(I2CConfig.Buffer[0].type == I2C_MASTER_READ)
  6000  000408  0501               	decf	(_I2CConfig+1)& (0+255),w,b
  6001  00040A  A4D8               	btfss	status,2,c
  6002  00040C  EF0A  F002         	goto	i2u336_41
  6003  000410  EF0C  F002         	goto	i2u336_40
  6004  000414                     i2u336_41:
  6005  000414  EF80  F002         	goto	i2l148
  6006  000418                     i2u336_40:
  6007  000418  EFCF  F001         	goto	i2l3021
  6008  00041C                     i2l3041:
  6009                           
  6010                           ; BSR set to: 1
  6011                           ;I2C.c: 190:                 {;I2C.c: 191:                     if(timer == 0)
  6012  00041C  5046               	movf	_timer^0,w,c
  6013  00041E  1047               	iorwf	(_timer+1)^0,w,c
  6014  000420  A4D8               	btfss	status,2,c
  6015  000422  EF15  F002         	goto	i2u337_41
  6016  000426  EF17  F002         	goto	i2u337_40
  6017  00042A                     i2u337_41:
  6018  00042A  EF80  F002         	goto	i2l148
  6019  00042E                     i2u337_40:
  6020  00042E                     
  6021                           ; BSR set to: 1
  6022                           ;I2C.c: 192:                     {;I2C.c: 193:                         SSP1CON2bits.SEN 
      +                          = 0;
  6023  00042E  90C5               	bcf	197,0,c	;volatile
  6024                           
  6025                           ;I2C.c: 194:                         SSP1CON2bits.SEN = 1;
  6026  000430  80C5               	bsf	197,0,c	;volatile
  6027  000432  EFE6  F001         	goto	i2l3029
  6028  000436                     i2l193:
  6029                           
  6030                           ; BSR set to: 1
  6031                           ;I2C.c: 200:                 if(SSP1IF)
  6032  000436  A69E               	btfss	3998,3,c	;volatile
  6033  000438  EF20  F002         	goto	i2u338_41
  6034  00043C  EF22  F002         	goto	i2u338_40
  6035  000440                     i2u338_41:
  6036  000440  EF24  F002         	goto	i2l3049
  6037  000444                     i2u338_40:
  6038  000444                     
  6039                           ; BSR set to: 1
  6040                           ;I2C.c: 201:                     ack = 1;
  6041  000444  0E01               	movlw	1
  6042  000446  6E4A               	movwf	I2C_ISR@ack^0,c
  6043  000448                     i2l3049:
  6044                           
  6045                           ; BSR set to: 1
  6046                           ;I2C.c: 202:                 if((timer == 0) && ack)
  6047  000448  5046               	movf	_timer^0,w,c
  6048  00044A  1047               	iorwf	(_timer+1)^0,w,c
  6049  00044C  A4D8               	btfss	status,2,c
  6050  00044E  EF2B  F002         	goto	i2u339_41
  6051  000452  EF2D  F002         	goto	i2u339_40
  6052  000456                     i2u339_41:
  6053  000456  EF39  F002         	goto	i2l3055
  6054  00045A                     i2u339_40:
  6055  00045A                     
  6056                           ; BSR set to: 1
  6057  00045A  504A               	movf	I2C_ISR@ack^0,w,c
  6058  00045C  B4D8               	btfsc	status,2,c
  6059  00045E  EF33  F002         	goto	i2u340_41
  6060  000462  EF35  F002         	goto	i2u340_40
  6061  000466                     i2u340_41:
  6062  000466  EF39  F002         	goto	i2l3055
  6063  00046A                     i2u340_40:
  6064  00046A                     
  6065                           ; BSR set to: 1
  6066                           ;I2C.c: 203:                 {;I2C.c: 204:                     I2CConfig.State = MASTER_
      +                          STOP;
  6067  00046A  0E08               	movlw	8
  6068  00046C  6F00               	movwf	_I2CConfig& (0+255),b
  6069                           
  6070                           ;I2C.c: 205:                     goto delay_end;
  6071  00046E  EF4E  F002         	goto	i2l3065
  6072  000472                     i2l3055:
  6073                           
  6074                           ; BSR set to: 1
  6075                           ;I2C.c: 207:                 if((timer == 0) && (ack == 0))
  6076  000472  5046               	movf	_timer^0,w,c
  6077  000474  1047               	iorwf	(_timer+1)^0,w,c
  6078  000476  A4D8               	btfss	status,2,c
  6079  000478  EF40  F002         	goto	i2u341_41
  6080  00047C  EF42  F002         	goto	i2u341_40
  6081  000480                     i2u341_41:
  6082  000480  EF80  F002         	goto	i2l148
  6083  000484                     i2u341_40:
  6084  000484                     
  6085                           ; BSR set to: 1
  6086  000484  504A               	movf	I2C_ISR@ack^0,w,c
  6087  000486  A4D8               	btfss	status,2,c
  6088  000488  EF48  F002         	goto	i2u342_41
  6089  00048C  EF4A  F002         	goto	i2u342_40
  6090  000490                     i2u342_41:
  6091  000490  EF80  F002         	goto	i2l148
  6092  000494                     i2u342_40:
  6093  000494                     
  6094                           ; BSR set to: 1
  6095                           ;I2C.c: 208:                 {;I2C.c: 209:                     SSP1CON2bits.SEN = 0;
  6096  000494  90C5               	bcf	197,0,c	;volatile
  6097                           
  6098                           ;I2C.c: 210:                     SSP1CON2bits.SEN = 1;
  6099  000496  80C5               	bsf	197,0,c	;volatile
  6100  000498  EFE6  F001         	goto	i2l3029
  6101  00049C                     i2l3065:
  6102  00049C  0101               	movlb	1	; () banked
  6103  00049E  5100               	movf	_I2CConfig& (0+255),w,b
  6104  0004A0  6E01               	movwf	??_I2C_ISR^0,c
  6105  0004A2  6A02               	clrf	(??_I2C_ISR+1)^0,c
  6106                           
  6107                           ; Switch on 2 bytes has been partitioned into a top level switch of size 1, and 1 sub-sw
      +                          itches
  6108                           ; Switch size 1, requested type "simple"
  6109                           ; Number of cases is 1, Range of values is 0 to 0
  6110                           ; switch strategies available:
  6111                           ; Name         Instructions Cycles
  6112                           ; simple_byte            4     3 (average)
  6113                           ;	Chosen strategy is simple_byte
  6114  0004A4  5002               	movf	(??_I2C_ISR+1)^0,w,c
  6115  0004A6  0A00               	xorlw	0	; case 0
  6116  0004A8  B4D8               	btfsc	status,2,c
  6117  0004AA  EF59  F002         	goto	i2l3759
  6118  0004AE  EF80  F002         	goto	i2l148
  6119  0004B2                     i2l3759:
  6120                           
  6121                           ; BSR set to: 1
  6122                           ; Switch size 1, requested type "simple"
  6123                           ; Number of cases is 9, Range of values is 0 to 14
  6124                           ; switch strategies available:
  6125                           ; Name         Instructions Cycles
  6126                           ; simple_byte           28    15 (average)
  6127                           ;	Chosen strategy is simple_byte
  6128  0004B2  5001               	movf	??_I2C_ISR^0,w,c
  6129  0004B4  0A00               	xorlw	0	; case 0
  6130  0004B6  B4D8               	btfsc	status,2,c
  6131  0004B8  EF50  F000         	goto	i2l2897
  6132  0004BC  0A03               	xorlw	3	; case 3
  6133  0004BE  B4D8               	btfsc	status,2,c
  6134  0004C0  EF6D  F000         	goto	i2l149
  6135  0004C4  0A07               	xorlw	7	; case 4
  6136  0004C6  B4D8               	btfsc	status,2,c
  6137  0004C8  EF11  F001         	goto	i2l2969
  6138  0004CC  0A01               	xorlw	1	; case 5
  6139  0004CE  B4D8               	btfsc	status,2,c
  6140  0004D0  EFC1  F000         	goto	i2l159
  6141  0004D4  0A03               	xorlw	3	; case 6
  6142  0004D6  B4D8               	btfsc	status,2,c
  6143  0004D8  EFC6  F000         	goto	i2l2945
  6144  0004DC  0A0E               	xorlw	14	; case 8
  6145  0004DE  B4D8               	btfsc	status,2,c
  6146  0004E0  EF1E  F001         	goto	i2l168
  6147  0004E4  0A04               	xorlw	4	; case 12
  6148  0004E6  B4D8               	btfsc	status,2,c
  6149  0004E8  EFEA  F001         	goto	i2l185
  6150  0004EC  0A01               	xorlw	1	; case 13
  6151  0004EE  B4D8               	btfsc	status,2,c
  6152  0004F0  EF1B  F002         	goto	i2l193
  6153  0004F4  0A03               	xorlw	3	; case 14
  6154  0004F6  B4D8               	btfsc	status,2,c
  6155  0004F8  EF98  F001         	goto	i2l177
  6156  0004FC  EF80  F002         	goto	i2l148
  6157  000500                     i2l148:
  6158                           
  6159                           ; BSR set to: 1
  6160                           ;I2C.c: 218:         SSP1IF = 0;
  6161  000500  969E               	bcf	3998,3,c	;volatile
  6162  000502                     i2l138:
  6163                           
  6164                           ;I2C.c: 220:     if(TMR2IF)
  6165  000502  A29E               	btfss	3998,1,c	;volatile
  6166  000504  EF86  F002         	goto	i2u343_41
  6167  000508  EF88  F002         	goto	i2u343_40
  6168  00050C                     i2u343_41:
  6169  00050C  EF99  F002         	goto	i2l200
  6170  000510                     i2u343_40:
  6171  000510                     
  6172                           ;I2C.c: 221:     {;I2C.c: 222:         if(timer > 0)
  6173  000510  BE47               	btfsc	(_timer+1)^0,7,c
  6174  000512  EF93  F002         	goto	i2u344_41
  6175  000516  5047               	movf	(_timer+1)^0,w,c
  6176  000518  E108               	bnz	i2u344_40
  6177  00051A  0446               	decf	_timer^0,w,c
  6178  00051C  A0D8               	btfss	status,0,c
  6179  00051E  EF93  F002         	goto	i2u344_41
  6180  000522  EF95  F002         	goto	i2u344_40
  6181  000526                     i2u344_41:
  6182  000526  EF98  F002         	goto	i2l3071
  6183  00052A                     i2u344_40:
  6184  00052A                     
  6185                           ;I2C.c: 223:             timer--;
  6186  00052A  0646               	decf	_timer^0,f,c
  6187  00052C  A0D8               	btfss	status,0,c
  6188  00052E  0647               	decf	(_timer+1)^0,f,c
  6189  000530                     i2l3071:
  6190                           
  6191                           ;I2C.c: 224:         TMR2IF = 0;
  6192  000530  929E               	bcf	3998,1,c	;volatile
  6193  000532                     i2l200:
  6194  000532  0012               	return		;funcret
  6195  000534                     __end_of_I2C_ISR:
  6196                           	opt callstack 0
  6197  0000                     
  6198                           	psect	text21
  6199  000000                     __ptext21:
  6200                           	opt callstack 0
  6201  000000                     
  6202                           	psect	rparam
  6203  0000                     
  6204                           	psect	temp
  6205  00004E                     btemp:
  6206                           	opt callstack 0
  6207  00004E                     	ds	1
  6208  0000                     int$flags	set	btemp
  6209  0000                     wtemp8	set	btemp+1
  6210  0000                     ttemp5	set	btemp+1
  6211  0000                     ttemp6	set	btemp+4
  6212  0000                     ttemp7	set	btemp+8
  6213                           tosu	equ	0xFFF
  6214                           tosh	equ	0xFFE
  6215                           tosl	equ	0xFFD
  6216                           stkptr	equ	0xFFC
  6217                           pclatu	equ	0xFFB
  6218                           pclath	equ	0xFFA
  6219                           pcl	equ	0xFF9
  6220                           tblptru	equ	0xFF8
  6221                           tblptrh	equ	0xFF7
  6222                           tblptrl	equ	0xFF6
  6223                           tablat	equ	0xFF5
  6224                           prodh	equ	0xFF4
  6225                           prodl	equ	0xFF3
  6226                           indf0	equ	0xFEF
  6227                           postinc0	equ	0xFEE
  6228                           postdec0	equ	0xFED
  6229                           preinc0	equ	0xFEC
  6230                           plusw0	equ	0xFEB
  6231                           fsr0h	equ	0xFEA
  6232                           fsr0l	equ	0xFE9
  6233                           wreg	equ	0xFE8
  6234                           indf1	equ	0xFE7
  6235                           postinc1	equ	0xFE6
  6236                           postdec1	equ	0xFE5
  6237                           preinc1	equ	0xFE4
  6238                           plusw1	equ	0xFE3
  6239                           fsr1h	equ	0xFE2
  6240                           fsr1l	equ	0xFE1
  6241                           bsr	equ	0xFE0
  6242                           indf2	equ	0xFDF
  6243                           postinc2	equ	0xFDE
  6244                           postdec2	equ	0xFDD
  6245                           preinc2	equ	0xFDC
  6246                           plusw2	equ	0xFDB
  6247                           fsr2h	equ	0xFDA
  6248                           fsr2l	equ	0xFD9
  6249                           status	equ	0xFD8


Data Sizes:
    Strings     0
    Constant    0
    Data        5
    BSS         165
    Persistent  0
    Stack       0

Auto Spaces:
    Space          Size  Autos    Used
    COMRAM           94     69      77
    BANK0           160     53      79
    BANK1           256      0     136
    BANK2           256      0       0
    BANK3           256      0       0
    BANK4           256      0       0
    BANK5           256      0       0

Pointer List with Targets:

    ISR_Tasks$1395	PTR FTN()void  size(2) Largest target is 1
		 -> I2C_ISR(), 

    memset@dest	PTR void  size(2) Largest target is 156
		 -> I2CConfig(BANK1[136]), 

    memset@s	PTR unsigned char  size(2) Largest target is 156
		 -> I2CConfig(BANK1[136]), 

    I2C_timer_prescaler@prescUsed	PTR unsigned int  size(2) Largest target is 2
		 -> I2C_Init@prescUsed(BANK0[2]), 

    I2C_timer_prescaler@prUsed	PTR unsigned int  size(2) Largest target is 2
		 -> I2C_Init@prUsed(BANK0[2]), 

    I2C_timer_prescaler@min	PTR float  size(2) Largest target is 4
		 -> I2C_Init@min(BANK0[4]), 

    I2C_Read_Buffer@adresse	PTR unsigned char  size(2) Largest target is 1
		 -> main@adresse(BANK0[1]), 

    I2C_Read_Buffer@sizeData	PTR int  size(2) Largest target is 2
		 -> main@bufferSize(BANK0[2]), 

    I2C_Read_Buffer@data	PTR unsigned char  size(2) Largest target is 3
		 -> main@dataRcv(BANK0[2]), main@reg(BANK0[2]), main@data(BANK0[3]), 

    I2C_Read_Register_Request@rcvData	PTR unsigned char  size(2) Largest target is 2
		 -> main@dataRcv(BANK0[2]), 

    I2C_Read_Register_Request@sendData	PTR unsigned char  size(2) Largest target is 2
		 -> main@reg(BANK0[2]), 

    I2C_Write@data	PTR unsigned char  size(2) Largest target is 3
		 -> main@data(BANK0[3]), 

    sp__memset	PTR void  size(2) Largest target is 156
		 -> I2CConfig(BANK1[136]), 

    I2Cadress	PTR struct . size(2) Largest target is 0
		 -> NULL(NULL[0]), 

    I2CConfig.RcvBuffer.data	PTR unsigned char  size(2) Largest target is 3
		 -> main@dataRcv(BANK0[2]), main@reg(BANK0[2]), main@data(BANK0[3]), 

    S280$data	PTR unsigned char  size(2) Largest target is 3
		 -> main@dataRcv(BANK0[2]), main@reg(BANK0[2]), main@data(BANK0[3]), 

    I2CConfig.Buffer.data	PTR unsigned char  size(2) Largest target is 3
		 -> main@dataRcv(BANK0[2]), main@reg(BANK0[2]), main@data(BANK0[3]), 

    sp__I2C_Read_Buffer	PTR unsigned char  size(2) Largest target is 3
		 -> NULL(NULL[0]), main@dataRcv(BANK0[2]), main@reg(BANK0[2]), main@data(BANK0[3]), 

    main@buffer	PTR unsigned char  size(2) Largest target is 3
		 -> NULL(NULL[0]), main@dataRcv(BANK0[2]), main@reg(BANK0[2]), main@data(BANK0[3]), 

    S189$data	PTR unsigned char  size(2) Largest target is 3
		 -> main@data(BANK0[3]), 

    msgToWrite.data	PTR unsigned char  size(2) Largest target is 3
		 -> main@data(BANK0[3]), 

    ISR_ConnectFunction@Function	PTR FTN()void  size(2) Largest target is 1
		 -> I2C_ISR(), 

    S25$FunctTab	PTR FTN()void [10] size(2) Largest target is 1
		 -> I2C_ISR(), 

    ISRConfig.FunctTab	PTR FTN()void [10] size(2) Largest target is 1
		 -> I2C_ISR(), 


Critical Paths under _main in COMRAM

    _I2C_Init->_I2C_timer_prescaler
    _I2C_timer_prescaler->___fldiv
    ___flsub->___fladd
    ___flge->___flmul
    ___fldiv->___xxtofl

Critical Paths under _ISR_Routine in COMRAM

    _ISR_Routine->_ISR_Tasks
    _ISR_Tasks->_I2C_ISR

Critical Paths under _main in BANK0

    _main->_I2C_Init
    _I2C_Init->_I2C_timer_prescaler

Critical Paths under _ISR_Routine in BANK0

    None.

Critical Paths under _main in BANK1

    None.

Critical Paths under _ISR_Routine in BANK1

    None.

Critical Paths under _main in BANK2

    None.

Critical Paths under _ISR_Routine in BANK2

    None.

Critical Paths under _main in BANK3

    None.

Critical Paths under _ISR_Routine in BANK3

    None.

Critical Paths under _main in BANK4

    None.

Critical Paths under _ISR_Routine in BANK4

    None.

Critical Paths under _main in BANK5

    None.

Critical Paths under _ISR_Routine in BANK5

    None.

Call Graph Tables:

 ---------------------------------------------------------------------------------
 (Depth) Function   	        Calls       Base Space   Used Autos Params    Refs
 ---------------------------------------------------------------------------------
 (0) _main                                                19    19      0   14271
                                             68 COMRAM     1     1      0
                                             35 BANK0     18    18      0
                     _I2C_Get_Status
                           _I2C_Init
                    _I2C_Read_Buffer
          _I2C_Read_Register_Request
                          _I2C_Write
                _ISR_ConnectFunction
                           _ISR_Init
 ---------------------------------------------------------------------------------
 (1) _ISR_Init                                             0     0      0       0
 ---------------------------------------------------------------------------------
 (1) _ISR_ConnectFunction                                  2     0      2      98
                                             17 COMRAM     2     0      2
 ---------------------------------------------------------------------------------
 (1) _I2C_Write                                            5     1      4     316
                                             17 COMRAM     5     1      4
 ---------------------------------------------------------------------------------
 (1) _I2C_Read_Register_Request                            8     1      7     556
                                             17 COMRAM     8     1      7
 ---------------------------------------------------------------------------------
 (1) _I2C_Read_Buffer                                      9     5      4     287
                                             17 COMRAM     9     5      4
 ---------------------------------------------------------------------------------
 (1) _I2C_Init                                            13    11      2   12336
                                             22 BANK0     13    11      2
                _I2C_timer_prescaler
                             ___fleq
                             _memset
 ---------------------------------------------------------------------------------
 (2) _memset                                              12     6      6     947
                                             17 COMRAM    12     6      6
 ---------------------------------------------------------------------------------
 (2) ___fleq                                              12     4      8     494
                                             17 COMRAM    12     4      8
 ---------------------------------------------------------------------------------
 (2) _I2C_timer_prescaler                                 34    22     12   10379
                                             56 COMRAM    12     0     12
                                              0 BANK0     22    22      0
                            ___fldiv
                             ___flge
                            ___flmul
                            ___flsub
                            ___fltol
                           ___xxtofl
 ---------------------------------------------------------------------------------
 (3) ___xxtofl                                            14    10      4     854
                                             17 COMRAM    14    10      4
 ---------------------------------------------------------------------------------
 (3) ___fltol                                             10     6      4     305
                                             17 COMRAM    10     6      4
 ---------------------------------------------------------------------------------
 (3) ___flsub                                              8     0      8    3041
                                             33 COMRAM     8     0      8
                            ___fladd
                           ___xxtofl (ARG)
 ---------------------------------------------------------------------------------
 (4) ___fladd                                             16     8      8    2262
                                             17 COMRAM    16     8      8
 ---------------------------------------------------------------------------------
 (3) ___flmul                                             25    17      8    1896
                                             17 COMRAM    25    17      8
 ---------------------------------------------------------------------------------
 (3) ___flge                                              12     4      8     942
                                             42 COMRAM    12     4      8
                            ___flmul (ARG)
                           ___xxtofl (ARG)
 ---------------------------------------------------------------------------------
 (3) ___fldiv                                             25    17      8    1399
                                             31 COMRAM    25    17      8
                           ___xxtofl (ARG)
 ---------------------------------------------------------------------------------
 (1) _I2C_Get_Status                                       5     3      2      68
                                             17 COMRAM     5     3      2
 ---------------------------------------------------------------------------------
 Estimated maximum stack depth 4
 ---------------------------------------------------------------------------------
 (Depth) Function   	        Calls       Base Space   Used Autos Params    Refs
 ---------------------------------------------------------------------------------
 (5) _ISR_Routine                                          8     8      0      69
                                              9 COMRAM     8     8      0
                          _ISR_Tasks
 ---------------------------------------------------------------------------------
 (6) _ISR_Tasks                                            1     1      0      69
                                              8 COMRAM     1     1      0
                            _I2C_ISR *
 ---------------------------------------------------------------------------------
 (7) _I2C_ISR                                              8     8      0      23
                                              0 COMRAM     8     8      0
 ---------------------------------------------------------------------------------
 Estimated maximum stack depth 7
 ---------------------------------------------------------------------------------

 Call Graph Graphs:

 _main (ROOT)
   _I2C_Get_Status
   _I2C_Init
     _I2C_timer_prescaler
       ___fldiv
         ___xxtofl (ARG)
       ___flge
         ___flmul (ARG)
         ___xxtofl (ARG)
       ___flmul
       ___flsub
         ___fladd
         ___xxtofl (ARG)
       ___fltol
       ___xxtofl
     ___fleq
     _memset
   _I2C_Read_Buffer
   _I2C_Read_Register_Request
   _I2C_Write
   _ISR_ConnectFunction
   _ISR_Init

 _ISR_Routine (ROOT)
   _ISR_Tasks
     _I2C_ISR *

 Address spaces:
Name               Size   Autos  Total    Cost      Usage
BIGRAM             5FF      0       0      16        0.0%
EEDATA             100      0       0       0        0.0%
BITBANK5           100      0       0      14        0.0%
BANK5              100      0       0      15        0.0%
BITBANK4           100      0       0      12        0.0%
BANK4              100      0       0      13        0.0%
BITBANK3           100      0       0      10        0.0%
BANK3              100      0       0      11        0.0%
BITBANK2           100      0       0       7        0.0%
BANK2              100      0       0       8        0.0%
BITBANK1           100      0       0       5        0.0%
BANK1              100      0      88       6       53.1%
BITBANK0            A0      0       0       3        0.0%
BANK0               A0     35      4F       4       49.4%
BITCOMRAM           5E      0       0       0        0.0%
COMRAM              5E     45      4D       1       81.9%
BITSFR_1             0      0       0     200        0.0%
SFR_1                0      0       0     200        0.0%
BITSFR               0      0       0     200        0.0%
SFR                  0      0       0     200        0.0%
STACK                0      0       0       2        0.0%
NULL                 0      0       0       0        0.0%
ABS                  0      0     124       9        0.0%
DATA                 0      0     124      17        0.0%
CODE                 0      0       0       0        0.0%


Microchip Technology PIC18 Macro Assembler V2.10 build 88905656 
Symbol Table                                                                                   Wed Apr 29 19:41:53 2020

                         ___fldiv@aexp 0038                           ___fldiv@bexp 0037  
                         ___fldiv@sign 0030                I2C_Read_Buffer@sizeData 0014  
                   __size_of_I2C_Write 00F8                                     l12 231C  
                                   l15 2314                                     l80 19D2  
                                   l75 1A88   I2C_Read_Register_Request@rcvsizeData 0017  
                         __CFG_CP0$OFF 000000                           __CFG_CP1$OFF 000000  
                         __CFG_CP2$OFF 000000                           __CFG_CP3$OFF 000000  
                          __CFG_LVP$ON 000000                                    l212 2214  
                                  l220 174C                                    l232 1F8A  
                                  l233 2064                                    l227 1716  
                                  l228 1718                                    l260 21A8  
                                  l319 11BC                                    l248 1C1A  
                                  l249 1D62                                    l619 1E68  
                                  l581 210E                                    l904 1556  
                                  l592 1F6C                                    l906 13B6  
                                  l850 0722                                    l915 13FC  
                                  l587 1F26                                    l851 0710  
                                  l940 0E1C                                    l852 06D6  
                                  l917 1474                                    l909 137A  
                                  l918 1462                                    l943 0CAE  
                                  l936 0AB8                                    l953 0DDE  
                                  l945 0D26                                    l946 0D14  
                                  l867 083C                                    l859 09F2  
                                  l876 090C                                    l892 22F6  
                                  l980 1900                                    l877 08FA  
                                  l991 1898                                    l984 183C  
                                  l977 17A4                                    _GIE 007F97  
                                  l997 1C00                           __CFG_CPB$OFF 000000  
                                  _PR2 000FBB                           __CFG_CPD$OFF 000000  
          __end_of_ISR_ConnectFunction 2316                                    i2l9 002E  
                      __end_of_I2C_ISR 0534                                    prod 000FF3  
                                  tosl 000FFD                                    wreg 000FE8  
                         ___flmul@aexp 0023                           ___flmul@bexp 0024  
                         ___flmul@sign 001E                            main@dataRcv 0086  
                         ___flmul@temp 0029                           ___flmul@prod 0025  
                          main@adresse 008C                           ___fltol@exp1 001B  
                                 l2301 0534                                   l3101 1066  
                                 l2311 0570                                   l2303 0540  
                                 l3111 1184                                   l3103 10AA  
                                 l2401 0730                                   l2321 05A0  
                                 l2313 0580                                   l2305 054E  
                                 l3105 10F4                                   l3113 1A8C  
                                 l2411 0772                                   l2403 0740  
                                 l2331 05CA                                   l2323 05B2  
                                 l2315 0582                                   l2307 0550  
                                 l3107 113A                                   l3131 1B8A  
                                 l3123 1AEC                                   l2421 07A0  
                                 l2413 0780                                   l2333 05DA  
                                 l2341 0604                                   l2325 05B4  
                                 l2309 0560                                   l2317 058A  
                                 l3109 114A                                   l3141 1BEA  
                                 l3125 1B44                                   l3117 1AAA  
                                 l3303 21F8                                   l2511 11EA  
                                 l2503 11BE                                   l2431 080C  
                                 l2423 07AA                                   l2415 078C  
                                 l2407 0754                                   l2351 063C  
                                 l2343 0614                                   l2335 05EA  
                                 l2327 05BA                                   l2319 059A  
                                 l3151 20D2                                   l3143 1BEE  
                                 l3135 1BA4                                   l3119 1AB6  
                                 l3311 1C04                                   l3305 21FA  
                                 l2601 141E                                   l2521 1224  
                                 l2513 11FA                                   l2505 11CA  
                                 l2433 081C                                   l2417 0790  
                                 l2409 0764                                   l2425 07B0  
                                 l2361 0650                                   l2353 0640  
                                 l2345 0626                                   l2337 05FA  
                                 l2329 05C8                                   l3081 0E64  
                                 l3153 20E2                                   l3145 2066  
                                 l3137 1BD8                                   l3129 1B5E  
                                 l3321 1C40                                   l3307 220C  
                                 l2611 1490                                   l2603 142C  
                                 l2531 1250                                   l2523 122A  
                                 l2515 120A                                   l2507 11D8  
                                 l2451 089E                                   l2443 0876  
                                 l2427 07D6                                   l2435 082C  
                                 l2419 079E                                   l2371 0664  
                                 l2363 0654                                   l2355 0644  
                                 l2347 0634                                   l2339 05FC  
                                 l3091 0F98                                   l3083 0EBA  
                                 l3155 2106                                   l3147 2094  
                                 l3139 1BE4                                   l3331 1C7C  
                                 l3323 1C42                                   l3251 1F82  
                                 l2621 14FC                                   l2613 149E  
                                 l2605 145A                                   l2541 128A  
                                 l2533 1260                                   l2525 1230  
                                 l2517 120C                                   l2509 11DA  
                                 l2701 0B7E                                   l2453 08A6  
                                 l2445 0880                                   l2437 0852  
                                 l2429 080A                                   l2461 08CA  
                                 l2381 0678                                   l2373 0668  
                                 l2365 0658                                   l2357 0648  
                                 l2349 0638                                   l3093 0FDE  
                                 l3085 0EEE                                   l3157 210C  
                                 l3149 20A4                                   l3341 1CCE  
                                 l3333 1C94                                   l3325 1C52  
                                 l3317 1C2C                                   l3261 1FB8  
                                 l3173 22F8                                   l2631 154A  
                                 l2623 1516                                   l2615 14C8  
                                 l2543 12A0                                   l2535 1270  
                                 l2527 123E                                   l2519 1214  
                                 l2711 0BE0                                   l2703 0B8A  
                                 l2471 091C                                   l2463 08CE  
                                 l2455 08AA                                   l2447 088E  
                                 l2439 0862                                   l2391 06F0  
                                 l2383 06A2                                   l2375 066C  
                                 l2367 065C                                   l2359 064C  
                                 l3095 0FEE                                   l3087 0F0A  
                                 l3079 0E1E                                   l3351 1D48  
                                 l3343 1CE2                                   l3335 1CA8  
                                 l3327 1C54                                   l3271 1FF4  
                                 l3263 1FBA                                   l3255 1F9C  
                                 l3175 2312                                   l2633 154C  
                                 l2625 1532                                   l2609 1484  
                                 l2617 14CC                                   l2561 12F4  
                                 l2545 12B0                                   l2553 12D0  
                                 l2537 1272                                   l2529 1240  
                                 l2721 0C76                                   l2713 0BEC  
                                 l2705 0B9A                                   l2641 09F4  
                                 l2481 0982                                   l2473 0928  
                                 l2465 08DC                                   l2457 08BA  
                                 l2449 0890                                   l2393 06F4  
                                 l2385 06BE                                   l2377 0670  
                                 l2369 0660                                   l2801 1D7A  
                                 l3097 1028                                   l3089 0F4E  
                                 l3601 1692                                   l3361 2110  
                                 l3353 1D4A                                   l3345 1CF8  
                                 l3337 1CBC                                   l3329 1C68  
                                 l3281 2046                                   l3273 200C  
                                 l3265 1FCA                                   l3257 1FAC  
                                 l3249 1F70                                   l3169 2316  
                                 l3291 21AC                                   l2627 1536  
                                 l2619 14E6                                   l2571 1346  
                                 l2563 130E                                   l2555 12E0  
                                 l2547 12B8                                   l2539 127A  
                                 l2731 0CCC                                   l2723 0C94  
                                 l2715 0C08                                   l2707 0BB4  
                                 l2651 0A30                                   l2643 0A00  
                                 l2491 09CA                                   l2483 0992  
                                 l2475 0936                                   l2467 08F2  
                                 l2459 08BC                                   l2395 0702  
                                 l2387 06CE                                   l2379 0674  
                                 l2811 1DCA                                   l3099 1060  
                                 l3611 16AE                                   l3603 1696  
                                 l3371 2154                                   l3363 2122  
                                 l3355 1D5C                                   l3347 1D10  
                                 l3339 1CCC                                   l3283 2058  
                                 l3275 2020                                   l3267 1FCC  
                                 l3293 21BE                                   l2629 1544  
                                 l2581 13A2                                   l2573 1356  
                                 l2565 131E                                   l2557 12E0  
                                 l2549 12BC                                   l2741 0D36  
                                 l2733 0CD0                                   l2725 0C9E  
                                 l2717 0C32                                   l2709 0BC4  
                                 l2661 0A62                                   l2653 0A40  
                                 l2645 0A0E                                   l2493 09CC  
                                 l2485 09B2                                   l2477 0970  
                                 l2397 0704                                   l2389 06E4  
                                 l2821 1DF4                                   l2813 1DCE  
                                 l2805 1D8E                                   l3613 16BA  
                                 l3621 16F8                                   l3605 169A  
                                 l3373 217E                                   l3365 212A  
                                 l3357 1D60                                   l3349 1D24  
                                 l3285 205C                                   l3277 2034  
                                 l3269 1FE0                                   l3295 21C6  
                                 l2591 13E2                                   l2583 13A4  
                                 l2575 136A                                   l2567 132E  
                                 l2751 0D98                                   l2743 0D42  
                                 l2735 0CDE                                   l2727 0CAC  
                                 l2719 0C68                                   l2671 0AA2  
                                 l2663 0A70                                   l2655 0A46  
                                 l2647 0A10                                   l2495 09D2  
                                 l2487 09B6                                   l2479 0972  
                                 l2399 070E                                   l2831 1E1C  
                                 l2823 1DFE                                   l2815 1DDC  
                                 l2807 1DB8                                   l3631 1728  
                                 l3623 1700                                   l3607 169C  
                                 l3375 2180                                   l3367 2140  
                                 l3287 205E                                   l3279 2044  
                                 l3297 21CE                                   l2593 13EC  
                                 l2585 13B4                                   l2577 1378  
                                 l2569 133E                                   l2761 0E00  
                                 l2753 0DAC                                   l2745 0D50  
                                 l2737 0D0C                                   l2729 0CBE  
                                 l2681 0AEC                                   l2673 0AA8  
                                 l2665 0A72                                   l2657 0A56  
                                 l2649 0A20                                   l2497 09E0  
                                 l2489 09C4                                   l2833 1E28  
                                 l2825 1E08                                   l2809 1DBA  
                                 l3633 172C                                   l3625 1702  
                                 l3609 16A2                                   l3377 2192  
                                 l3369 214C                                   l3385 21A0  
                                 l3299 21EC                                   l2595 13FA  
                                 l2587 13C6                                   l2579 1384  
                                 l2763 0E02                                   l2755 0DC6  
                                 l2747 0D7A                                   l2691 0B3C  
                                 l2683 0AF8                                   l2675 0AC8  
                                 l2667 0A82                                   l2659 0A5C  
                                 l2499 09E2                                   l2771 22B2  
                                 l2835 1E38                                   l2851 17CA  
                                 l2843 1750                                   l3635 1736  
                                 l3627 1710                                   l3619 16C2  
                                 l3379 2194                                   l3651 192E  
                                 l2589 13DC                                   l2597 140C  
                                 l2781 1EA8                                   l2757 0DE2  
                                 l2765 0E08                                   l2749 0D7E  
                                 l2693 0B48                                   l2685 0B02  
                                 l2677 0AD8                                   l2669 0A92  
                                 l2773 22C2                                   l2837 1E48  
                                 l2861 1824                                   l2845 1760  
                                 l3637 173E                                   l3629 1726  
                                 l3581 1582                                   l3661 1966  
                                 l3653 1930                                   l2599 141A  
                                 l2791 1F14                                   l2783 1ED6  
                                 l2767 0E0C                                   l2759 0DF2  
                                 l2695 0B54                                   l2687 0B18  
                                 l2839 1E58                                   l2871 1888  
                                 l2863 1826                                   l2855 17DE  
                                 l2847 176E                                   l3591 165A  
                                 l3583 15B6                                   l3671 1996  
                                 l3663 196C                                   l3655 193E  
                                 l3647 1902                                   l2793 1F64  
                                 l2785 1EE6                                   l2777 1E6A  
                                 l2697 0B62                                   l2689 0B24  
                                 l2881 18E0                                   l2873 18A6  
                                 l2865 1832                                   l2857 17E6  
                                 l2849 17B4                                   l3593 1664  
                                 l3585 15EA                                   l3577 155C  
                                 l3681 19EE                                   l3673 199A  
                                 l3665 1978                                   l3657 1942  
                                 l3649 1906                                   l2795 1F6A  
                                 l2787 1EF4                                   l2779 1E98  
                                 l2699 0B6E                                   l2883 18EE  
                                 l2875 18A8                                   l2867 186E  
                                 l2859 17F2                                   l3595 1680  
                                 l3587 161E                                   l3579 1560  
                                 l3691 1A60                                   l3683 19F4  
                                 l3675 19B8                                   l3667 1984  
                                 l3659 1950                                   l2789 1F06  
                                 l2885 18F0                                   l2877 18AC  
                                 l2869 187A                                   l3757 16DA  
                                 l3597 1684                                   l3589 1650  
                                 l3693 1A66                                   l3685 1A16  
                                 l3669 198C                                   l2799 1D64  
                                 l2879 18D0                                   l3599 168A  
                                 l3695 1A7E                                   l3687 1A32  
                                 l3679 19D6                                   l3689 1A46  
                                 u2100 05EA                                   u2101 05E6  
                                 u2110 0626                                   u2111 0622  
                                 u2200 0740                                   u2120 0634  
                                 u2040 054E                                   u3000 1820  
                                 u2201 073C                                   u2121 0630  
                                 u2041 054A                                   u3001 181C  
                                 u2210 0772                                   u2130 06A2  
                                 u2050 0560                                   u3010 186A  
                                 u2211 076E                                   u2131 069E  
                                 u2051 055C                                   u3011 1866  
                                 u2300 08BA                                   u2220 0780  
                                 u2140 06BA                                   u2060 0570  
                                 u3020 1888                                   u2301 08B6  
                                 u2221 077C                                   u2141 06B4  
                                 u2061 056C                                   u3021 1884  
                                 u2310 08CA                                   u2230 079E  
                                 u2150 06BC                                   u2070 05B2  
                                 u3030 1898                                   _LATB 000F8A  
                                 u2311 08C6                                   u2231 079A  
                                 u2071 05AE                                   u3031 1894  
                                 u2400 09B2                                   u2320 08DC  
                                 u2240 07D6                                   u2160 06E4  
                                 u2080 05C8                                   u3040 18A6  
                                 u4000 19EE                                   _LATD 000F8C  
                                 u2401 09AE                                   u2321 08D8  
                                 u2241 07D2                                   u2161 06E0  
                                 u2081 05C4                                   u3041 18A2  
                                 u4001 19EA                                   _LATE 000F8D  
                                 u2410 09C4                                   u2330 08F2  
                                 u2250 081C                                   u2170 0702  
                                 u2090 05DA                                   u3050 18E0  
                                 u4010 1A46                                   u2411 09C0  
                                 u2331 08EE                                   u2251 0818  
                                 u2171 06FE                                   u2091 05D6  
                                 u3051 18DC                                   u4011 1A42  
                                 u2500 12E0                                   u2420 09E0  
                                 u2340 0908                                   u2260 0852  
                                 u2180 0722                                   u3060 18EE  
                                 u4020 1A60                                   u2501 12DC  
                                 u2421 09DC                                   u2341 0904  
                                 u2261 084E                                   u2181 071E  
                                 u3061 18EA                                   u4021 1A5C  
                                 u2510 1356                                   u2430 11D8  
                                 u2350 091C                                   u2270 0862  
                                 u2190 0730                                   u4030 1A7E  
                                 u2511 1352                                   u2431 11D4  
                                 u2351 0918                                   u2271 085E  
                                 u2191 072C                                   u4031 1A7A  
                                 u2600 1470                                   u2520 1378  
                                 u2440 11EA                                   u2360 0936  
                                 u2280 088E                                   u2601 146C  
                                 u2521 1374                                   u2441 11E6  
                                 u2361 0932                                   u2281 088A  
                                 u2610 1484                                   u2530 13A2  
                                 u2450 11FA                                   u2370 0970  
                                 u2290 089E                                   u2611 1480  
                                 u2531 139E                                   u2451 11F6  
                                 u2371 096C                                   u2291 089A  
                                 u2620 149E                                   u2540 13C6  
                                 u2460 123E                                   u2700 0A82  
                                 u2380 0982                                   u3500 1AA6  
                                 u2621 149A                                   u2541 13C2  
                                 u2461 123A                                   u2701 0A7E  
                                 u2381 097E                                   u3501 1AA2  
                                 u2630 14E6                                   u2550 13DC  
                                 u2470 1250                                   u2710 0A92  
                                 u2390 0992                                   u3510 1AE8  
                                 u2631 14E2                                   u2551 13D8  
                                 u2471 124C                                   u2711 0A8E  
                                 u2391 098E                                   u3511 1AE4  
                                 u2640 1516                                   u2560 13FA  
                                 u2480 1260                                   u2800 0D36  
                                 u2720 0AC8                                   u3520 1B5A  
                                 u2641 1512                                   u2561 13F6  
                                 u2481 125C                                   u2801 0D32  
                                 u2721 0AC4                                   u3521 1B56  
                                 u2650 1544                                   u2570 141A  
                                 u2490 12A0                                   u2810 0D50  
                                 u2730 0AD8                                   u3450 0EBA  
                                 u3530 1BA0                                   u2651 1540  
                                 u2571 1416                                   u2491 129C  
                                 u2811 0D4C                                   u2731 0AD4  
                                 u3451 0EB6                                   u3531 1B9C  
                                 u3700 220C                                   u2580 142C  
                                 u2820 0D98                                   u2740 0C52  
                                 u2660 0A0E                                   u2900 1D7A  
                                 u3460 0F4E                                   u3540 1C00  
                                 u3701 2208                                   u2581 1428  
                                 u2821 0D94                                   u2661 0A0A  
                                 u2901 1D76                                   u3461 0F4A  
                                 u3541 1BFC                                   u2590 145A  
                                 u2830 0DC6                                   u2750 0CAC  
                                 u2670 0A20                                   u2910 1DAE  
                                 u3470 1028                                   u3550 2094  
                                 u3710 1C16                                   u3630 1F82  
                                 u2591 1456                                   u2831 0DC2  
                                 u2751 0CA8                                   u2671 0A1C  
                                 u3471 1024                                   u3551 2090  
                                 u3711 1C12                                   u3631 1F7E  
                                 u2840 0E00                                   u2760 0CCC  
                                 u2680 0A30                                   u2920 1DDC  
                                 u3480 10AA                                   u3560 20D2  
                                 u3720 1C28                                   u3640 1F98  
                                 u2841 0DFC                                   u2761 0CC8  
                                 u2745 0C48                                   u2681 0A2C  
                                 u2921 1DD8                                   u3481 10A6  
                                 u3561 20CE                                   u3721 1C24  
                                 u3641 1F94                                   u2850 1E98  
                                 u2770 0CDE                                   u2690 0A70  
                                 u2930 1DF0                                   u3490 1184  
                                 u3570 2106                                   u3730 1C3C  
                                 u3650 1FAC                                   u2851 1E94  
                                 u2771 0CDA                                   u2691 0A6C  
                                 u2931 1DEC                                   u2915 1DA4  
                                 u3491 1180                                   u3571 2102  
                                 u3731 1C38                                   u3651 1FA8  
                                 _PEIE 007F96                                   u2860 1ED6  
                                 u2780 0D0C                                   u2940 1E18  
                                 u3740 1C52                                   u3660 1FCA  
                                 u2861 1ED2                                   u2781 0D08  
                                 u2941 1E14                                   u3741 1C4E  
                                 u3661 1FC6                                   u2870 1EF4  
                                 u2790 0D22                                   u2950 1E38  
                                 u3750 1D5C                                   u3670 2058  
                                 u2871 1EF0                                   u2791 0D1E  
                                 u2951 1E34                                   u3751 1D58  
                                 u3671 2054                                   u3680 21BE  
                                 u2880 1F14                                   u2960 1E48  
                                 u3760 2122                                   u3681 21BA  
                                 u2881 1F10                                   u2961 1E44  
                                 u3761 211E                                   u3690 21EC  
                                 u2890 1F64                                   u2970 1760  
                                 u3691 21E8                                   u2891 1F60  
                                 u2971 175C                                   u3771 2176  
                                 u2980 176E                                   u3780 2192  
                                 i2l21 22B0                                   u2981 176A  
                                 u3781 218E                                   u2990 17CA  
                                 u3950 1650                                   u2991 17C6  
                                 u3951 164C                                   u3960 1710  
                                 u3961 170C                                   u3970 1726  
                                 u3971 1722                                   u3980 1966  
                                 u3981 1962                                   u3990 19CE  
                                 u3991 19CA                                   _TMR2 000FBC  
                                 _WPUB 000F61                                   _main 1902  
                     __end_of_I2C_Init 174E                                   fsr1h 000FE2  
                                 fsr2h 000FDA                                   indf1 000FE7  
                                 indf2 000FDF                                   fsr1l 000FE1  
                                 fsr2l 000FD9                                   btemp 004E  
                        __CFG_BORV$190 000000                                   prodh 000FF4  
                                 prodl 000FF3                                   start 0052  
                        __CFG_IESO$OFF 000000                        ___fldiv@new_exp 0031  
                     ?_I2C_Read_Buffer 0012                           ___param_bank 000000  
         I2C_timer_prescaler@prescUsed 0041                          ___fltol@sign1 001A  
                      __end_of___fladd 09F4                                  ?_main 0001  
                      __end_of___fldiv 1558                        __end_of___flmul 0E1E  
                      __end_of___flsub 22F8                        __end_of___fltol 1E6A  
     I2C_Read_Register_Request@adresse 0019                                  i2l200 0532  
                                i2l143 009C                                  i2l161 0204  
                                i2l138 0502                                  i2l148 0500  
                                i2l149 00DA                                  i2l174 0322  
                                i2l159 0182                                  i2l168 023C  
                                i2l193 0436                                  i2l185 03D4  
                                i2l177 0330                                  _TRISA 000F92  
                                _TRISB 000F93                                  _TRISC 000F94  
                                _TRISD 000F95                                  _TRISE 000F96  
                   __size_of_ISR_Tasks 004A                          __CFG_WRT0$OFF 000000  
                        __CFG_WRT1$OFF 000000                       __end_of_ISR_Init 231E  
                        __CFG_WRT2$OFF 000000                          __CFG_WRT3$OFF 000000  
                       __CFG_EBTR0$OFF 000000                         __CFG_FCMEN$OFF 000000  
                       __CFG_EBTR1$OFF 000000                         __CFG_EBTR2$OFF 000000  
                       __CFG_EBTR3$OFF 000000                          __CFG_WRTB$OFF 000000  
                        __CFG_WRTC$OFF 000000                          __CFG_WRTD$OFF 000000  
     I2C_Read_Register_Request@rcvData 0015                         __CFG_EBTRB$OFF 000000  
                   __CFG_MCLRE$EXTMCLR 000000                                  _timer 0046  
                    __end_of_I2C_Write 2066                         __CFG_BOREN$OFF 000000  
                                pclath 000FFA                                  tablat 000FF5  
                                plusw1 000FE3                                  plusw2 000FDB  
                                ttemp5 004F                                  ttemp6 0052  
                                ttemp7 0056                                  status 000FD8  
                                wtemp8 004F                         __CFG_FOSC$HSHP 000000  
                      __initialization 2216                           __end_of_main 1A8C  
                            ??_I2C_ISR 0001               I2C_timer_prescaler@presc 003F  
                               ??_main 0045                          __activetblptr 000002  
              __size_of_I2C_Get_Status 006C                         __CFG_PLLCFG$ON 000000  
                         ?_ISR_Routine 0001                                 _ANSELA 000F38  
                               _ANSELB 000F39                                 _ANSELC 000F3A  
                               _ANSELE 000F3C                                 i2l3001 030A  
                               i2l3011 0354                                 i2l3003 031C  
                               i2l3021 039E                                 i2l3013 0364  
                               i2l3005 0328                                 i2l3031 03E2  
                               i2l3015 0374                                 i2l3023 03A6  
                               i2l3007 033E                                 i2l3033 03F2  
                               i2l3041 041C                                 i2l3025 03B8  
                               i2l3017 0386                                 i2l3009 0342  
                               i2l3051 045A                                 i2l3043 042E  
                               i2l3027 03C8                                 i2l3019 038E  
                               i2l3053 046A                                 i2l3037 0408  
                               i2l3029 03CC                                 i2l3071 0530  
                               i2l3055 0472                                 i2l3047 0444  
                               i2l3057 0484                                 i2l3049 0448  
                               i2l3065 049C                                 i2l3161 2268  
                               i2l3067 0510                                 i2l3059 0494  
                               i2l3163 2270                                 i2l3069 052A  
                               i2l3165 229A                         __CFG_WDTEN$OFF 000000  
                               i2l3167 229C                                 i2l2901 00BE  
                               i2l2911 0108                                 i2l2903 00C6  
                               i2l2913 010A                                 i2l2921 012E  
                               i2l2905 00D2                                 i2l2931 015C  
                               i2l2923 013E                                 i2l2915 010C  
                               i2l2907 00E8                                 i2l2925 0140  
                               i2l2917 011C                                 i2l2909 00F8  
                               i2l2933 0164                                 i2l3389 002A  
                               i2l2951 01D8                                 i2l2943 0184  
                               i2l2935 0168                                 i2l2927 0142  
                               i2l2919 0124                                 i2l2961 0206  
                               i2l2953 01DA                                 i2l2945 018C  
                               i2l2937 017A                                 i2l2929 0154  
                               i2l2971 0226                                 i2l2963 0216  
                               i2l2955 01EA                                 i2l2947 01C6  
                               i2l2891 0064                                 i2l2981 0250  
                               i2l2965 0218                                 i2l2957 01F2  
                               i2l2949 01C8                                 i2l2893 0072  
                               i2l3759 04B2                                 i2l2991 02E0  
                               i2l2983 0290                                 i2l2967 021C  
                               i2l2959 01FC                                 i2l2895 0086  
                               i2l2993 02E2                                 i2l2985 0292  
                               i2l2969 0222                                 i2l2897 00A0  
                               i2l2889 0056                                 i2l2995 02F4  
                               i2l2987 029A                                 i2l2979 0240  
                               i2l2899 00B8                                 i2l2997 02F6  
                               i2l2989 02C4                                 i2l2999 0306  
                               _TMR2IE 007CE9                                 _TMR2IF 007CF1  
                               _SSP1IE 007CEB                                 _SSP1IF 007CF3  
                  _I2C_timer_prescaler 0E1E                       __end_of___xxtofl 1902  
                    __end_of_ISR_Tasks 22B2                         __CFG_XINST$OFF 000000  
                               ___flge 1E6A                                 ___fleq 2066  
                            ??___fladd 001A                              ??___fldiv 0028  
                       __CFG_STVREN$ON 000000                              ??___flmul 001A  
                            ??___flsub 002A                              ??___fltol 0016  
                               _memset 1A8C                                 clear_0 223C  
                               clear_1 2248                                 clear_2 2254  
                 ?_I2C_timer_prescaler 0039                              ?_I2C_Init 0076  
                               tblptrh 000FF7                                 tblptrl 000FF6  
                               tblptru 000FF8                        __CFG_HFOFST$OFF 000000  
                           ___flge@ff1 002B                             ___flge@ff2 002F  
                         ___xxtofl@arg 001C                           ___xxtofl@exp 001B  
                         ___xxtofl@val 0012                             ___fleq@ff1 0012  
                           ___fleq@ff2 0016                             __accesstop 0060  
              __end_of__initialization 225A                        __CFG_PBADEN$OFF 000000  
                        ___rparam_used 000001                             ___fltol@f1 0012  
                       __pcstackCOMRAM 0001                              ?_ISR_Init 0001  
                         __pidataBANK0 231E                  ??_I2C_timer_prescaler 0045  
               I2C_timer_prescaler@min 0043                             ??_I2C_Init 0078  
                           I2C_ISR@ack 004A                    I2C_Read_Buffer@data 0018  
                           __pbssBANK0 0095                             __pbssBANK1 0100  
                 I2C_timer_prescaler@x 0068                         main@bufferSize 008A  
                   __CFG_CCP2MX$PORTC1 000000                         I2C_Init@prUsed 007D  
                           ??_ISR_Init 0012                                ?___flge 002B  
                              ?___fleq 0012                     __CFG_CCP3MX$PORTB5 000000  
                              _I2C_ISR 0056                                ?_memset 0012  
                       _I2C_Get_Status 21AA                              ?___xxtofl 0012  
                              _SSP1ADD 000FC8                                _SSP1BUF 000FC9  
       I2C_Read_Register_Request@delay 0018           __size_of_ISR_ConnectFunction 001E  
                            _I2CConfig 0100                   __size_of_ISR_Routine 004A  
                            _I2C_Write 1F6E                        __CFG_PWRTEN$OFF 000000  
                              __Hparam 0000                              _I2Cadress 0048  
                              __Lparam 0000                         main@msgToWrite 0091  
                      __size_of___flge 0104                        __size_of___fleq 00AA  
                              ___fladd 0534                                ___fldiv 11BE  
                              ___flmul 09F4                                ___flsub 22B2  
                              ___fltol 1D64                 __end_of_I2C_Get_Status 2216  
                     I2C_Read_Buffer@i 001A                                __pcinit 2216  
                      __size_of_memset 0176                                __ramtop 0600  
             __size_of_I2C_Read_Buffer 009A                                __ptext0 1902  
                              __ptext1 2316                                __ptext2 22F8  
                              __ptext3 1F6E                                __ptext4 1C02  
                              __ptext5 2110                                __ptext6 1558  
                              __ptext7 1A8C                                __ptext8 2066  
                              __ptext9 0E1E                             fp__I2C_ISR 0000  
                            _T2CONbits 000FBA                             ??___xxtofl 0016  
                              _myMsgID 004D                                main@reg 0088  
                 end_of_initialization 225A                                memset@c 0014  
                              memset@k 001A                                memset@n 0016  
                              memset@s 001C                          __Lmediumconst 0000  
                           ?_I2C_Write 0012                       I2C_Write@adresse 0016  
                            _ISRConfig 0095                                postdec1 000FE5  
                              postdec2 000FDD                                postinc0 000FEE  
                              postinc2 000FDE                              _ISR_Tasks 2268  
                      ?_I2C_Get_Status 0012                 I2C_Read_Buffer@adresse 0012  
                          ___fladd@grs 0021                        I2C_Get_Status@i 0016  
                        ___xxtofl@sign 001A                      __size_of_I2C_Init 01F6  
                          ___fldiv@grs 0033                            ___fldiv@rem 002C  
                           main@Status 008F                            ___flmul@grs 001F  
                           main@buffer 008D                             ?_ISR_Tasks 0001  
                       __end_of___flge 1F6E                         __end_of___fleq 2110  
                    __size_of_ISR_Init 0008                         __end_of_memset 1C02  
   __size_of_I2C_Read_Register_Request 0162             ?_I2C_Read_Register_Request 0012  
                  start_initialization 2216  I2C_Read_Register_Request@sendsizeData 0014  
                    ??_I2C_Read_Buffer 0016                I2C_timer_prescaler@minB 006C  
              I2C_timer_prescaler@pr_f 0070                               I2C_ISR@i 004C  
                          ??_I2C_Write 0016            __end_of_I2C_timer_prescaler 11BE  
                             ??___flge 0033                               ??___fleq 001A  
                  _ISR_ConnectFunction 22F8                            __pdataBANK0 00AA  
                             ?_I2C_ISR 0001                               ??_memset 0018  
                           memset@dest 0012                         I2C_Write@delay 0015  
                          I2C_ISR@test 004B                            I2C_ISR@type 0008  
                            ___fladd@a 0016                              ___fladd@b 0012  
                            ___fldiv@a 0024                              ___fldiv@b 0020  
    __end_of_I2C_Read_Register_Request 1D64                              ___flmul@a 0016  
                            ___flmul@b 0012                            __pbssCOMRAM 0046  
                            ___flsub@a 0026                              ___flsub@b 0022  
                        __pcstackBANK0 0060                      __size_of___xxtofl 01B4  
                 ?_ISR_ConnectFunction 0012                        I2C_Init@Options 007A  
                I2C_timer_prescaler@pr 0074                            I2C_Init@min 007F  
                            __pintcode 0008                               ?___fladd 0012  
                             ?___fldiv 0020                               ?___flmul 0012  
                             ?___flsub 0022                               ?___fltol 0012  
                          ??_ISR_Tasks 0009                             ISR_Tasks@i 0009  
                     __CFG_PRICLKEN$ON 000000                      I2C_Init@prescUsed 007B  
                             _I2C_Init 1558                  ??_ISR_ConnectFunction 0014  
                        ??_ISR_Routine 000A                               i2u310_40 0098  
                             i2u310_41 0094                               i2u311_40 00B8  
                             i2u311_41 00B4                               i2u320_40 0250  
                             i2u312_40 00E8                               i2u320_41 024C  
                             i2u312_41 00E4                               i2u313_40 00F8  
                             i2u321_41 02BC                               i2u313_41 00F4  
                             i2u330_40 039E                               i2u322_40 02F4  
                             i2u314_40 011C                               i2u330_41 039A  
                             i2u322_41 02F0                               i2u314_41 0118  
                             i2u331_40 03B8                               i2u323_40 0306  
                             i2u315_40 0154                               i2u307_40 0064  
                             i2u331_41 03B4                               i2u323_41 0302  
                             i2u315_41 0150                               i2u307_41 0060  
                             i2u340_40 046A                               i2u332_40 03C8  
                             i2u324_40 031C                               i2u316_40 017A  
                             i2u308_40 0072                               i2u340_41 0466  
                             i2u332_41 03C4                               i2u324_41 0318  
                             i2u316_41 0176                               i2u308_41 006E  
                             i2u341_40 0484                               i2u333_40 03E2  
                             i2u325_40 033E                               i2u317_40 01C6  
                             i2u309_40 0086                               i2u341_41 0480  
                             i2u333_41 03DE                               i2u325_41 033A  
                             i2u317_41 01C2                               i2u309_41 0082  
                             i2u342_40 0494                               i2u334_40 03F2  
                             i2u326_40 0354                               i2u318_40 01EA  
                             i2u342_41 0490                               i2u334_41 03EE  
                             i2u326_41 0350                               i2u318_41 01E6  
                             i2u343_40 0510                               i2u335_40 0404  
                             i2u327_40 0364                               i2u319_40 0238  
                             i2u343_41 050C                               i2u335_41 0400  
                             i2u327_41 0360                               i2u319_41 0234  
                             i2u344_40 052A                               i2u336_40 0418  
                             i2u328_40 0374                               i2u344_41 0526  
                             i2u336_41 0414                               i2u328_41 0370  
                             i2u337_40 042E                               i2u329_40 0386  
                             i2u337_41 042A                               i2u329_41 0382  
                             i2u338_40 0444                               i2u338_41 0440  
                     ??_I2C_Get_Status 0014                               i2u339_40 045A  
                             i2u339_41 0456                               i2u359_40 22B0  
                             i2u358_48 2286                               i2u359_41 22AC  
                             i2u358_49 229A                               _ISR_Init 2316  
                     __CFG_WDTPS$32768 000000                              main@F6241 00AA  
                            main@F6244 00AD                       __size_of_I2C_ISR 04DE  
                          _INTCON2bits 000FF1                              copy_data0 222A  
                  __end_of_ISR_Routine 0052                               __Hrparam 0000  
    I2C_Read_Register_Request@sendData 0012                               __Lrparam 0000  
                    __CFG_P2BMX$PORTD2 000000                          I2C_Write@data 0012  
                     __size_of___fladd 04C0                       __size_of___fldiv 039A  
                     __size_of___flmul 042A                       __size_of___flsub 0046  
                     __size_of___fltol 0106                        _I2C_Read_Buffer 2110  
          ??_I2C_Read_Register_Request 0019                               ___xxtofl 174E  
                             __ptext10 174E                               __ptext11 1D64  
                             __ptext20 0056                               __ptext12 22B2  
                             __ptext21 0000                               __ptext13 0534  
                             __ptext14 09F4                               __ptext15 1E6A  
                             __ptext16 11BE                               __ptext17 21AA  
                             __ptext19 2268                           _SSP1CON1bits 000FC6  
                         _SSP1CON2bits 000FC5                          __size_of_main 018A  
                             int$flags 004E                               main@data 0083  
                         _SSP1STATbits 000FC7              I2C_timer_prescaler@prUsed 003D  
            I2C_timer_prescaler@period 0039            ISR_ConnectFunction@Function 0012  
                           _INTCONbits 000FF2                            _ISR_Routine 0008  
                             intlevel2 0000              _I2C_Read_Register_Request 1C02  
                           _OSCCONbits 000FD3                __end_of_I2C_Read_Buffer 21AA  
                  I2C_Get_Status@MsgID 0015           __size_of_I2C_timer_prescaler 03A0  
                    __CFG_T3CMX$PORTC0 000000                          ___fladd@signs 001E  
                    I2C_Write@sizeData 0014                           ___fladd@aexp 001F  
                         ___fladd@bexp 0020                _I2C_timer_prescaler$752 0060  
              _I2C_timer_prescaler$753 0064  
