

Microchip MPLAB XC8 Assembler V2.10 build 88905656 
                                                                                               Thu May 07 18:56:35 2020

Microchip MPLAB XC8 C Compiler v2.10 (Free license) build 20190730164152 Og1 
     1                           	processor	18F45K22
     2                           	fnconf	rparam,??,?,0
     3                           	opt	pw 120
     4                           	opt	flic
     5                           	psect	idataBANK1,global,class=CODE,delta=1,noexec
     6                           	psect	cinit,global,reloc=2,class=CODE,delta=1
     7                           	psect	bssBANK0,global,class=BANK0,space=1,delta=1,lowdata,noexec
     8                           	psect	bssBANK1,global,class=BANK1,space=1,delta=1,lowdata,noexec
     9                           	psect	dataBANK1,global,class=BANK1,space=1,delta=1,lowdata,noexec
    10                           	psect	bssBANK2,global,class=BANK2,space=1,delta=1,lowdata,noexec
    11                           	psect	cstackBANK3,global,class=BANK3,space=1,delta=1,noexec
    12                           	psect	cstackBANK2,global,class=BANK2,space=1,delta=1,noexec
    13                           	psect	cstackBANK1,global,class=BANK1,space=1,delta=1,noexec
    14                           	psect	cstackBANK0,global,class=BANK0,space=1,delta=1,noexec
    15                           	psect	cstackCOMRAM,global,class=COMRAM,space=1,delta=1,noexec
    16                           	psect	text0,global,reloc=2,class=CODE,delta=1
    17                           	psect	text1,global,reloc=2,class=CODE,delta=1
    18                           	psect	text2,global,reloc=2,class=CODE,delta=1
    19                           	psect	text3,global,reloc=2,class=CODE,delta=1
    20                           	psect	text4,global,reloc=2,class=CODE,delta=1
    21                           	psect	text5,global,reloc=2,class=CODE,delta=1
    22                           	psect	text6,global,reloc=2,class=CODE,delta=1
    23                           	psect	text7,global,reloc=2,class=CODE,delta=1
    24                           	psect	text8,global,reloc=2,class=CODE,delta=1
    25                           	psect	text9,global,reloc=2,class=CODE,delta=1
    26                           	psect	text10,global,reloc=2,class=CODE,delta=1
    27                           	psect	text11,global,reloc=2,class=CODE,delta=1
    28                           	psect	text12,global,reloc=2,class=CODE,delta=1
    29                           	psect	text13,global,reloc=2,class=CODE,delta=1
    30                           	psect	text14,global,reloc=2,class=CODE,delta=1,group=2
    31                           	psect	text15,global,reloc=2,class=CODE,delta=1
    32                           	psect	text16,global,reloc=2,class=CODE,delta=1
    33                           	psect	text17,global,reloc=2,class=CODE,delta=1,group=1
    34                           	psect	text18,global,reloc=2,class=CODE,delta=1
    35                           	psect	text19,global,reloc=2,class=CODE,delta=1,group=1
    36                           	psect	text20,global,reloc=2,class=CODE,delta=1,group=1
    37                           	psect	text21,global,reloc=2,class=CODE,delta=1,group=1
    38                           	psect	text22,global,reloc=2,class=CODE,delta=1,group=1
    39                           	psect	text23,global,reloc=2,class=CODE,delta=1,group=1
    40                           	psect	text24,global,reloc=2,class=CODE,delta=1,group=1
    41                           	psect	text25,global,reloc=2,class=CODE,delta=1,group=1
    42                           	psect	text26,global,reloc=2,class=CODE,delta=1
    43                           	psect	text27,global,reloc=2,class=CODE,delta=1
    44                           	psect	text28,global,reloc=2,class=CODE,delta=1
    45                           	psect	text29,global,reloc=2,class=CODE,delta=1,group=2
    46                           	psect	intcode,global,reloc=2,class=CODE,delta=1
    47                           	psect	text31,global,reloc=2,class=CODE,delta=1
    48                           	psect	text32,global,reloc=2,class=CODE,delta=1
    49                           	psect	text33,global,reloc=2,class=CODE,delta=1
    50                           	psect	text34,global,reloc=2,class=CODE,delta=1
    51                           	psect	intsave_regs,global,class=BIGRAM,space=1,delta=1,noexec
    52                           	psect	text35,global,reloc=2,class=CODE,delta=1
    53                           	psect	rparam,global,class=COMRAM,space=1,delta=1,noexec
    54                           	psect	temp,global,ovrld,common,class=COMRAM,space=1,delta=1
    55  0000                     
    56                           ; Version 2.10
    57                           ; Generated 31/07/2019 GMT
    58                           ; 
    59                           ; Copyright © 2019, Microchip Technology Inc. and its subsidiaries ("Microchip")
    60                           ; All rights reserved.
    61                           ; 
    62                           ; This software is developed by Microchip Technology Inc. and its subsidiaries ("Microch
      +                          ip").
    63                           ; 
    64                           ; Redistribution and use in source and binary forms, with or without modification, are
    65                           ; permitted provided that the following conditions are met:
    66                           ; 
    67                           ;     1. Redistributions of source code must retain the above copyright notice, this lis
      +                          t of
    68                           ;        conditions and the following disclaimer.
    69                           ; 
    70                           ;     2. Redistributions in binary form must reproduce the above copyright notice, this 
      +                          list
    71                           ;        of conditions and the following disclaimer in the documentation and/or other
    72                           ;        materials provided with the distribution.
    73                           ; 
    74                           ;     3. Microchip's name may not be used to endorse or promote products derived from th
      +                          is
    75                           ;        software without specific prior written permission.
    76                           ; 
    77                           ; THIS SOFTWARE IS PROVIDED BY MICROCHIP "AS IS" AND ANY EXPRESS OR IMPLIED WARRANTIES,
    78                           ; INCLUDING, BUT NOT LIMITED TO, THE IMPLIED WARRANTIES OF MERCHANTABILITY AND FITNESS F
      +                          OR
    79                           ; PURPOSE ARE DISCLAIMED.  IN NO EVENT SHALL MICROCHIP BE LIABLE FOR ANY DIRECT, INDIREC
      +                          T,
    80                           ; INCIDENTAL, SPECIAL, EXEMPLARY, OR CONSEQUENTIAL DAMAGES (INCLUDING BUT NOT LIMITED TO
    81                           ; PROCUREMENT OF SUBSTITUTE GOODS OR SERVICES; LOSS OF USE, DATA OR PROFITS; OR BUSINESS
    82                           ; INTERRUPTION) HOWSOEVER CAUSED AND ON ANY THEORY OF LIABILITY, WHETHER IN CONTRACT, ST
      +                          RICT
    83                           ; LIABILITY, OR TORT (INCLUDING NEGLIGENCE OR OTHERWISE) ARISING IN ANY WAY OUT OF THE U
      +                          SE OF
    84                           ; THIS SOFTWARE, EVEN IF ADVISED OF THE POSSIBILITY OF SUCH DAMAGE.
    85                           ; 
    86                           ; 
    87                           ; Code-generator required, PIC18F45K22 Definitions
    88                           ; 
    89                           ; SFR Addresses
    90  0000                     
    91                           	psect	idataBANK1
    92  003A80                     __pidataBANK1:
    93                           	opt callstack 0
    94                           
    95                           ;initializer for main@F6289
    96  003A80  12                 	db	18
    97  003A81  13                 	db	19
    98  003A82  21                 	db	33
    99  0000                     _ANSELB	set	3897
   100  0000                     _ANSELE	set	3900
   101  0000                     _ANSELC	set	3898
   102  0000                     _ANSELA	set	3896
   103  0000                     _SSP1STATbits	set	4039
   104  0000                     _SSP1ADD	set	4040
   105  0000                     _SSP1CON1bits	set	4038
   106  0000                     _TMR2	set	4028
   107  0000                     _PR2	set	4027
   108  0000                     _T2CONbits	set	4026
   109  0000                     _SSP1CON2bits	set	4037
   110  0000                     _SSP1BUF	set	4041
   111  0000                     _LATB	set	3978
   112  0000                     _LATE	set	3981
   113  0000                     _LATD	set	3980
   114  0000                     _INTCONbits	set	4082
   115  0000                     _INTCON2bits	set	4081
   116  0000                     _WPUB	set	3937
   117  0000                     _TRISB	set	3987
   118  0000                     _TRISE	set	3990
   119  0000                     _TRISD	set	3989
   120  0000                     _TRISC	set	3988
   121  0000                     _TRISA	set	3986
   122  0000                     _OSCCONbits	set	4051
   123  0000                     _SSP1IE	set	31979
   124  0000                     _TMR2IE	set	31977
   125  0000                     _GIE	set	32663
   126  0000                     _PEIE	set	32662
   127  0000                     _TMR2IF	set	31985
   128  0000                     _SSP1IF	set	31987
   129                           
   130                           ; #config settings
   131  0000                     
   132                           	psect	cinit
   133  003896                     __pcinit:
   134                           	opt callstack 0
   135  003896                     start_initialization:
   136                           	opt callstack 0
   137  003896                     __initialization:
   138                           	opt callstack 0
   139                           
   140                           ; Initialize objects allocated to BANK1 (3 bytes)
   141                           ; load TBLPTR registers with __pidataBANK1
   142  003896  0E80               	movlw	low __pidataBANK1
   143  003898  6EF6               	movwf	tblptrl,c
   144  00389A  0E3A               	movlw	high __pidataBANK1
   145  00389C  6EF7               	movwf	tblptrh,c
   146  00389E  0E00               	movlw	low (__pidataBANK1 shr (0+16))
   147  0038A0  6EF8               	movwf	tblptru,c
   148  0038A2  0009               	tblrd		*+	;fetch initializer
   149  0038A4  CFF5 F1FC          	movff	tablat,__pdataBANK1
   150  0038A8  0009               	tblrd		*+	;fetch initializer
   151  0038AA  CFF5 F1FD          	movff	tablat,__pdataBANK1+1
   152  0038AE  0009               	tblrd		*+	;fetch initializer
   153  0038B0  CFF5 F1FE          	movff	tablat,__pdataBANK1+2
   154                           
   155                           ; Clear objects allocated to BANK2 (252 bytes)
   156  0038B4  EE02  F000         	lfsr	0,__pbssBANK2
   157  0038B8  0EFC               	movlw	252
   158  0038BA                     clear_0:
   159  0038BA  6AEE               	clrf	postinc0,c
   160  0038BC  06E8               	decf	wreg,f,c
   161  0038BE  E1FD               	bnz	clear_0
   162                           
   163                           ; Clear objects allocated to BANK1 (180 bytes)
   164  0038C0  EE01  F000         	lfsr	0,__pbssBANK1
   165  0038C4  0EB4               	movlw	180
   166  0038C6                     clear_1:
   167  0038C6  6AEE               	clrf	postinc0,c
   168  0038C8  06E8               	decf	wreg,f,c
   169  0038CA  E1FD               	bnz	clear_1
   170                           
   171                           ; Clear objects allocated to BANK0 (32 bytes)
   172  0038CC  EE00  F0C0         	lfsr	0,__pbssBANK0
   173  0038D0  0E20               	movlw	32
   174  0038D2                     clear_2:
   175  0038D2  6AEE               	clrf	postinc0,c
   176  0038D4  06E8               	decf	wreg,f,c
   177  0038D6  E1FD               	bnz	clear_2
   178  0038D8                     end_of_initialization:
   179                           	opt callstack 0
   180  0038D8                     __end_of__initialization:
   181                           	opt callstack 0
   182  0038D8  905F               	bcf	int$flags,0,c	;clear compiler interrupt flag (level 1)
   183  0038DA  925F               	bcf	int$flags,1,c	;clear compiler interrupt flag (level 2)
   184  0038DC  0E00               	movlw	low (__Lmediumconst shr (0+16))
   185  0038DE  6EF8               	movwf	tblptru,c
   186  0038E0  0100               	movlb	0
   187  0038E2  EF46  F014         	goto	_main	;jump to C main() function
   188                           
   189                           	psect	bssBANK0
   190  0000C0                     __pbssBANK0:
   191                           	opt callstack 0
   192  0000C0                     _ISRConfig:
   193                           	opt callstack 0
   194  0000C0                     	ds	21
   195  0000D5                     _myMemID:
   196                           	opt callstack 0
   197  0000D5                     	ds	2
   198  0000D7                     _timer:
   199                           	opt callstack 0
   200  0000D7                     	ds	2
   201  0000D9                     _PointerRefresh:
   202                           	opt callstack 0
   203  0000D9                     	ds	2
   204  0000DB                     _I2Cadress:
   205                           	opt callstack 0
   206  0000DB                     	ds	2
   207  0000DD                     I2C_ISR@ack:
   208                           	opt callstack 0
   209  0000DD                     	ds	1
   210  0000DE                     I2C_ISR@i:
   211                           	opt callstack 0
   212  0000DE                     	ds	1
   213  0000DF                     _myMsgID:
   214                           	opt callstack 0
   215  0000DF                     	ds	1
   216                           
   217                           	psect	bssBANK1
   218  000100                     __pbssBANK1:
   219                           	opt callstack 0
   220  000100                     _I2CMemory:
   221                           	opt callstack 0
   222  000100                     	ds	11
   223  00010B                     _I2CConfig:
   224                           	opt callstack 0
   225  00010B                     	ds	167
   226  0001B2                     _nulPointer:
   227                           	opt callstack 0
   228  0001B2                     	ds	2
   229                           
   230                           	psect	dataBANK1
   231  0001FC                     __pdataBANK1:
   232                           	opt callstack 0
   233  0001FC                     main@F6289:
   234                           	opt callstack 0
   235  0001FC                     	ds	3
   236                           
   237                           	psect	bssBANK2
   238  000200                     __pbssBANK2:
   239                           	opt callstack 0
   240  000200                     _array:
   241                           	opt callstack 0
   242  000200                     	ds	122
   243  00027A                     _memory:
   244                           	opt callstack 0
   245  00027A                     	ds	130
   246                           
   247                           	psect	cstackBANK3
   248  000300                     __pcstackBANK3:
   249                           	opt callstack 0
   250  000300                     main@bufferSize:
   251                           	opt callstack 0
   252                           
   253                           ; 1 bytes @ 0x0
   254  000300                     	ds	1
   255  000301                     main@buffer:
   256                           	opt callstack 0
   257                           
   258                           ; 2 bytes @ 0x1
   259  000301                     	ds	2
   260  000303                     main@point:
   261                           	opt callstack 0
   262                           
   263                           ; 2 bytes @ 0x3
   264  000303                     	ds	2
   265  000305                     main@data:
   266                           	opt callstack 0
   267                           
   268                           ; 3 bytes @ 0x5
   269  000305                     	ds	3
   270  000308                     main@adresse:
   271                           	opt callstack 0
   272                           
   273                           ; 1 bytes @ 0x8
   274  000308                     	ds	1
   275  000309                     main@Status:
   276                           	opt callstack 0
   277                           
   278                           ; 2 bytes @ 0x9
   279  000309                     	ds	2
   280                           
   281                           	psect	cstackBANK2
   282  0002FC                     __pcstackBANK2:
   283                           	opt callstack 0
   284  0002FC                     
   285                           ; 1 bytes @ 0x0
   286  0002FC                     	ds	2
   287                           
   288                           	psect	cstackBANK1
   289  0001B4                     __pcstackBANK1:
   290                           	opt callstack 0
   291  0001B4                     _I2C_timer_prescaler$1029:
   292                           	opt callstack 0
   293  0001B4                     getFree@tab:
   294                           	opt callstack 0
   295                           
   296                           ; 64 bytes @ 0x0
   297  0001B4                     	ds	4
   298  0001B8                     _I2C_timer_prescaler$1030:
   299                           	opt callstack 0
   300                           
   301                           ; 4 bytes @ 0x4
   302  0001B8                     	ds	4
   303  0001BC                     I2C_timer_prescaler@x:
   304                           	opt callstack 0
   305                           
   306                           ; 4 bytes @ 0x8
   307  0001BC                     	ds	4
   308  0001C0                     I2C_timer_prescaler@minB:
   309                           	opt callstack 0
   310                           
   311                           ; 4 bytes @ 0xC
   312  0001C0                     	ds	4
   313  0001C4                     I2C_timer_prescaler@pr_f:
   314                           	opt callstack 0
   315                           
   316                           ; 4 bytes @ 0x10
   317  0001C4                     	ds	4
   318  0001C8                     I2C_timer_prescaler@pr:
   319                           	opt callstack 0
   320                           
   321                           ; 2 bytes @ 0x14
   322  0001C8                     	ds	44
   323  0001F4                     getFree@tabPoint:
   324                           	opt callstack 0
   325                           
   326                           ; 2 bytes @ 0x40
   327  0001F4                     	ds	2
   328  0001F6                     getFree@indice:
   329                           	opt callstack 0
   330                           
   331                           ; 1 bytes @ 0x42
   332  0001F6                     	ds	1
   333  0001F7                     getFree@i:
   334                           	opt callstack 0
   335                           
   336                           ; 1 bytes @ 0x43
   337  0001F7                     	ds	1
   338  0001F8                     ?_I2C_Read_Buffer:
   339                           	opt callstack 0
   340  0001F8                     I2C_Read_Buffer@adresse:
   341                           	opt callstack 0
   342                           
   343                           ; 2 bytes @ 0x44
   344  0001F8                     	ds	2
   345  0001FA                     I2C_Read_Buffer@sizeData:
   346                           	opt callstack 0
   347                           
   348                           ; 2 bytes @ 0x46
   349  0001FA                     	ds	2
   350                           
   351                           	psect	cstackBANK0
   352  000060                     __pcstackBANK0:
   353                           	opt callstack 0
   354  000060                     ??_I2C_ISR:
   355                           
   356                           ; 1 bytes @ 0x0
   357  000060                     	ds	7
   358  000067                     I2C_ISR@Pointeur:
   359                           	opt callstack 0
   360                           
   361                           ; 2 bytes @ 0x7
   362  000067                     	ds	2
   363  000069                     I2C_ISR@point:
   364                           	opt callstack 0
   365                           
   366                           ; 2 bytes @ 0x9
   367  000069                     	ds	2
   368  00006B                     I2C_ISR@Pointeur_727:
   369                           	opt callstack 0
   370                           
   371                           ; 2 bytes @ 0xB
   372  00006B                     	ds	2
   373  00006D                     I2C_ISR@point_728:
   374                           	opt callstack 0
   375                           
   376                           ; 2 bytes @ 0xD
   377  00006D                     	ds	2
   378  00006F                     I2C_ISR@Pointeur_729:
   379                           	opt callstack 0
   380                           
   381                           ; 2 bytes @ 0xF
   382  00006F                     	ds	2
   383  000071                     I2C_ISR@point_730:
   384                           	opt callstack 0
   385                           
   386                           ; 2 bytes @ 0x11
   387  000071                     	ds	2
   388  000073                     I2C_ISR@Pointeur_731:
   389                           	opt callstack 0
   390                           
   391                           ; 2 bytes @ 0x13
   392  000073                     	ds	2
   393  000075                     I2C_ISR@point_732:
   394                           	opt callstack 0
   395                           
   396                           ; 2 bytes @ 0x15
   397  000075                     	ds	2
   398  000077                     I2C_ISR@type:
   399                           	opt callstack 0
   400                           
   401                           ; 1 bytes @ 0x17
   402  000077                     	ds	1
   403  000078                     ??_ISR_Routine:
   404                           
   405                           ; 1 bytes @ 0x18
   406  000078                     	ds	8
   407  000080                     ??_getFreeFull:
   408  000080                     ?_getMemoryID:
   409                           	opt callstack 0
   410  000080                     ?_getMemoryFromID:
   411                           	opt callstack 0
   412  000080                     ?_myMalloc:
   413                           	opt callstack 0
   414  000080                     ?___fladd:
   415                           	opt callstack 0
   416  000080                     ?___flmul:
   417                           	opt callstack 0
   418  000080                     ?___fltol:
   419                           	opt callstack 0
   420  000080                     ?___xxtofl:
   421                           	opt callstack 0
   422  000080                     myMalloc@memoryNumber:
   423                           	opt callstack 0
   424  000080                     getMemoryFromID@memoryNumber:
   425                           	opt callstack 0
   426  000080                     ISR_ConnectFunction@Function:
   427                           	opt callstack 0
   428  000080                     getMemoryID@Pointer:
   429                           	opt callstack 0
   430  000080                     I2C_Master_Start@adresse:
   431                           	opt callstack 0
   432  000080                     I2C_Master_Write@data:
   433                           	opt callstack 0
   434  000080                     memcpy@d1:
   435                           	opt callstack 0
   436  000080                     memset@dest:
   437                           	opt callstack 0
   438  000080                     ___fleq@ff1:
   439                           	opt callstack 0
   440  000080                     ___fltol@f1:
   441                           	opt callstack 0
   442  000080                     ___fladd@b:
   443                           	opt callstack 0
   444  000080                     ___flmul@b:
   445                           	opt callstack 0
   446  000080                     ___xxtofl@val:
   447                           	opt callstack 0
   448                           
   449                           ; 4 bytes @ 0x20
   450  000080                     	ds	2
   451  000082                     ??_getMemoryFromID:
   452  000082                     ??_myMalloc:
   453  000082                     getMemoryID@memoryNumber:
   454                           	opt callstack 0
   455  000082                     memcpy@s1:
   456                           	opt callstack 0
   457  000082                     memset@c:
   458                           	opt callstack 0
   459                           
   460                           ; 2 bytes @ 0x22
   461  000082                     	ds	1
   462  000083                     ??_getMemoryID:
   463                           
   464                           ; 1 bytes @ 0x23
   465  000083                     	ds	1
   466  000084                     ??___fltol:
   467  000084                     ??___xxtofl:
   468  000084                     getFreeFull@memoryNumber:
   469                           	opt callstack 0
   470  000084                     memcpy@n:
   471                           	opt callstack 0
   472  000084                     memset@n:
   473                           	opt callstack 0
   474  000084                     ___fleq@ff2:
   475                           	opt callstack 0
   476  000084                     ___fladd@a:
   477                           	opt callstack 0
   478  000084                     ___flmul@a:
   479                           	opt callstack 0
   480                           
   481                           ; 4 bytes @ 0x24
   482  000084                     	ds	1
   483  000085                     myMalloc@sizeData:
   484                           	opt callstack 0
   485  000085                     getFreeFull@i:
   486                           	opt callstack 0
   487                           
   488                           ; 1 bytes @ 0x25
   489  000085                     	ds	1
   490  000086                     ??_memset:
   491  000086                     ?_getMemoryPointer:
   492                           	opt callstack 0
   493  000086                     getMemoryPointer@memoryNumber:
   494                           	opt callstack 0
   495  000086                     memcpy@tmp:
   496                           	opt callstack 0
   497                           
   498                           ; 1 bytes @ 0x26
   499  000086                     	ds	1
   500  000087                     getMemoryFromID@ID:
   501                           	opt callstack 0
   502  000087                     memcpy@d:
   503                           	opt callstack 0
   504                           
   505                           ; 2 bytes @ 0x27
   506  000087                     	ds	1
   507  000088                     ??_getMemoryPointer:
   508  000088                     ??___fladd:
   509  000088                     ??___flmul:
   510  000088                     ??___fleq:
   511  000088                     getMemoryID@indice:
   512                           	opt callstack 0
   513  000088                     getMemoryFromID@indice:
   514                           	opt callstack 0
   515  000088                     ___fltol@sign1:
   516                           	opt callstack 0
   517  000088                     ___xxtofl@sign:
   518                           	opt callstack 0
   519  000088                     memset@k:
   520                           	opt callstack 0
   521                           
   522                           ; 2 bytes @ 0x28
   523  000088                     	ds	1
   524  000089                     getMemoryID@i:
   525                           	opt callstack 0
   526  000089                     ___fltol@exp1:
   527                           	opt callstack 0
   528  000089                     ___xxtofl@exp:
   529                           	opt callstack 0
   530  000089                     getMemoryFromID@dP:
   531                           	opt callstack 0
   532  000089                     memcpy@s:
   533                           	opt callstack 0
   534                           
   535                           ; 2 bytes @ 0x29
   536  000089                     	ds	1
   537  00008A                     memset@s:
   538                           	opt callstack 0
   539  00008A                     ___xxtofl@arg:
   540                           	opt callstack 0
   541                           
   542                           ; 4 bytes @ 0x2A
   543  00008A                     	ds	1
   544  00008B                     getMemoryFromID@i:
   545                           	opt callstack 0
   546  00008B                     getFree@Pointer:
   547                           	opt callstack 0
   548                           
   549                           ; 2 bytes @ 0x2B
   550  00008B                     	ds	1
   551  00008C                     ___fladd@signs:
   552                           	opt callstack 0
   553  00008C                     ___flmul@sign:
   554                           	opt callstack 0
   555                           
   556                           ; 1 bytes @ 0x2C
   557  00008C                     	ds	1
   558  00008D                     getMemoryPointer@indice:
   559                           	opt callstack 0
   560  00008D                     getFree@memoryNumber:
   561                           	opt callstack 0
   562  00008D                     ___fladd@aexp:
   563                           	opt callstack 0
   564  00008D                     ___flmul@aexp:
   565                           	opt callstack 0
   566                           
   567                           ; 1 bytes @ 0x2D
   568  00008D                     	ds	1
   569  00008E                     ??_getFree:
   570  00008E                     ?___fldiv:
   571                           	opt callstack 0
   572  00008E                     ___fladd@bexp:
   573                           	opt callstack 0
   574  00008E                     getMemoryPointer@Pointer:
   575                           	opt callstack 0
   576  00008E                     ___fldiv@b:
   577                           	opt callstack 0
   578  00008E                     ___flmul@grs:
   579                           	opt callstack 0
   580                           
   581                           ; 4 bytes @ 0x2E
   582  00008E                     	ds	1
   583  00008F                     ___fladd@grs:
   584                           	opt callstack 0
   585                           
   586                           ; 1 bytes @ 0x2F
   587  00008F                     	ds	1
   588  000090                     ?___flsub:
   589                           	opt callstack 0
   590  000090                     getMemoryPointer@sizeData:
   591                           	opt callstack 0
   592  000090                     ___flsub@b:
   593                           	opt callstack 0
   594                           
   595                           ; 4 bytes @ 0x30
   596  000090                     	ds	1
   597  000091                     getMemoryPointer@dP:
   598                           	opt callstack 0
   599                           
   600                           ; 2 bytes @ 0x31
   601  000091                     	ds	1
   602  000092                     ___flmul@bexp:
   603                           	opt callstack 0
   604  000092                     ___fldiv@a:
   605                           	opt callstack 0
   606                           
   607                           ; 4 bytes @ 0x32
   608  000092                     	ds	1
   609  000093                     getMemoryPointer@i:
   610                           	opt callstack 0
   611  000093                     ___flmul@prod:
   612                           	opt callstack 0
   613                           
   614                           ; 4 bytes @ 0x33
   615  000093                     	ds	1
   616  000094                     ?_I2C_Write:
   617                           	opt callstack 0
   618  000094                     ?_I2C_Read_Register_Request:
   619                           	opt callstack 0
   620  000094                     I2C_Write@data:
   621                           	opt callstack 0
   622  000094                     I2C_Read_Register_Request@sendData:
   623                           	opt callstack 0
   624  000094                     ___flsub@a:
   625                           	opt callstack 0
   626                           
   627                           ; 4 bytes @ 0x34
   628  000094                     	ds	2
   629  000096                     ??___fldiv:
   630  000096                     I2C_Write@sizeData:
   631                           	opt callstack 0
   632  000096                     I2C_Read_Register_Request@sendsizeData:
   633                           	opt callstack 0
   634                           
   635                           ; 1 bytes @ 0x36
   636  000096                     	ds	1
   637  000097                     I2C_Write@delay:
   638                           	opt callstack 0
   639  000097                     I2C_Read_Register_Request@rcvsizeData:
   640                           	opt callstack 0
   641  000097                     ___flmul@temp:
   642                           	opt callstack 0
   643                           
   644                           ; 2 bytes @ 0x37
   645  000097                     	ds	1
   646  000098                     ??_I2C_Write:
   647  000098                     I2C_Read_Register_Request@delay:
   648                           	opt callstack 0
   649                           
   650                           ; 1 bytes @ 0x38
   651  000098                     	ds	1
   652  000099                     I2C_TabRefresh@Pointer:
   653                           	opt callstack 0
   654  000099                     I2C_Free@Pointer:
   655                           	opt callstack 0
   656  000099                     ___flge@ff1:
   657                           	opt callstack 0
   658                           
   659                           ; 4 bytes @ 0x39
   660  000099                     	ds	1
   661  00009A                     ___fldiv@rem:
   662                           	opt callstack 0
   663                           
   664                           ; 4 bytes @ 0x3A
   665  00009A                     	ds	1
   666  00009B                     I2C_TabRefresh@i:
   667                           	opt callstack 0
   668  00009B                     I2C_Free@i:
   669                           	opt callstack 0
   670                           
   671                           ; 1 bytes @ 0x3B
   672  00009B                     	ds	1
   673  00009C                     I2C_Write@adresse:
   674                           	opt callstack 0
   675  00009C                     I2C_Read_Buffer@ID:
   676                           	opt callstack 0
   677                           
   678                           ; 1 bytes @ 0x3C
   679  00009C                     	ds	1
   680  00009D                     I2C_Write@i:
   681                           	opt callstack 0
   682  00009D                     I2C_Read_Register_Request@rcvData:
   683                           	opt callstack 0
   684  00009D                     I2C_Read_Buffer@Pointeur:
   685                           	opt callstack 0
   686  00009D                     ___flge@ff2:
   687                           	opt callstack 0
   688                           
   689                           ; 4 bytes @ 0x3D
   690  00009D                     	ds	1
   691  00009E                     ___fldiv@sign:
   692                           	opt callstack 0
   693  00009E                     I2C_Write@Pointeur:
   694                           	opt callstack 0
   695                           
   696                           ; 2 bytes @ 0x3E
   697  00009E                     	ds	1
   698  00009F                     I2C_Read_Register_Request@adresse:
   699                           	opt callstack 0
   700  00009F                     I2C_Read_Buffer@i:
   701                           	opt callstack 0
   702  00009F                     ___fldiv@new_exp:
   703                           	opt callstack 0
   704                           
   705                           ; 2 bytes @ 0x3F
   706  00009F                     	ds	1
   707  0000A0                     I2C_Read_Register_Request@Pointeur:
   708                           	opt callstack 0
   709                           
   710                           ; 2 bytes @ 0x40
   711  0000A0                     	ds	1
   712  0000A1                     ??___flge:
   713  0000A1                     ___fldiv@grs:
   714                           	opt callstack 0
   715                           
   716                           ; 4 bytes @ 0x41
   717  0000A1                     	ds	4
   718  0000A5                     ___fldiv@bexp:
   719                           	opt callstack 0
   720                           
   721                           ; 1 bytes @ 0x45
   722  0000A5                     	ds	1
   723  0000A6                     ___fldiv@aexp:
   724                           	opt callstack 0
   725                           
   726                           ; 1 bytes @ 0x46
   727  0000A6                     	ds	1
   728  0000A7                     I2C_timer_prescaler@period:
   729                           	opt callstack 0
   730                           
   731                           ; 4 bytes @ 0x47
   732  0000A7                     	ds	4
   733  0000AB                     I2C_timer_prescaler@prUsed:
   734                           	opt callstack 0
   735                           
   736                           ; 2 bytes @ 0x4B
   737  0000AB                     	ds	2
   738  0000AD                     I2C_timer_prescaler@presc:
   739                           	opt callstack 0
   740                           
   741                           ; 2 bytes @ 0x4D
   742  0000AD                     	ds	2
   743  0000AF                     I2C_timer_prescaler@prescUsed:
   744                           	opt callstack 0
   745                           
   746                           ; 2 bytes @ 0x4F
   747  0000AF                     	ds	2
   748  0000B1                     I2C_timer_prescaler@min:
   749                           	opt callstack 0
   750                           
   751                           ; 2 bytes @ 0x51
   752  0000B1                     	ds	2
   753  0000B3                     ?_I2C_Init:
   754                           	opt callstack 0
   755                           
   756                           ; 2 bytes @ 0x53
   757  0000B3                     	ds	2
   758  0000B5                     ??_I2C_Init:
   759                           
   760                           ; 1 bytes @ 0x55
   761  0000B5                     	ds	2
   762  0000B7                     I2C_Init@Options:
   763                           	opt callstack 0
   764                           
   765                           ; 1 bytes @ 0x57
   766  0000B7                     	ds	1
   767  0000B8                     I2C_Init@prescUsed:
   768                           	opt callstack 0
   769                           
   770                           ; 2 bytes @ 0x58
   771  0000B8                     	ds	2
   772  0000BA                     I2C_Init@prUsed:
   773                           	opt callstack 0
   774                           
   775                           ; 2 bytes @ 0x5A
   776  0000BA                     	ds	2
   777  0000BC                     I2C_Init@min:
   778                           	opt callstack 0
   779                           
   780                           ; 4 bytes @ 0x5C
   781  0000BC                     	ds	4
   782                           
   783                           	psect	cstackCOMRAM
   784  000001                     __pcstackCOMRAM:
   785                           	opt callstack 0
   786  000001                     i2memcpy@d1:
   787                           	opt callstack 0
   788                           
   789                           ; 2 bytes @ 0x0
   790  000001                     	ds	2
   791  000003                     i2memcpy@s1:
   792                           	opt callstack 0
   793                           
   794                           ; 2 bytes @ 0x2
   795  000003                     	ds	2
   796  000005                     i2memcpy@n:
   797                           	opt callstack 0
   798                           
   799                           ; 2 bytes @ 0x4
   800  000005                     	ds	2
   801  000007                     i2memcpy@tmp:
   802                           	opt callstack 0
   803                           
   804                           ; 1 bytes @ 0x6
   805  000007                     	ds	1
   806  000008                     i2memcpy@d:
   807                           	opt callstack 0
   808                           
   809                           ; 2 bytes @ 0x7
   810  000008                     	ds	2
   811  00000A                     i2memcpy@s:
   812                           	opt callstack 0
   813                           
   814                           ; 2 bytes @ 0x9
   815  00000A                     	ds	2
   816  00000C                     i2getFree@Pointer:
   817                           	opt callstack 0
   818                           
   819                           ; 2 bytes @ 0xB
   820  00000C                     	ds	2
   821  00000E                     i2getFree@memoryNumber:
   822                           	opt callstack 0
   823                           
   824                           ; 1 bytes @ 0xD
   825  00000E                     	ds	1
   826  00000F                     ??i2_getFree:
   827                           
   828                           ; 1 bytes @ 0xE
   829  00000F                     	ds	11
   830  00001A                     i2getFree@tab:
   831                           	opt callstack 0
   832                           
   833                           ; 64 bytes @ 0x19
   834  00001A                     	ds	64
   835  00005A                     i2getFree@tabPoint:
   836                           	opt callstack 0
   837                           
   838                           ; 2 bytes @ 0x59
   839  00005A                     	ds	2
   840  00005C                     i2getFree@indice:
   841                           	opt callstack 0
   842                           
   843                           ; 1 bytes @ 0x5B
   844  00005C                     	ds	1
   845  00005D                     i2getFree@i:
   846                           	opt callstack 0
   847                           
   848                           ; 1 bytes @ 0x5C
   849  00005D                     	ds	1
   850  00005E                     ISR_Tasks@i:
   851                           	opt callstack 0
   852                           
   853                           ; 1 bytes @ 0x5D
   854  00005E                     	ds	1
   855                           
   856 ;;
   857 ;;Main: autosize = 0, tempsize = 2, incstack = 0, save=0
   858 ;;
   859 ;; *************** function _main *****************
   860 ;; Defined at:
   861 ;;		line 80 in file "main.c"
   862 ;; Parameters:    Size  Location     Type
   863 ;;		None
   864 ;; Auto vars:     Size  Location     Type
   865 ;;  data            3    5[BANK3 ] unsigned char [3]
   866 ;;  Status          2    9[BANK3 ] int 
   867 ;;  point           2    3[BANK3 ] PTR unsigned char 
   868 ;;		 -> NULL(0), 
   869 ;;  buffer          2    1[BANK3 ] PTR PTR unsigned char 
   870 ;;		 -> array.Tab.Pointer(2), array.Tab(60), nulPointer(2), 
   871 ;;  adresse         1    8[BANK3 ] unsigned char 
   872 ;;  bufferSize      1    0[BANK3 ] unsigned char 
   873 ;; Return value:  Size  Location     Type
   874 ;;                  1    wreg      void 
   875 ;; Registers used:
   876 ;;		wreg, fsr1l, fsr1h, fsr2l, fsr2h, status,2, status,0, prodl, prodh, cstack
   877 ;; Tracked objects:
   878 ;;		On entry : 0/0
   879 ;;		On exit  : 0/0
   880 ;;		Unchanged: 0/0
   881 ;; Data sizes:     COMRAM   BANK0   BANK1   BANK2   BANK3   BANK4   BANK5
   882 ;;      Params:         0       0       0       0       0       0       0
   883 ;;      Locals:         0       0       0       0      11       0       0
   884 ;;      Temps:          0       0       0       2       0       0       0
   885 ;;      Totals:         0       0       0       2      11       0       0
   886 ;;Total ram usage:       13 bytes
   887 ;; Hardware stack levels required when called:    9
   888 ;; This function calls:
   889 ;;		_I2C_Free
   890 ;;		_I2C_Init
   891 ;;		_I2C_Read_Buffer
   892 ;;		_I2C_Read_Register_Request
   893 ;;		_I2C_Write
   894 ;;		_ISR_ConnectFunction
   895 ;;		_ISR_Init
   896 ;; This function is called by:
   897 ;;		Startup code after reset
   898 ;; This function uses a non-reentrant model
   899 ;;
   900                           
   901                           	psect	text0
   902  00288C                     __ptext0:
   903                           	opt callstack 0
   904  00288C                     _main:
   905                           	opt callstack 22
   906  00288C                     
   907                           ;main.c: 81:     OSCCONbits.IRCF = 0b111;
   908  00288C  0E70               	movlw	112
   909  00288E  12D3               	iorwf	211,f,c	;volatile
   910  002890                     
   911                           ;main.c: 82:     TRISA = 0xFF;
   912  002890  6892               	setf	146,c	;volatile
   913                           
   914                           ;main.c: 83:     TRISC = 0b10111111;
   915  002892  0EBF               	movlw	191
   916  002894  6E94               	movwf	148,c	;volatile
   917                           
   918                           ;main.c: 84:  TRISD = 0x00;
   919  002896  0E00               	movlw	0
   920  002898  6E95               	movwf	149,c	;volatile
   921                           
   922                           ;main.c: 85:  TRISE = 0x00;
   923  00289A  0E00               	movlw	0
   924  00289C  6E96               	movwf	150,c	;volatile
   925                           
   926                           ;main.c: 86:  TRISB = 0x00;
   927  00289E  0E00               	movlw	0
   928  0028A0  6E93               	movwf	147,c	;volatile
   929                           
   930                           ;main.c: 87:     ANSELA = 0x01;
   931  0028A2  0E01               	movlw	1
   932  0028A4  010F               	movlb	15	; () banked
   933  0028A6  6F38               	movwf	56,b	;volatile
   934                           
   935                           ;main.c: 88:     ANSELC = 0;
   936  0028A8  0E00               	movlw	0
   937  0028AA  6F3A               	movwf	58,b	;volatile
   938                           
   939                           ;main.c: 89:     ANSELE = 0;
   940  0028AC  0E00               	movlw	0
   941  0028AE  6F3C               	movwf	60,b	;volatile
   942                           
   943                           ;main.c: 90:     ANSELB = 0;
   944  0028B0  0E00               	movlw	0
   945  0028B2  6F39               	movwf	57,b	;volatile
   946                           
   947                           ;main.c: 93:     WPUB=0;
   948  0028B4  0E00               	movlw	0
   949  0028B6  6E61               	movwf	97,c	;volatile
   950  0028B8                     
   951                           ; BSR set to: 15
   952                           ;main.c: 94:     INTCON2bits.NOT_RBPU=1;
   953  0028B8  8EF1               	bsf	241,7,c	;volatile
   954  0028BA                     
   955                           ; BSR set to: 15
   956                           ;main.c: 95:     INTCONbits.GIE=1;
   957  0028BA  8EF2               	bsf	242,7,c	;volatile
   958                           
   959                           ;main.c: 98:     LATD=0;
   960  0028BC  0E00               	movlw	0
   961  0028BE  6E8C               	movwf	140,c	;volatile
   962                           
   963                           ;main.c: 99:     LATE=0;
   964  0028C0  0E00               	movlw	0
   965  0028C2  6E8D               	movwf	141,c	;volatile
   966                           
   967                           ;main.c: 100:     LATB=0;
   968  0028C4  0E00               	movlw	0
   969  0028C6  6E8A               	movwf	138,c	;volatile
   970  0028C8                     
   971                           ; BSR set to: 15
   972                           ;main.c: 102:     int Status;;main.c: 104:     ISR_Init();
   973  0028C8  EC3C  F01D         	call	_ISR_Init	;wreg free
   974  0028CC                     
   975                           ;main.c: 105:     Status = I2C_Init((0x02) | (0x04));
   976  0028CC  0E06               	movlw	6
   977  0028CE  EC65  F015         	call	_I2C_Init
   978  0028D2  C0B3  F309         	movff	?_I2C_Init,main@Status
   979  0028D6  C0B4  F30A         	movff	?_I2C_Init+1,main@Status+1
   980  0028DA                     
   981                           ;main.c: 106:     if (Status == (-1))
   982  0028DA  0103               	movlb	3	; () banked
   983  0028DC  2909               	incf	main@Status& (0+255),w,b
   984  0028DE  E106               	bnz	u7631
   985  0028E0  290A               	incf	(main@Status+1)& (0+255),w,b
   986  0028E2  A4D8               	btfss	status,2,c
   987  0028E4  EF76  F014         	goto	u7631
   988  0028E8  EF78  F014         	goto	u7630
   989  0028EC                     u7631:
   990  0028EC  EF7B  F014         	goto	l6245
   991  0028F0                     u7630:
   992  0028F0                     l6243:
   993                           
   994                           ; BSR set to: 3
   995                           ;main.c: 107:     {;main.c: 108:         LATD = 0xFF;
   996  0028F0  688C               	setf	140,c	;volatile
   997                           
   998                           ;main.c: 109:         return;
   999  0028F2  EF63  F015         	goto	l75
  1000  0028F6                     l6245:
  1001                           
  1002                           ; BSR set to: 3
  1003                           ;main.c: 111:     ISR_ConnectFunction(&I2C_ISR);
  1004  0028F6  0E56               	movlw	low _I2C_ISR
  1005  0028F8  0100               	movlb	0	; () banked
  1006  0028FA  6F80               	movwf	ISR_ConnectFunction@Function& (0+255),b
  1007  0028FC  0E00               	movlw	high _I2C_ISR
  1008  0028FE  6F81               	movwf	(ISR_ConnectFunction@Function+1)& (0+255),b
  1009  002900  EC17  F01D         	call	_ISR_ConnectFunction	;wreg free
  1010  002904                     
  1011                           ;main.c: 113:     u8 bufferSize;;main.c: 114:     u8 adresse;;main.c: 115:     t_mem buf
      +                          fer;;main.c: 116:     u8 data[3]={0x12, 0x13, 0x21};
  1012  002904  C1FC  F305         	movff	main@F6289,main@data
  1013  002908  C1FD  F306         	movff	main@F6289+1,main@data+1
  1014  00290C  C1FE  F307         	movff	main@F6289+2,main@data+2
  1015  002910                     
  1016                           ;main.c: 117:     u8* point;;main.c: 119:     Status = I2C_Write((0xA0), data, 3, 10);
  1017  002910  0E05               	movlw	low main@data
  1018  002912  0100               	movlb	0	; () banked
  1019  002914  6F94               	movwf	I2C_Write@data& (0+255),b
  1020  002916  0E03               	movlw	high main@data
  1021  002918  6F95               	movwf	(I2C_Write@data+1)& (0+255),b
  1022  00291A  0E03               	movlw	3
  1023  00291C  6F96               	movwf	I2C_Write@sizeData& (0+255),b
  1024  00291E  0E0A               	movlw	10
  1025  002920  6F97               	movwf	I2C_Write@delay& (0+255),b
  1026  002922  0EA0               	movlw	160
  1027  002924  EC13  F013         	call	_I2C_Write
  1028  002928  C094  F309         	movff	?_I2C_Write,main@Status
  1029  00292C  C095  F30A         	movff	?_I2C_Write+1,main@Status+1
  1030  002930                     
  1031                           ;main.c: 120:     if (Status == (-1))
  1032  002930  0103               	movlb	3	; () banked
  1033  002932  2909               	incf	main@Status& (0+255),w,b
  1034  002934  E106               	bnz	u7641
  1035  002936  290A               	incf	(main@Status+1)& (0+255),w,b
  1036  002938  A4D8               	btfss	status,2,c
  1037  00293A  EFA1  F014         	goto	u7641
  1038  00293E  EFA3  F014         	goto	u7640
  1039  002942                     u7641:
  1040  002942  EFA5  F014         	goto	l6255
  1041  002946                     u7640:
  1042  002946  EF78  F014         	goto	l6243
  1043  00294A                     l6255:
  1044                           
  1045                           ; BSR set to: 3
  1046                           ;main.c: 126:     data[1] = 0x14;
  1047  00294A  0E14               	movlw	20
  1048  00294C  6F06               	movwf	(main@data+1)& (0+255),b
  1049                           
  1050                           ;main.c: 127:     data[2] = 0x32;
  1051  00294E  0E32               	movlw	50
  1052  002950  6F07               	movwf	(main@data+2)& (0+255),b
  1053  002952                     
  1054                           ; BSR set to: 3
  1055                           ;main.c: 128:     Status = I2C_Write((0xAE), data, 3, 10);
  1056  002952  0E05               	movlw	low main@data
  1057  002954  0100               	movlb	0	; () banked
  1058  002956  6F94               	movwf	I2C_Write@data& (0+255),b
  1059  002958  0E03               	movlw	high main@data
  1060  00295A  6F95               	movwf	(I2C_Write@data+1)& (0+255),b
  1061  00295C  0E03               	movlw	3
  1062  00295E  6F96               	movwf	I2C_Write@sizeData& (0+255),b
  1063  002960  0E0A               	movlw	10
  1064  002962  6F97               	movwf	I2C_Write@delay& (0+255),b
  1065  002964  0EAE               	movlw	174
  1066  002966  EC13  F013         	call	_I2C_Write
  1067  00296A  C094  F309         	movff	?_I2C_Write,main@Status
  1068  00296E  C095  F30A         	movff	?_I2C_Write+1,main@Status+1
  1069  002972                     
  1070                           ;main.c: 129:     if (Status == (-1))
  1071  002972  0103               	movlb	3	; () banked
  1072  002974  2909               	incf	main@Status& (0+255),w,b
  1073  002976  E106               	bnz	u7651
  1074  002978  290A               	incf	(main@Status+1)& (0+255),w,b
  1075  00297A  A4D8               	btfss	status,2,c
  1076  00297C  EFC2  F014         	goto	u7651
  1077  002980  EFC4  F014         	goto	u7650
  1078  002984                     u7651:
  1079  002984  EFC6  F014         	goto	l6263
  1080  002988                     u7650:
  1081  002988  EF78  F014         	goto	l6243
  1082  00298C                     l6263:
  1083                           
  1084                           ; BSR set to: 3
  1085                           ;main.c: 134:     data[1] = 0x13;
  1086  00298C  0E13               	movlw	19
  1087  00298E  6F06               	movwf	(main@data+1)& (0+255),b
  1088  002990                     
  1089                           ; BSR set to: 3
  1090                           ;main.c: 135:     Status = I2C_Read_Register_Request((0xA0), data, 2, 1, 10);
  1091  002990  0E05               	movlw	low main@data
  1092  002992  0100               	movlb	0	; () banked
  1093  002994  6F94               	movwf	I2C_Read_Register_Request@sendData& (0+255),b
  1094  002996  0E03               	movlw	high main@data
  1095  002998  6F95               	movwf	(I2C_Read_Register_Request@sendData+1)& (0+255),b
  1096  00299A  0E02               	movlw	2
  1097  00299C  6F96               	movwf	I2C_Read_Register_Request@sendsizeData& (0+255),b
  1098  00299E  0E01               	movlw	1
  1099  0029A0  6F97               	movwf	I2C_Read_Register_Request@rcvsizeData& (0+255),b
  1100  0029A2  0E0A               	movlw	10
  1101  0029A4  6F98               	movwf	I2C_Read_Register_Request@delay& (0+255),b
  1102  0029A6  0EA0               	movlw	160
  1103  0029A8  EC8E  F010         	call	_I2C_Read_Register_Request
  1104  0029AC  C094  F309         	movff	?_I2C_Read_Register_Request,main@Status
  1105  0029B0  C095  F30A         	movff	?_I2C_Read_Register_Request+1,main@Status+1
  1106  0029B4                     
  1107                           ;main.c: 136:     if (Status == (-1))
  1108  0029B4  0103               	movlb	3	; () banked
  1109  0029B6  2909               	incf	main@Status& (0+255),w,b
  1110  0029B8  E106               	bnz	u7661
  1111  0029BA  290A               	incf	(main@Status+1)& (0+255),w,b
  1112  0029BC  A4D8               	btfss	status,2,c
  1113  0029BE  EFE3  F014         	goto	u7661
  1114  0029C2  EFE5  F014         	goto	u7660
  1115  0029C6                     u7661:
  1116  0029C6  EFE7  F014         	goto	l6271
  1117  0029CA                     u7660:
  1118  0029CA  EF78  F014         	goto	l6243
  1119  0029CE                     l6271:
  1120                           
  1121                           ; BSR set to: 3
  1122                           ;main.c: 141:     data[1] = 0x14;
  1123  0029CE  0E14               	movlw	20
  1124  0029D0  6F06               	movwf	(main@data+1)& (0+255),b
  1125  0029D2                     
  1126                           ; BSR set to: 3
  1127                           ;main.c: 142:     Status = I2C_Read_Register_Request((0xAE), data, 2, 1, 10);
  1128  0029D2  0E05               	movlw	low main@data
  1129  0029D4  0100               	movlb	0	; () banked
  1130  0029D6  6F94               	movwf	I2C_Read_Register_Request@sendData& (0+255),b
  1131  0029D8  0E03               	movlw	high main@data
  1132  0029DA  6F95               	movwf	(I2C_Read_Register_Request@sendData+1)& (0+255),b
  1133  0029DC  0E02               	movlw	2
  1134  0029DE  6F96               	movwf	I2C_Read_Register_Request@sendsizeData& (0+255),b
  1135  0029E0  0E01               	movlw	1
  1136  0029E2  6F97               	movwf	I2C_Read_Register_Request@rcvsizeData& (0+255),b
  1137  0029E4  0E0A               	movlw	10
  1138  0029E6  6F98               	movwf	I2C_Read_Register_Request@delay& (0+255),b
  1139  0029E8  0EAE               	movlw	174
  1140  0029EA  EC8E  F010         	call	_I2C_Read_Register_Request
  1141  0029EE  C094  F309         	movff	?_I2C_Read_Register_Request,main@Status
  1142  0029F2  C095  F30A         	movff	?_I2C_Read_Register_Request+1,main@Status+1
  1143  0029F6                     
  1144                           ;main.c: 143:     if (Status == (-1))
  1145  0029F6  0103               	movlb	3	; () banked
  1146  0029F8  2909               	incf	main@Status& (0+255),w,b
  1147  0029FA  E106               	bnz	u7671
  1148  0029FC  290A               	incf	(main@Status+1)& (0+255),w,b
  1149  0029FE  A4D8               	btfss	status,2,c
  1150  002A00  EF04  F015         	goto	u7671
  1151  002A04  EF06  F015         	goto	u7670
  1152  002A08                     u7671:
  1153  002A08  EF08  F015         	goto	l6279
  1154  002A0C                     u7670:
  1155  002A0C  EF78  F014         	goto	l6243
  1156  002A10                     l6279:
  1157                           
  1158                           ;main.c: 150:     {;main.c: 151:         buffer = I2C_Read_Buffer(&adresse, &bufferSize)
      +                          ;
  1159  002A10  0E08               	movlw	low main@adresse
  1160  002A12  0101               	movlb	1	; () banked
  1161  002A14  6FF8               	movwf	I2C_Read_Buffer@adresse& (0+255),b
  1162  002A16  0E03               	movlw	high main@adresse
  1163  002A18  6FF9               	movwf	(I2C_Read_Buffer@adresse+1)& (0+255),b
  1164  002A1A  0E00               	movlw	low main@bufferSize
  1165  002A1C  6FFA               	movwf	I2C_Read_Buffer@sizeData& (0+255),b
  1166  002A1E  0E03               	movlw	high main@bufferSize
  1167  002A20  6FFB               	movwf	(I2C_Read_Buffer@sizeData+1)& (0+255),b
  1168  002A22  EC0D  F018         	call	_I2C_Read_Buffer	;wreg free
  1169  002A26  C1F8  F301         	movff	?_I2C_Read_Buffer,main@buffer
  1170  002A2A  C1F9  F302         	movff	?_I2C_Read_Buffer+1,main@buffer+1
  1171  002A2E                     
  1172                           ;main.c: 152:         if(*buffer != ((void*)0))
  1173  002A2E  C301  FFD9         	movff	main@buffer,fsr2l
  1174  002A32  C302  FFDA         	movff	main@buffer+1,fsr2h
  1175  002A36  50DE               	movf	postinc2,w,c
  1176  002A38  10DE               	iorwf	postinc2,w,c
  1177  002A3A  B4D8               	btfsc	status,2,c
  1178  002A3C  EF22  F015         	goto	u7681
  1179  002A40  EF24  F015         	goto	u7680
  1180  002A44                     u7681:
  1181  002A44  EF08  F015         	goto	l6279
  1182  002A48                     u7680:
  1183  002A48                     
  1184                           ;main.c: 153:         {;main.c: 154:             point = *buffer;
  1185  002A48  C301  FFD9         	movff	main@buffer,fsr2l
  1186  002A4C  C302  FFDA         	movff	main@buffer+1,fsr2h
  1187  002A50  CFDE F303          	movff	postinc2,main@point
  1188  002A54  CFDD F304          	movff	postdec2,main@point+1
  1189  002A58                     
  1190                           ;main.c: 155:             if(adresse == (0xA0))
  1191  002A58  0EA0               	movlw	160
  1192  002A5A  0103               	movlb	3	; () banked
  1193  002A5C  1908               	xorwf	main@adresse& (0+255),w,b
  1194  002A5E  A4D8               	btfss	status,2,c
  1195  002A60  EF34  F015         	goto	u7691
  1196  002A64  EF36  F015         	goto	u7690
  1197  002A68                     u7691:
  1198  002A68  EF46  F015         	goto	l84
  1199  002A6C                     u7690:
  1200  002A6C                     
  1201                           ; BSR set to: 3
  1202                           ;main.c: 156:             {;main.c: 157:                 if(point[0]==0x21)
  1203  002A6C  C303  FFD9         	movff	main@point,fsr2l
  1204  002A70  C304  FFDA         	movff	main@point+1,fsr2h
  1205  002A74  0E21               	movlw	33
  1206  002A76  18DE               	xorwf	postinc2,w,c
  1207  002A78  A4D8               	btfss	status,2,c
  1208  002A7A  EF41  F015         	goto	u7701
  1209  002A7E  EF43  F015         	goto	u7700
  1210  002A82                     u7701:
  1211  002A82  EF46  F015         	goto	l84
  1212  002A86                     u7700:
  1213  002A86                     
  1214                           ; BSR set to: 3
  1215                           ;main.c: 158:                     LATD = LATD | 2;
  1216  002A86  508C               	movf	140,w,c	;volatile
  1217  002A88  0902               	iorlw	2
  1218  002A8A  6E8C               	movwf	140,c	;volatile
  1219  002A8C                     l84:
  1220                           
  1221                           ; BSR set to: 3
  1222                           ;main.c: 160:             if(adresse == (0xAE))
  1223  002A8C  0EAE               	movlw	174
  1224  002A8E  1908               	xorwf	main@adresse& (0+255),w,b
  1225  002A90  A4D8               	btfss	status,2,c
  1226  002A92  EF4D  F015         	goto	u7711
  1227  002A96  EF4F  F015         	goto	u7710
  1228  002A9A                     u7711:
  1229  002A9A  EF5F  F015         	goto	l6295
  1230  002A9E                     u7710:
  1231  002A9E                     
  1232                           ; BSR set to: 3
  1233                           ;main.c: 161:             {;main.c: 162:                 if(point[0]==0x32)
  1234  002A9E  C303  FFD9         	movff	main@point,fsr2l
  1235  002AA2  C304  FFDA         	movff	main@point+1,fsr2h
  1236  002AA6  0E32               	movlw	50
  1237  002AA8  18DE               	xorwf	postinc2,w,c
  1238  002AAA  A4D8               	btfss	status,2,c
  1239  002AAC  EF5A  F015         	goto	u7721
  1240  002AB0  EF5C  F015         	goto	u7720
  1241  002AB4                     u7721:
  1242  002AB4  EF5F  F015         	goto	l6295
  1243  002AB8                     u7720:
  1244  002AB8                     
  1245                           ; BSR set to: 3
  1246                           ;main.c: 163:                     LATD = LATD | 4;
  1247  002AB8  508C               	movf	140,w,c	;volatile
  1248  002ABA  0904               	iorlw	4
  1249  002ABC  6E8C               	movwf	140,c	;volatile
  1250  002ABE                     l6295:
  1251                           
  1252                           ; BSR set to: 3
  1253                           ;main.c: 165:             I2C_Free();
  1254  002ABE  ECF4  F01B         	call	_I2C_Free	;wreg free
  1255  002AC2  EF08  F015         	goto	l6279
  1256  002AC6                     l75:
  1257                           
  1258                           ; BSR set to: 3
  1259  002AC6  EF29  F000         	goto	start
  1260  002ACA                     __end_of_main:
  1261                           	opt callstack 0
  1262                           
  1263 ;; *************** function _ISR_Init *****************
  1264 ;; Defined at:
  1265 ;;		line 60 in file "interrupt.c"
  1266 ;; Parameters:    Size  Location     Type
  1267 ;;		None
  1268 ;; Auto vars:     Size  Location     Type
  1269 ;;		None
  1270 ;; Return value:  Size  Location     Type
  1271 ;;                  2   11[None  ] int 
  1272 ;; Registers used:
  1273 ;;		wreg, status,2
  1274 ;; Tracked objects:
  1275 ;;		On entry : 0/0
  1276 ;;		On exit  : 0/0
  1277 ;;		Unchanged: 0/0
  1278 ;; Data sizes:     COMRAM   BANK0   BANK1   BANK2   BANK3   BANK4   BANK5
  1279 ;;      Params:         0       0       0       0       0       0       0
  1280 ;;      Locals:         0       0       0       0       0       0       0
  1281 ;;      Temps:          0       0       0       0       0       0       0
  1282 ;;      Totals:         0       0       0       0       0       0       0
  1283 ;;Total ram usage:        0 bytes
  1284 ;; Hardware stack levels used:    1
  1285 ;; Hardware stack levels required when called:    5
  1286 ;; This function calls:
  1287 ;;		Nothing
  1288 ;; This function is called by:
  1289 ;;		_main
  1290 ;; This function uses a non-reentrant model
  1291 ;;
  1292                           
  1293                           	psect	text1
  1294  003A78                     __ptext1:
  1295                           	opt callstack 0
  1296  003A78                     _ISR_Init:
  1297                           	opt callstack 25
  1298  003A78                     
  1299                           ;interrupt.c: 62:     ISRConfig.ISRnbr = 0;
  1300  003A78  0E00               	movlw	0
  1301  003A7A  0100               	movlb	0	; () banked
  1302  003A7C  6FC0               	movwf	_ISRConfig& (0+255),b
  1303  003A7E                     
  1304                           ; BSR set to: 0
  1305  003A7E  0012               	return		;funcret
  1306  003A80                     __end_of_ISR_Init:
  1307                           	opt callstack 0
  1308                           
  1309 ;; *************** function _ISR_ConnectFunction *****************
  1310 ;; Defined at:
  1311 ;;		line 81 in file "interrupt.c"
  1312 ;; Parameters:    Size  Location     Type
  1313 ;;  Function        2   32[BANK0 ] PTR FTN()void 
  1314 ;;		 -> I2C_ISR(1), 
  1315 ;; Auto vars:     Size  Location     Type
  1316 ;;		None
  1317 ;; Return value:  Size  Location     Type
  1318 ;;                  2   32[BANK0 ] int 
  1319 ;; Registers used:
  1320 ;;		wreg, fsr2l, fsr2h, status,2, status,0, prodl, prodh
  1321 ;; Tracked objects:
  1322 ;;		On entry : 0/0
  1323 ;;		On exit  : 0/0
  1324 ;;		Unchanged: 0/0
  1325 ;; Data sizes:     COMRAM   BANK0   BANK1   BANK2   BANK3   BANK4   BANK5
  1326 ;;      Params:         0       2       0       0       0       0       0
  1327 ;;      Locals:         0       0       0       0       0       0       0
  1328 ;;      Temps:          0       0       0       0       0       0       0
  1329 ;;      Totals:         0       2       0       0       0       0       0
  1330 ;;Total ram usage:        2 bytes
  1331 ;; Hardware stack levels used:    1
  1332 ;; Hardware stack levels required when called:    5
  1333 ;; This function calls:
  1334 ;;		Nothing
  1335 ;; This function is called by:
  1336 ;;		_main
  1337 ;; This function uses a non-reentrant model
  1338 ;;
  1339                           
  1340                           	psect	text2
  1341  003A2E                     __ptext2:
  1342                           	opt callstack 0
  1343  003A2E                     _ISR_ConnectFunction:
  1344                           	opt callstack 25
  1345  003A2E                     
  1346                           ;interrupt.c: 81: int ISR_ConnectFunction(ISR_FunctionPtr Function);interrupt.c: 82: {;i
      +                          nterrupt.c: 83:     ISRConfig.FunctTab[ISRConfig.ISRnbr] = Function;
  1347  003A2E  0100               	movlb	0	; () banked
  1348  003A30  51C0               	movf	_ISRConfig& (0+255),w,b
  1349  003A32  0D02               	mullw	2
  1350  003A34  0EC1               	movlw	low (_ISRConfig+1)
  1351  003A36  24F3               	addwf	243,w,c
  1352  003A38  6ED9               	movwf	fsr2l,c
  1353  003A3A  0E00               	movlw	high (_ISRConfig+1)
  1354  003A3C  20F4               	addwfc	prodh,w,c
  1355  003A3E  6EDA               	movwf	fsr2h,c
  1356  003A40  C080  FFDE         	movff	ISR_ConnectFunction@Function,postinc2
  1357  003A44  C081  FFDD         	movff	ISR_ConnectFunction@Function+1,postdec2
  1358  003A48                     
  1359                           ; BSR set to: 0
  1360                           ;interrupt.c: 84:     ISRConfig.ISRnbr++;
  1361  003A48  2BC0               	incf	_ISRConfig& (0+255),f,b
  1362  003A4A                     
  1363                           ; BSR set to: 0
  1364  003A4A  0012               	return		;funcret
  1365  003A4C                     __end_of_ISR_ConnectFunction:
  1366                           	opt callstack 0
  1367                           
  1368 ;; *************** function _I2C_Write *****************
  1369 ;; Defined at:
  1370 ;;		line 753 in file "I2C.c"
  1371 ;; Parameters:    Size  Location     Type
  1372 ;;  adresse         1    wreg     unsigned char 
  1373 ;;  data            2   52[BANK0 ] PTR unsigned char 
  1374 ;;		 -> main@data(3), 
  1375 ;;  sizeData        1   54[BANK0 ] unsigned char 
  1376 ;;  delay           1   55[BANK0 ] unsigned char 
  1377 ;; Auto vars:     Size  Location     Type
  1378 ;;  adresse         1   60[BANK0 ] unsigned char 
  1379 ;;  Pointeur        2   62[BANK0 ] PTR PTR unsigned char 
  1380 ;;		 -> array.Tab.Pointer(2), array.Tab(60), nulPointer(2), 
  1381 ;;  myData          2    0        PTR unsigned char 
  1382 ;;		 -> NULL(0), 
  1383 ;;  i               1   61[BANK0 ] unsigned char 
  1384 ;; Return value:  Size  Location     Type
  1385 ;;                  2   52[BANK0 ] int 
  1386 ;; Registers used:
  1387 ;;		wreg, fsr1l, fsr1h, fsr2l, fsr2h, status,2, status,0, prodl, prodh, cstack
  1388 ;; Tracked objects:
  1389 ;;		On entry : 0/0
  1390 ;;		On exit  : 0/0
  1391 ;;		Unchanged: 0/0
  1392 ;; Data sizes:     COMRAM   BANK0   BANK1   BANK2   BANK3   BANK4   BANK5
  1393 ;;      Params:         0       4       0       0       0       0       0
  1394 ;;      Locals:         0       6       0       0       0       0       0
  1395 ;;      Temps:          0       2       0       0       0       0       0
  1396 ;;      Totals:         0      12       0       0       0       0       0
  1397 ;;Total ram usage:       12 bytes
  1398 ;; Hardware stack levels used:    1
  1399 ;; Hardware stack levels required when called:    7
  1400 ;; This function calls:
  1401 ;;		_I2C_Master_Start
  1402 ;;		_I2C_Master_Stop
  1403 ;;		_I2C_Master_Write
  1404 ;;		_getMemoryID
  1405 ;;		_getMemoryPointer
  1406 ;;		_memcpy
  1407 ;; This function is called by:
  1408 ;;		_main
  1409 ;; This function uses a non-reentrant model
  1410 ;;
  1411                           
  1412                           	psect	text3
  1413  002626                     __ptext3:
  1414                           	opt callstack 0
  1415  002626                     _I2C_Write:
  1416                           	opt callstack 23
  1417                           
  1418                           ; BSR set to: 0
  1419                           ;incstack = 0
  1420                           ;I2C_Write@adresse stored from wreg
  1421  002626  0100               	movlb	0	; () banked
  1422  002628  6F9C               	movwf	I2C_Write@adresse& (0+255),b
  1423  00262A                     
  1424                           ;I2C.c: 756:     u8 i;;I2C.c: 758:     if(I2CConfig.Status != 1)
  1425  00262A  0101               	movlb	1	; () banked
  1426  00262C  05B0               	decf	(_I2CConfig+165)& (0+255),w,b
  1427  00262E  B4D8               	btfsc	status,2,c
  1428  002630  EF1C  F013         	goto	u7351
  1429  002634  EF1E  F013         	goto	u7350
  1430  002638                     u7351:
  1431  002638  EF23  F013         	goto	l262
  1432  00263C                     u7350:
  1433  00263C                     l5997:
  1434                           
  1435                           ;I2C.c: 759:         return (-1);
  1436  00263C  0100               	movlb	0	; () banked
  1437  00263E  6994               	setf	?_I2C_Write& (0+255),b
  1438  002640  6995               	setf	(?_I2C_Write+1)& (0+255),b
  1439  002642  EF45  F014         	goto	l263
  1440  002646                     l262:
  1441                           
  1442                           ; BSR set to: 1
  1443                           ;I2C.c: 760:     if((I2CConfig.Options & (0x01)) != 0)
  1444  002646  A1B1               	btfss	(_I2CConfig+166)& (0+255),0,b
  1445  002648  EF28  F013         	goto	u7361
  1446  00264C  EF2A  F013         	goto	u7360
  1447  002650                     u7361:
  1448  002650  EF2C  F013         	goto	l264
  1449  002654                     u7360:
  1450  002654  EF1E  F013         	goto	l5997
  1451  002658                     l264:
  1452                           
  1453                           ; BSR set to: 1
  1454                           ;I2C.c: 763:     if((I2CConfig.Options & (0x04)) == 0)
  1455  002658  B5B1               	btfsc	(_I2CConfig+166)& (0+255),2,b
  1456  00265A  EF31  F013         	goto	u7371
  1457  00265E  EF33  F013         	goto	u7370
  1458  002662                     u7371:
  1459  002662  EF9B  F013         	goto	l6037
  1460  002666                     u7370:
  1461  002666                     
  1462                           ; BSR set to: 1
  1463                           ;I2C.c: 764:     {;I2C.c: 765:         I2C_Master_Start(adresse);
  1464  002666  C09C  F080         	movff	I2C_Write@adresse,I2C_Master_Start@adresse
  1465  00266A  0100               	movlb	0	; () banked
  1466  00266C  6B81               	clrf	(I2C_Master_Start@adresse+1)& (0+255),b
  1467  00266E  EC02  F01D         	call	_I2C_Master_Start	;wreg free
  1468  002672                     
  1469                           ;I2C.c: 766:         if(delay > 0)
  1470  002672  0100               	movlb	0	; () banked
  1471  002674  5197               	movf	I2C_Write@delay& (0+255),w,b
  1472  002676  B4D8               	btfsc	status,2,c
  1473  002678  EF40  F013         	goto	u7381
  1474  00267C  EF42  F013         	goto	u7380
  1475  002680                     u7381:
  1476  002680  EF4E  F013         	goto	l6009
  1477  002684                     u7380:
  1478  002684                     
  1479                           ; BSR set to: 0
  1480                           ;I2C.c: 767:         {;I2C.c: 768:             timer = delay;
  1481  002684  C097  F0D7         	movff	I2C_Write@delay,_timer
  1482  002688  6BD8               	clrf	(_timer+1)& (0+255),b
  1483  00268A                     l6007:
  1484                           
  1485                           ; BSR set to: 0
  1486  00268A  51D7               	movf	_timer& (0+255),w,b
  1487  00268C  11D8               	iorwf	(_timer+1)& (0+255),w,b
  1488  00268E  A4D8               	btfss	status,2,c
  1489  002690  EF4C  F013         	goto	u7391
  1490  002694  EF4E  F013         	goto	u7390
  1491  002698                     u7391:
  1492  002698  EF45  F013         	goto	l6007
  1493  00269C                     u7390:
  1494  00269C                     l6009:
  1495                           
  1496                           ; BSR set to: 0
  1497                           ;I2C.c: 771:         for(i = 0; i < sizeData; i++)
  1498  00269C  0E00               	movlw	0
  1499  00269E  6F9D               	movwf	I2C_Write@i& (0+255),b
  1500  0026A0  EF75  F013         	goto	l6021
  1501  0026A4                     l6011:
  1502                           
  1503                           ; BSR set to: 0
  1504                           ;I2C.c: 772:         {;I2C.c: 773:             I2C_Master_Write(data[i]);
  1505  0026A4  519D               	movf	I2C_Write@i& (0+255),w,b
  1506  0026A6  2594               	addwf	I2C_Write@data& (0+255),w,b
  1507  0026A8  6ED9               	movwf	fsr2l,c
  1508  0026AA  0E00               	movlw	0
  1509  0026AC  2195               	addwfc	(I2C_Write@data+1)& (0+255),w,b
  1510  0026AE  6EDA               	movwf	fsr2h,c
  1511  0026B0  50DF               	movf	indf2,w,c
  1512  0026B2  6F98               	movwf	??_I2C_Write& (0+255),b
  1513  0026B4  5198               	movf	??_I2C_Write& (0+255),w,b
  1514  0026B6  6F80               	movwf	I2C_Master_Write@data& (0+255),b
  1515  0026B8  6B81               	clrf	(I2C_Master_Write@data+1)& (0+255),b
  1516  0026BA  ECE4  F01C         	call	_I2C_Master_Write	;wreg free
  1517  0026BE                     
  1518                           ;I2C.c: 774:             if(delay > 0)
  1519  0026BE  0100               	movlb	0	; () banked
  1520  0026C0  5197               	movf	I2C_Write@delay& (0+255),w,b
  1521  0026C2  B4D8               	btfsc	status,2,c
  1522  0026C4  EF66  F013         	goto	u7401
  1523  0026C8  EF68  F013         	goto	u7400
  1524  0026CC                     u7401:
  1525  0026CC  EF74  F013         	goto	l6019
  1526  0026D0                     u7400:
  1527  0026D0                     
  1528                           ; BSR set to: 0
  1529                           ;I2C.c: 775:         {;I2C.c: 776:             timer = delay;
  1530  0026D0  C097  F0D7         	movff	I2C_Write@delay,_timer
  1531  0026D4  6BD8               	clrf	(_timer+1)& (0+255),b
  1532  0026D6                     l6017:
  1533                           
  1534                           ; BSR set to: 0
  1535  0026D6  51D7               	movf	_timer& (0+255),w,b
  1536  0026D8  11D8               	iorwf	(_timer+1)& (0+255),w,b
  1537  0026DA  A4D8               	btfss	status,2,c
  1538  0026DC  EF72  F013         	goto	u7411
  1539  0026E0  EF74  F013         	goto	u7410
  1540  0026E4                     u7411:
  1541  0026E4  EF6B  F013         	goto	l6017
  1542  0026E8                     u7410:
  1543  0026E8                     l6019:
  1544                           
  1545                           ; BSR set to: 0
  1546                           ;I2C.c: 779:         }
  1547  0026E8  2B9D               	incf	I2C_Write@i& (0+255),f,b
  1548  0026EA                     l6021:
  1549                           
  1550                           ; BSR set to: 0
  1551  0026EA  5196               	movf	I2C_Write@sizeData& (0+255),w,b
  1552  0026EC  5D9D               	subwf	I2C_Write@i& (0+255),w,b
  1553  0026EE  A0D8               	btfss	status,0,c
  1554  0026F0  EF7C  F013         	goto	u7421
  1555  0026F4  EF7E  F013         	goto	u7420
  1556  0026F8                     u7421:
  1557  0026F8  EF52  F013         	goto	l6011
  1558  0026FC                     u7420:
  1559  0026FC                     
  1560                           ; BSR set to: 0
  1561                           ;I2C.c: 780:         I2C_Master_Stop();
  1562  0026FC  EC32  F01D         	call	_I2C_Master_Stop	;wreg free
  1563  002700                     
  1564                           ;I2C.c: 781:         if(delay > 0)
  1565  002700  0100               	movlb	0	; () banked
  1566  002702  5197               	movf	I2C_Write@delay& (0+255),w,b
  1567  002704  B4D8               	btfsc	status,2,c
  1568  002706  EF87  F013         	goto	u7431
  1569  00270A  EF89  F013         	goto	u7430
  1570  00270E                     u7431:
  1571  00270E  EF95  F013         	goto	l6031
  1572  002712                     u7430:
  1573  002712                     
  1574                           ; BSR set to: 0
  1575                           ;I2C.c: 782:         {;I2C.c: 783:             timer = delay;
  1576  002712  C097  F0D7         	movff	I2C_Write@delay,_timer
  1577  002716  6BD8               	clrf	(_timer+1)& (0+255),b
  1578  002718                     l6029:
  1579                           
  1580                           ; BSR set to: 0
  1581  002718  51D7               	movf	_timer& (0+255),w,b
  1582  00271A  11D8               	iorwf	(_timer+1)& (0+255),w,b
  1583  00271C  A4D8               	btfss	status,2,c
  1584  00271E  EF93  F013         	goto	u7441
  1585  002722  EF95  F013         	goto	u7440
  1586  002726                     u7441:
  1587  002726  EF8C  F013         	goto	l6029
  1588  00272A                     u7440:
  1589  00272A                     l6031:
  1590                           
  1591                           ; BSR set to: 0
  1592                           ;I2C.c: 786:         return 0;
  1593  00272A  0E00               	movlw	0
  1594  00272C  6F95               	movwf	(?_I2C_Write+1)& (0+255),b
  1595  00272E  0E00               	movlw	0
  1596  002730  6F94               	movwf	?_I2C_Write& (0+255),b
  1597  002732  EF45  F014         	goto	l263
  1598  002736                     l6037:
  1599                           
  1600                           ; BSR set to: 1
  1601                           ;I2C.c: 789:     {;I2C.c: 790:         if(I2CConfig.BufferNbr >= 9)
  1602  002736  0E08               	movlw	8
  1603  002738  65AE               	cpfsgt	(_I2CConfig+163)& (0+255),b
  1604  00273A  EFA1  F013         	goto	u7451
  1605  00273E  EFA3  F013         	goto	u7450
  1606  002742                     u7451:
  1607  002742  EFAA  F013         	goto	l6043
  1608  002746                     u7450:
  1609  002746                     
  1610                           ; BSR set to: 1
  1611                           ;I2C.c: 791:             return (-2);
  1612  002746  0EFF               	movlw	255
  1613  002748  0100               	movlb	0	; () banked
  1614  00274A  6F95               	movwf	(?_I2C_Write+1)& (0+255),b
  1615  00274C  0EFE               	movlw	254
  1616  00274E  6F94               	movwf	?_I2C_Write& (0+255),b
  1617  002750  EF45  F014         	goto	l263
  1618  002754                     l6043:
  1619                           
  1620                           ; BSR set to: 1
  1621                           ;I2C.c: 793:         myMsgID++;
  1622  002754  0100               	movlb	0	; () banked
  1623  002756  2BDF               	incf	_myMsgID& (0+255),f,b
  1624  002758                     
  1625                           ; BSR set to: 0
  1626                           ;I2C.c: 794:         if(myMsgID == 0)
  1627  002758  51DF               	movf	_myMsgID& (0+255),w,b
  1628  00275A  A4D8               	btfss	status,2,c
  1629  00275C  EFB2  F013         	goto	u7461
  1630  002760  EFB4  F013         	goto	u7460
  1631  002764                     u7461:
  1632  002764  EFB5  F013         	goto	l6049
  1633  002768                     u7460:
  1634  002768                     
  1635                           ; BSR set to: 0
  1636                           ;I2C.c: 795:             myMsgID++;
  1637  002768  2BDF               	incf	_myMsgID& (0+255),f,b
  1638  00276A                     l6049:
  1639                           
  1640                           ; BSR set to: 0
  1641                           ;I2C.c: 806:         t_mem Pointeur = getMemoryPointer(sizeData * sizeof(u8), 0);
  1642  00276A  0E00               	movlw	0
  1643  00276C  6F86               	movwf	getMemoryPointer@memoryNumber& (0+255),b
  1644  00276E  5196               	movf	I2C_Write@sizeData& (0+255),w,b
  1645  002770  0D01               	mullw	1
  1646  002772  50F3               	movf	243,w,c
  1647  002774  ECD5  F011         	call	_getMemoryPointer
  1648  002778  C086  F09E         	movff	?_getMemoryPointer,I2C_Write@Pointeur
  1649  00277C  C087  F09F         	movff	?_getMemoryPointer+1,I2C_Write@Pointeur+1
  1650  002780                     
  1651                           ;I2C.c: 807:         I2CConfig.Buffer[I2CConfig.BufferNbr].memID = getMemoryID(Pointeur,
      +                           0);
  1652  002780  C09E  F080         	movff	I2C_Write@Pointeur,getMemoryID@Pointer
  1653  002784  C09F  F081         	movff	I2C_Write@Pointeur+1,getMemoryID@Pointer+1
  1654  002788  0E00               	movlw	0
  1655  00278A  0100               	movlb	0	; () banked
  1656  00278C  6F82               	movwf	getMemoryID@memoryNumber& (0+255),b
  1657  00278E  ECB1  F018         	call	_getMemoryID	;wreg free
  1658  002792  0101               	movlb	1	; () banked
  1659  002794  51AE               	movf	(_I2CConfig+163)& (0+255),w,b
  1660  002796  0D07               	mullw	7
  1661  002798  0E10               	movlw	low (_I2CConfig+5)
  1662  00279A  24F3               	addwf	243,w,c
  1663  00279C  6ED9               	movwf	fsr2l,c
  1664  00279E  0E01               	movlw	high (_I2CConfig+5)
  1665  0027A0  20F4               	addwfc	prodh,w,c
  1666  0027A2  6EDA               	movwf	fsr2h,c
  1667  0027A4  0100               	movlb	0	; () banked
  1668  0027A6  C080  FFDF         	movff	?_getMemoryID,indf2
  1669  0027AA                     
  1670                           ; BSR set to: 0
  1671                           ;I2C.c: 808:         if(*Pointeur == ((void*)0))
  1672  0027AA  C09E  FFD9         	movff	I2C_Write@Pointeur,fsr2l
  1673  0027AE  C09F  FFDA         	movff	I2C_Write@Pointeur+1,fsr2h
  1674  0027B2  50DE               	movf	postinc2,w,c
  1675  0027B4  10DE               	iorwf	postinc2,w,c
  1676  0027B6  A4D8               	btfss	status,2,c
  1677  0027B8  EFE0  F013         	goto	u7471
  1678  0027BC  EFE2  F013         	goto	u7470
  1679  0027C0                     u7471:
  1680  0027C0  EFE4  F013         	goto	l6057
  1681  0027C4                     u7470:
  1682  0027C4  EF1E  F013         	goto	l5997
  1683  0027C8                     l6057:
  1684                           
  1685                           ; BSR set to: 0
  1686                           ;I2C.c: 812:         memcpy(*Pointeur, data, sizeData * sizeof(u8));
  1687  0027C8  C09E  FFD9         	movff	I2C_Write@Pointeur,fsr2l
  1688  0027CC  C09F  FFDA         	movff	I2C_Write@Pointeur+1,fsr2h
  1689  0027D0  CFDE F080          	movff	postinc2,memcpy@d1
  1690  0027D4  CFDD F081          	movff	postdec2,memcpy@d1+1
  1691  0027D8  C094  F082         	movff	I2C_Write@data,memcpy@s1
  1692  0027DC  C095  F083         	movff	I2C_Write@data+1,memcpy@s1+1
  1693  0027E0  5196               	movf	I2C_Write@sizeData& (0+255),w,b
  1694  0027E2  0D01               	mullw	1
  1695  0027E4  CFF3 F084          	movff	prodl,memcpy@n
  1696  0027E8  CFF4 F085          	movff	prodh,memcpy@n+1
  1697  0027EC  EC22  F01C         	call	_memcpy	;wreg free
  1698  0027F0                     
  1699                           ;I2C.c: 813:         I2CConfig.Buffer[I2CConfig.BufferNbr].data = Pointeur;
  1700  0027F0  0101               	movlb	1	; () banked
  1701  0027F2  51AE               	movf	(_I2CConfig+163)& (0+255),w,b
  1702  0027F4  0D07               	mullw	7
  1703  0027F6  0E0E               	movlw	low (_I2CConfig+3)
  1704  0027F8  24F3               	addwf	243,w,c
  1705  0027FA  6ED9               	movwf	fsr2l,c
  1706  0027FC  0E01               	movlw	high (_I2CConfig+3)
  1707  0027FE  20F4               	addwfc	prodh,w,c
  1708  002800  6EDA               	movwf	fsr2h,c
  1709  002802  C09E  FFDE         	movff	I2C_Write@Pointeur,postinc2
  1710  002806  C09F  FFDD         	movff	I2C_Write@Pointeur+1,postdec2
  1711  00280A                     
  1712                           ; BSR set to: 1
  1713                           ;I2C.c: 819:         I2CConfig.Buffer[I2CConfig.BufferNbr].type = I2C_MASTER_WRITE;
  1714  00280A  51AE               	movf	(_I2CConfig+163)& (0+255),w,b
  1715  00280C  0D07               	mullw	7
  1716  00280E  0E0C               	movlw	low (_I2CConfig+1)
  1717  002810  24F3               	addwf	243,w,c
  1718  002812  6ED9               	movwf	fsr2l,c
  1719  002814  0E01               	movlw	high (_I2CConfig+1)
  1720  002816  20F4               	addwfc	prodh,w,c
  1721  002818  6EDA               	movwf	fsr2h,c
  1722  00281A  0E00               	movlw	0
  1723  00281C  6EDF               	movwf	indf2,c
  1724  00281E                     
  1725                           ; BSR set to: 1
  1726                           ;I2C.c: 820:         I2CConfig.Buffer[I2CConfig.BufferNbr].adress = adresse;
  1727  00281E  51AE               	movf	(_I2CConfig+163)& (0+255),w,b
  1728  002820  0D07               	mullw	7
  1729  002822  0E0D               	movlw	low (_I2CConfig+2)
  1730  002824  24F3               	addwf	243,w,c
  1731  002826  6ED9               	movwf	fsr2l,c
  1732  002828  0E01               	movlw	high (_I2CConfig+2)
  1733  00282A  20F4               	addwfc	prodh,w,c
  1734  00282C  6EDA               	movwf	fsr2h,c
  1735  00282E  C09C  FFDF         	movff	I2C_Write@adresse,indf2
  1736  002832                     
  1737                           ; BSR set to: 1
  1738                           ;I2C.c: 821:         I2CConfig.Buffer[I2CConfig.BufferNbr].sizeData = sizeData;
  1739  002832  51AE               	movf	(_I2CConfig+163)& (0+255),w,b
  1740  002834  0D07               	mullw	7
  1741  002836  0E11               	movlw	low (_I2CConfig+6)
  1742  002838  24F3               	addwf	243,w,c
  1743  00283A  6ED9               	movwf	fsr2l,c
  1744  00283C  0E01               	movlw	high (_I2CConfig+6)
  1745  00283E  20F4               	addwfc	prodh,w,c
  1746  002840  6EDA               	movwf	fsr2h,c
  1747  002842  C096  FFDF         	movff	I2C_Write@sizeData,indf2
  1748  002846                     
  1749                           ; BSR set to: 1
  1750                           ;I2C.c: 822:         I2CConfig.Buffer[I2CConfig.BufferNbr].delay = delay;
  1751  002846  51AE               	movf	(_I2CConfig+163)& (0+255),w,b
  1752  002848  0D07               	mullw	7
  1753  00284A  0E12               	movlw	low (_I2CConfig+7)
  1754  00284C  24F3               	addwf	243,w,c
  1755  00284E  6ED9               	movwf	fsr2l,c
  1756  002850  0E01               	movlw	high (_I2CConfig+7)
  1757  002852  20F4               	addwfc	prodh,w,c
  1758  002854  6EDA               	movwf	fsr2h,c
  1759  002856  C097  FFDF         	movff	I2C_Write@delay,indf2
  1760  00285A                     
  1761                           ; BSR set to: 1
  1762                           ;I2C.c: 823:         I2CConfig.MsgID[I2CConfig.BufferNbr] = myMsgID;
  1763  00285A  0E98               	movlw	low (_I2CConfig+141)
  1764  00285C  25AE               	addwf	(_I2CConfig+163)& (0+255),w,b
  1765  00285E  6ED9               	movwf	fsr2l,c
  1766  002860  6ADA               	clrf	fsr2h,c
  1767  002862  0E01               	movlw	high (_I2CConfig+141)
  1768  002864  22DA               	addwfc	fsr2h,f,c
  1769  002866  C0DF  FFDF         	movff	_myMsgID,indf2
  1770  00286A                     
  1771                           ; BSR set to: 1
  1772                           ;I2C.c: 824:         I2CConfig.BufferNbr++;
  1773  00286A  2BAE               	incf	(_I2CConfig+163)& (0+255),f,b
  1774  00286C                     
  1775                           ; BSR set to: 1
  1776                           ;I2C.c: 825:         if(I2CConfig.State == BUS_READY)
  1777  00286C  510B               	movf	_I2CConfig& (0+255),w,b
  1778  00286E  A4D8               	btfss	status,2,c
  1779  002870  EF3C  F014         	goto	u7481
  1780  002874  EF3E  F014         	goto	u7480
  1781  002878                     u7481:
  1782  002878  EF41  F014         	goto	l6079
  1783  00287C                     u7480:
  1784  00287C                     
  1785                           ; BSR set to: 1
  1786                           ;I2C.c: 826:         {;I2C.c: 827:             I2CConfig.State = MASTER_START;
  1787  00287C  0E01               	movlw	1
  1788  00287E  6F0B               	movwf	_I2CConfig& (0+255),b
  1789  002880                     
  1790                           ; BSR set to: 1
  1791                           ;I2C.c: 831:             SSP1CON2bits.SEN = 1;
  1792  002880  80C5               	bsf	197,0,c	;volatile
  1793  002882                     l6079:
  1794                           
  1795                           ; BSR set to: 1
  1796                           ;I2C.c: 834:         return myMsgID;
  1797  002882  C0DF  F094         	movff	_myMsgID,?_I2C_Write
  1798  002886  0100               	movlb	0	; () banked
  1799  002888  6B95               	clrf	(?_I2C_Write+1)& (0+255),b
  1800  00288A                     l263:
  1801                           
  1802                           ; BSR set to: 0
  1803  00288A  0012               	return		;funcret
  1804  00288C                     __end_of_I2C_Write:
  1805                           	opt callstack 0
  1806                           
  1807 ;; *************** function _I2C_Master_Write *****************
  1808 ;; Defined at:
  1809 ;;		line 145 in file "I2C_conf/I2C_PIC_Support.c"
  1810 ;; Parameters:    Size  Location     Type
  1811 ;;  data            2   32[BANK0 ] int 
  1812 ;; Auto vars:     Size  Location     Type
  1813 ;;		None
  1814 ;; Return value:  Size  Location     Type
  1815 ;;                  2   32[BANK0 ] int 
  1816 ;; Registers used:
  1817 ;;		None
  1818 ;; Tracked objects:
  1819 ;;		On entry : 0/0
  1820 ;;		On exit  : 0/0
  1821 ;;		Unchanged: 0/0
  1822 ;; Data sizes:     COMRAM   BANK0   BANK1   BANK2   BANK3   BANK4   BANK5
  1823 ;;      Params:         0       2       0       0       0       0       0
  1824 ;;      Locals:         0       0       0       0       0       0       0
  1825 ;;      Temps:          0       0       0       0       0       0       0
  1826 ;;      Totals:         0       2       0       0       0       0       0
  1827 ;;Total ram usage:        2 bytes
  1828 ;; Hardware stack levels used:    1
  1829 ;; Hardware stack levels required when called:    5
  1830 ;; This function calls:
  1831 ;;		Nothing
  1832 ;; This function is called by:
  1833 ;;		_I2C_Write
  1834 ;; This function uses a non-reentrant model
  1835 ;;
  1836                           
  1837                           	psect	text4
  1838  0039C8                     __ptext4:
  1839                           	opt callstack 0
  1840  0039C8                     _I2C_Master_Write:
  1841                           	opt callstack 24
  1842  0039C8                     
  1843                           ;I2C_conf/I2C_PIC_Support.c: 157:     if(SSP1CON2bits.ACKSTAT==0){
  1844  0039C8  BCC5               	btfsc	197,6,c	;volatile
  1845  0039CA  EFE9  F01C         	goto	u7101
  1846  0039CE  EFEB  F01C         	goto	u7100
  1847  0039D2                     u7101:
  1848  0039D2  EFF7  F01C         	goto	l440
  1849  0039D6                     u7100:
  1850  0039D6                     
  1851                           ;I2C_conf/I2C_PIC_Support.c: 158:         SSP1BUF = data;
  1852  0039D6  C080  FFC9         	movff	I2C_Master_Write@data,4041	;volatile
  1853  0039DA                     l441:
  1854  0039DA  B0C7               	btfsc	199,0,c	;volatile
  1855  0039DC  EFF2  F01C         	goto	u7111
  1856  0039E0  EFF4  F01C         	goto	u7110
  1857  0039E4                     u7111:
  1858  0039E4  EFED  F01C         	goto	l441
  1859  0039E8                     u7110:
  1860  0039E8                     l443:
  1861                           
  1862                           ;I2C_conf/I2C_PIC_Support.c: 160:         __nop();
  1863  0039E8  F000               	nop	
  1864                           
  1865                           ;I2C_conf/I2C_PIC_Support.c: 161:     }else{
  1866  0039EA  EF01  F01D         	goto	l448
  1867  0039EE                     l440:
  1868                           
  1869                           ;I2C_conf/I2C_PIC_Support.c: 162:         SSP1CON2bits.PEN = 1;
  1870  0039EE  84C5               	bsf	197,2,c	;volatile
  1871  0039F0                     l445:
  1872  0039F0  B4C5               	btfsc	197,2,c	;volatile
  1873  0039F2  EFFD  F01C         	goto	u7121
  1874  0039F6  EFFF  F01C         	goto	u7120
  1875  0039FA                     u7121:
  1876  0039FA  EFF8  F01C         	goto	l445
  1877  0039FE                     u7120:
  1878  0039FE  EFF4  F01C         	goto	l443
  1879  003A02                     l448:
  1880  003A02  0012               	return		;funcret
  1881  003A04                     __end_of_I2C_Master_Write:
  1882                           	opt callstack 0
  1883                           
  1884 ;; *************** function _I2C_Master_Stop *****************
  1885 ;; Defined at:
  1886 ;;		line 116 in file "I2C_conf/I2C_PIC_Support.c"
  1887 ;; Parameters:    Size  Location     Type
  1888 ;;		None
  1889 ;; Auto vars:     Size  Location     Type
  1890 ;;		None
  1891 ;; Return value:  Size  Location     Type
  1892 ;;                  2  133[None  ] int 
  1893 ;; Registers used:
  1894 ;;		None
  1895 ;; Tracked objects:
  1896 ;;		On entry : 0/0
  1897 ;;		On exit  : 0/0
  1898 ;;		Unchanged: 0/0
  1899 ;; Data sizes:     COMRAM   BANK0   BANK1   BANK2   BANK3   BANK4   BANK5
  1900 ;;      Params:         0       0       0       0       0       0       0
  1901 ;;      Locals:         0       0       0       0       0       0       0
  1902 ;;      Temps:          0       0       0       0       0       0       0
  1903 ;;      Totals:         0       0       0       0       0       0       0
  1904 ;;Total ram usage:        0 bytes
  1905 ;; Hardware stack levels used:    1
  1906 ;; Hardware stack levels required when called:    5
  1907 ;; This function calls:
  1908 ;;		Nothing
  1909 ;; This function is called by:
  1910 ;;		_I2C_Write
  1911 ;; This function uses a non-reentrant model
  1912 ;;
  1913                           
  1914                           	psect	text5
  1915  003A64                     __ptext5:
  1916                           	opt callstack 0
  1917  003A64                     _I2C_Master_Stop:
  1918                           	opt callstack 24
  1919  003A64                     
  1920                           ;I2C_conf/I2C_PIC_Support.c: 122:     SSP1CON2bits.PEN = 1;
  1921  003A64  84C5               	bsf	197,2,c	;volatile
  1922  003A66                     l434:
  1923  003A66  B4C5               	btfsc	197,2,c	;volatile
  1924  003A68  EF38  F01D         	goto	u7131
  1925  003A6C  EF3A  F01D         	goto	u7130
  1926  003A70                     u7131:
  1927  003A70  EF33  F01D         	goto	l434
  1928  003A74                     u7130:
  1929  003A74                     
  1930                           ;I2C_conf/I2C_PIC_Support.c: 124:     __nop();
  1931  003A74  F000               	nop	
  1932  003A76  0012               	return		;funcret
  1933  003A78                     __end_of_I2C_Master_Stop:
  1934                           	opt callstack 0
  1935                           
  1936 ;; *************** function _I2C_Master_Start *****************
  1937 ;; Defined at:
  1938 ;;		line 43 in file "I2C_conf/I2C_PIC_Support.c"
  1939 ;; Parameters:    Size  Location     Type
  1940 ;;  adresse         2   32[BANK0 ] int 
  1941 ;; Auto vars:     Size  Location     Type
  1942 ;;		None
  1943 ;; Return value:  Size  Location     Type
  1944 ;;                  2   32[BANK0 ] int 
  1945 ;; Registers used:
  1946 ;;		None
  1947 ;; Tracked objects:
  1948 ;;		On entry : 0/0
  1949 ;;		On exit  : 0/0
  1950 ;;		Unchanged: 0/0
  1951 ;; Data sizes:     COMRAM   BANK0   BANK1   BANK2   BANK3   BANK4   BANK5
  1952 ;;      Params:         0       2       0       0       0       0       0
  1953 ;;      Locals:         0       0       0       0       0       0       0
  1954 ;;      Temps:          0       0       0       0       0       0       0
  1955 ;;      Totals:         0       2       0       0       0       0       0
  1956 ;;Total ram usage:        2 bytes
  1957 ;; Hardware stack levels used:    1
  1958 ;; Hardware stack levels required when called:    5
  1959 ;; This function calls:
  1960 ;;		Nothing
  1961 ;; This function is called by:
  1962 ;;		_I2C_Write
  1963 ;; This function uses a non-reentrant model
  1964 ;;
  1965                           
  1966                           	psect	text6
  1967  003A04                     __ptext6:
  1968                           	opt callstack 0
  1969  003A04                     _I2C_Master_Start:
  1970                           	opt callstack 24
  1971  003A04                     
  1972                           ;I2C_conf/I2C_PIC_Support.c: 52:     SSP1CON2bits.SEN = 1;
  1973  003A04  80C5               	bsf	197,0,c	;volatile
  1974  003A06                     l416:
  1975  003A06  B0C5               	btfsc	197,0,c	;volatile
  1976  003A08  EF08  F01D         	goto	u7081
  1977  003A0C  EF0A  F01D         	goto	u7080
  1978  003A10                     u7081:
  1979  003A10  EF03  F01D         	goto	l416
  1980  003A14                     u7080:
  1981  003A14                     
  1982                           ;I2C_conf/I2C_PIC_Support.c: 54:     __nop();
  1983  003A14  F000               	nop	
  1984                           
  1985                           ;I2C_conf/I2C_PIC_Support.c: 55:     SSP1IF=0;
  1986  003A16  969E               	bcf	3998,3,c	;volatile
  1987                           
  1988                           ;I2C_conf/I2C_PIC_Support.c: 56:     SSP1BUF = adresse;
  1989  003A18  C080  FFC9         	movff	I2C_Master_Start@adresse,4041	;volatile
  1990  003A1C                     l419:
  1991  003A1C  B0C7               	btfsc	199,0,c	;volatile
  1992  003A1E  EF13  F01D         	goto	u7091
  1993  003A22  EF15  F01D         	goto	u7090
  1994  003A26                     u7091:
  1995  003A26  EF0E  F01D         	goto	l419
  1996  003A2A                     u7090:
  1997  003A2A                     
  1998                           ;I2C_conf/I2C_PIC_Support.c: 58:     __nop();
  1999  003A2A  F000               	nop	
  2000  003A2C  0012               	return		;funcret
  2001  003A2E                     __end_of_I2C_Master_Start:
  2002                           	opt callstack 0
  2003                           
  2004 ;; *************** function _I2C_Read_Register_Request *****************
  2005 ;; Defined at:
  2006 ;;		line 952 in file "I2C.c"
  2007 ;; Parameters:    Size  Location     Type
  2008 ;;  adresse         1    wreg     unsigned char 
  2009 ;;  sendData        2   52[BANK0 ] PTR unsigned char 
  2010 ;;		 -> main@data(3), 
  2011 ;;  sendsizeData    1   54[BANK0 ] unsigned char 
  2012 ;;  rcvsizeData     1   55[BANK0 ] unsigned char 
  2013 ;;  delay           1   56[BANK0 ] unsigned char 
  2014 ;; Auto vars:     Size  Location     Type
  2015 ;;  adresse         1   63[BANK0 ] unsigned char 
  2016 ;;  Pointeur        2   64[BANK0 ] PTR PTR unsigned char 
  2017 ;;		 -> array.Tab.Pointer(2), array.Tab(60), nulPointer(2), 
  2018 ;;  rcvData         2   61[BANK0 ] PTR unsigned char 
  2019 ;;		 -> NULL(0), 
  2020 ;;  myData          2    0        PTR unsigned char 
  2021 ;;		 -> NULL(0), 
  2022 ;; Return value:  Size  Location     Type
  2023 ;;                  2   52[BANK0 ] int 
  2024 ;; Registers used:
  2025 ;;		wreg, fsr1l, fsr1h, fsr2l, fsr2h, status,2, status,0, prodl, prodh, cstack
  2026 ;; Tracked objects:
  2027 ;;		On entry : 0/0
  2028 ;;		On exit  : 0/0
  2029 ;;		Unchanged: 0/0
  2030 ;; Data sizes:     COMRAM   BANK0   BANK1   BANK2   BANK3   BANK4   BANK5
  2031 ;;      Params:         0       5       0       0       0       0       0
  2032 ;;      Locals:         0       7       0       0       0       0       0
  2033 ;;      Temps:          0       2       0       0       0       0       0
  2034 ;;      Totals:         0      14       0       0       0       0       0
  2035 ;;Total ram usage:       14 bytes
  2036 ;; Hardware stack levels used:    1
  2037 ;; Hardware stack levels required when called:    7
  2038 ;; This function calls:
  2039 ;;		_getMemoryID
  2040 ;;		_getMemoryPointer
  2041 ;;		_memcpy
  2042 ;; This function is called by:
  2043 ;;		_main
  2044 ;; This function uses a non-reentrant model
  2045 ;;
  2046                           
  2047                           	psect	text7
  2048  00211C                     __ptext7:
  2049                           	opt callstack 0
  2050  00211C                     _I2C_Read_Register_Request:
  2051                           	opt callstack 23
  2052                           
  2053                           ;incstack = 0
  2054                           ;I2C_Read_Register_Request@adresse stored from wreg
  2055  00211C  0100               	movlb	0	; () banked
  2056  00211E  6F9F               	movwf	I2C_Read_Register_Request@adresse& (0+255),b
  2057  002120                     
  2058                           ;I2C.c: 955:     u8 *rcvData = ((void*)0);
  2059  002120  0E00               	movlw	0
  2060  002122  0100               	movlb	0	; () banked
  2061  002124  6F9D               	movwf	I2C_Read_Register_Request@rcvData& (0+255),b
  2062  002126  0E00               	movlw	0
  2063  002128  6F9E               	movwf	(I2C_Read_Register_Request@rcvData+1)& (0+255),b
  2064  00212A                     
  2065                           ; BSR set to: 0
  2066                           ;I2C.c: 957:     if(I2CConfig.Status != 1)
  2067  00212A  0101               	movlb	1	; () banked
  2068  00212C  05B0               	decf	(_I2CConfig+165)& (0+255),w,b
  2069  00212E  B4D8               	btfsc	status,2,c
  2070  002130  EF9C  F010         	goto	u7491
  2071  002134  EF9E  F010         	goto	u7490
  2072  002138                     u7491:
  2073  002138  EFA3  F010         	goto	l297
  2074  00213C                     u7490:
  2075  00213C                     l6087:
  2076                           
  2077                           ;I2C.c: 958:         return (-1);
  2078  00213C  0100               	movlb	0	; () banked
  2079  00213E  6994               	setf	?_I2C_Read_Register_Request& (0+255),b
  2080  002140  6995               	setf	(?_I2C_Read_Register_Request+1)& (0+255),b
  2081  002142  EFD4  F011         	goto	l298
  2082  002146                     l297:
  2083                           
  2084                           ; BSR set to: 1
  2085                           ;I2C.c: 959:     if((I2CConfig.Options & (0x01)) != 0)
  2086  002146  A1B1               	btfss	(_I2CConfig+166)& (0+255),0,b
  2087  002148  EFA8  F010         	goto	u7501
  2088  00214C  EFAA  F010         	goto	u7500
  2089  002150                     u7501:
  2090  002150  EFAC  F010         	goto	l6091
  2091  002154                     u7500:
  2092  002154  EF9E  F010         	goto	l6087
  2093  002158                     l6091:
  2094                           
  2095                           ; BSR set to: 1
  2096                           ;I2C.c: 961:     if(I2CConfig.BufferNbr >= 8)
  2097  002158  0E07               	movlw	7
  2098  00215A  65AE               	cpfsgt	(_I2CConfig+163)& (0+255),b
  2099  00215C  EFB2  F010         	goto	u7511
  2100  002160  EFB4  F010         	goto	u7510
  2101  002164                     u7511:
  2102  002164  EFBB  F010         	goto	l6097
  2103  002168                     u7510:
  2104  002168                     
  2105                           ; BSR set to: 1
  2106                           ;I2C.c: 962:         return (-2);
  2107  002168  0EFF               	movlw	255
  2108  00216A  0100               	movlb	0	; () banked
  2109  00216C  6F95               	movwf	(?_I2C_Read_Register_Request+1)& (0+255),b
  2110  00216E  0EFE               	movlw	254
  2111  002170  6F94               	movwf	?_I2C_Read_Register_Request& (0+255),b
  2112  002172  EFD4  F011         	goto	l298
  2113  002176                     l6097:
  2114                           
  2115                           ; BSR set to: 1
  2116                           ;I2C.c: 964:     myMsgID++;
  2117  002176  0100               	movlb	0	; () banked
  2118  002178  2BDF               	incf	_myMsgID& (0+255),f,b
  2119  00217A                     
  2120                           ; BSR set to: 0
  2121                           ;I2C.c: 965:     if(myMsgID == 0)
  2122  00217A  51DF               	movf	_myMsgID& (0+255),w,b
  2123  00217C  A4D8               	btfss	status,2,c
  2124  00217E  EFC3  F010         	goto	u7521
  2125  002182  EFC5  F010         	goto	u7520
  2126  002186                     u7521:
  2127  002186  EFC6  F010         	goto	l6103
  2128  00218A                     u7520:
  2129  00218A                     
  2130                           ; BSR set to: 0
  2131                           ;I2C.c: 966:         myMsgID++;
  2132  00218A  2BDF               	incf	_myMsgID& (0+255),f,b
  2133  00218C                     l6103:
  2134                           
  2135                           ; BSR set to: 0
  2136                           ;I2C.c: 977:     t_mem Pointeur = getMemoryPointer(sendsizeData * sizeof(u8), 0);
  2137  00218C  0E00               	movlw	0
  2138  00218E  6F86               	movwf	getMemoryPointer@memoryNumber& (0+255),b
  2139  002190  5196               	movf	I2C_Read_Register_Request@sendsizeData& (0+255),w,b
  2140  002192  0D01               	mullw	1
  2141  002194  50F3               	movf	243,w,c
  2142  002196  ECD5  F011         	call	_getMemoryPointer
  2143  00219A  C086  F0A0         	movff	?_getMemoryPointer,I2C_Read_Register_Request@Pointeur
  2144  00219E  C087  F0A1         	movff	?_getMemoryPointer+1,I2C_Read_Register_Request@Pointeur+1
  2145  0021A2                     
  2146                           ;I2C.c: 978:     I2CConfig.Buffer[I2CConfig.BufferNbr].memID = getMemoryID(Pointeur, 0);
  2147  0021A2  C0A0  F080         	movff	I2C_Read_Register_Request@Pointeur,getMemoryID@Pointer
  2148  0021A6  C0A1  F081         	movff	I2C_Read_Register_Request@Pointeur+1,getMemoryID@Pointer+1
  2149  0021AA  0E00               	movlw	0
  2150  0021AC  0100               	movlb	0	; () banked
  2151  0021AE  6F82               	movwf	getMemoryID@memoryNumber& (0+255),b
  2152  0021B0  ECB1  F018         	call	_getMemoryID	;wreg free
  2153  0021B4  0101               	movlb	1	; () banked
  2154  0021B6  51AE               	movf	(_I2CConfig+163)& (0+255),w,b
  2155  0021B8  0D07               	mullw	7
  2156  0021BA  0E10               	movlw	low (_I2CConfig+5)
  2157  0021BC  24F3               	addwf	243,w,c
  2158  0021BE  6ED9               	movwf	fsr2l,c
  2159  0021C0  0E01               	movlw	high (_I2CConfig+5)
  2160  0021C2  20F4               	addwfc	prodh,w,c
  2161  0021C4  6EDA               	movwf	fsr2h,c
  2162  0021C6  0100               	movlb	0	; () banked
  2163  0021C8  C080  FFDF         	movff	?_getMemoryID,indf2
  2164  0021CC                     
  2165                           ; BSR set to: 0
  2166                           ;I2C.c: 979:     if(*Pointeur == ((void*)0))
  2167  0021CC  C0A0  FFD9         	movff	I2C_Read_Register_Request@Pointeur,fsr2l
  2168  0021D0  C0A1  FFDA         	movff	I2C_Read_Register_Request@Pointeur+1,fsr2h
  2169  0021D4  50DE               	movf	postinc2,w,c
  2170  0021D6  10DE               	iorwf	postinc2,w,c
  2171  0021D8  A4D8               	btfss	status,2,c
  2172  0021DA  EFF1  F010         	goto	u7531
  2173  0021DE  EFF3  F010         	goto	u7530
  2174  0021E2                     u7531:
  2175  0021E2  EFF5  F010         	goto	l6111
  2176  0021E6                     u7530:
  2177  0021E6  EF9E  F010         	goto	l6087
  2178  0021EA                     l6111:
  2179                           
  2180                           ; BSR set to: 0
  2181                           ;I2C.c: 983:     memcpy(*Pointeur, sendData, sendsizeData*sizeof(u8));
  2182  0021EA  C0A0  FFD9         	movff	I2C_Read_Register_Request@Pointeur,fsr2l
  2183  0021EE  C0A1  FFDA         	movff	I2C_Read_Register_Request@Pointeur+1,fsr2h
  2184  0021F2  CFDE F080          	movff	postinc2,memcpy@d1
  2185  0021F6  CFDD F081          	movff	postdec2,memcpy@d1+1
  2186  0021FA  C094  F082         	movff	I2C_Read_Register_Request@sendData,memcpy@s1
  2187  0021FE  C095  F083         	movff	I2C_Read_Register_Request@sendData+1,memcpy@s1+1
  2188  002202  5196               	movf	I2C_Read_Register_Request@sendsizeData& (0+255),w,b
  2189  002204  0D01               	mullw	1
  2190  002206  CFF3 F084          	movff	prodl,memcpy@n
  2191  00220A  CFF4 F085          	movff	prodh,memcpy@n+1
  2192  00220E  EC22  F01C         	call	_memcpy	;wreg free
  2193  002212                     
  2194                           ;I2C.c: 984:     I2CConfig.Buffer[I2CConfig.BufferNbr].data = Pointeur;
  2195  002212  0101               	movlb	1	; () banked
  2196  002214  51AE               	movf	(_I2CConfig+163)& (0+255),w,b
  2197  002216  0D07               	mullw	7
  2198  002218  0E0E               	movlw	low (_I2CConfig+3)
  2199  00221A  24F3               	addwf	243,w,c
  2200  00221C  6ED9               	movwf	fsr2l,c
  2201  00221E  0E01               	movlw	high (_I2CConfig+3)
  2202  002220  20F4               	addwfc	prodh,w,c
  2203  002222  6EDA               	movwf	fsr2h,c
  2204  002224  C0A0  FFDE         	movff	I2C_Read_Register_Request@Pointeur,postinc2
  2205  002228  C0A1  FFDD         	movff	I2C_Read_Register_Request@Pointeur+1,postdec2
  2206  00222C                     
  2207                           ; BSR set to: 1
  2208                           ;I2C.c: 996:     Pointeur = getMemoryPointer(rcvsizeData * sizeof(u8), 0);
  2209  00222C  0E00               	movlw	0
  2210  00222E  0100               	movlb	0	; () banked
  2211  002230  6F86               	movwf	getMemoryPointer@memoryNumber& (0+255),b
  2212  002232  5197               	movf	I2C_Read_Register_Request@rcvsizeData& (0+255),w,b
  2213  002234  0D01               	mullw	1
  2214  002236  50F3               	movf	243,w,c
  2215  002238  ECD5  F011         	call	_getMemoryPointer
  2216  00223C  C086  F0A0         	movff	?_getMemoryPointer,I2C_Read_Register_Request@Pointeur
  2217  002240  C087  F0A1         	movff	?_getMemoryPointer+1,I2C_Read_Register_Request@Pointeur+1
  2218  002244                     
  2219                           ;I2C.c: 997:     if(*Pointeur == ((void*)0))
  2220  002244  C0A0  FFD9         	movff	I2C_Read_Register_Request@Pointeur,fsr2l
  2221  002248  C0A1  FFDA         	movff	I2C_Read_Register_Request@Pointeur+1,fsr2h
  2222  00224C  50DE               	movf	postinc2,w,c
  2223  00224E  10DE               	iorwf	postinc2,w,c
  2224  002250  A4D8               	btfss	status,2,c
  2225  002252  EF2D  F011         	goto	u7541
  2226  002256  EF2F  F011         	goto	u7540
  2227  00225A                     u7541:
  2228  00225A  EF31  F011         	goto	l6121
  2229  00225E                     u7540:
  2230  00225E  EF9E  F010         	goto	l6087
  2231  002262                     l6121:
  2232                           
  2233                           ;I2C.c: 1001:     I2CConfig.Buffer[I2CConfig.BufferNbr+1].data = Pointeur;
  2234  002262  0101               	movlb	1	; () banked
  2235  002264  51AE               	movf	(_I2CConfig+163)& (0+255),w,b
  2236  002266  0D07               	mullw	7
  2237  002268  0E15               	movlw	low (_I2CConfig+10)
  2238  00226A  24F3               	addwf	243,w,c
  2239  00226C  6ED9               	movwf	fsr2l,c
  2240  00226E  0E01               	movlw	high (_I2CConfig+10)
  2241  002270  20F4               	addwfc	prodh,w,c
  2242  002272  6EDA               	movwf	fsr2h,c
  2243  002274  C0A0  FFDE         	movff	I2C_Read_Register_Request@Pointeur,postinc2
  2244  002278  C0A1  FFDD         	movff	I2C_Read_Register_Request@Pointeur+1,postdec2
  2245  00227C                     
  2246                           ; BSR set to: 1
  2247                           ;I2C.c: 1002:     I2CConfig.Buffer[I2CConfig.BufferNbr+1].memID = getMemoryID(Pointeur, 
      +                          0);
  2248  00227C  C0A0  F080         	movff	I2C_Read_Register_Request@Pointeur,getMemoryID@Pointer
  2249  002280  C0A1  F081         	movff	I2C_Read_Register_Request@Pointeur+1,getMemoryID@Pointer+1
  2250  002284  0E00               	movlw	0
  2251  002286  0100               	movlb	0	; () banked
  2252  002288  6F82               	movwf	getMemoryID@memoryNumber& (0+255),b
  2253  00228A  ECB1  F018         	call	_getMemoryID	;wreg free
  2254  00228E  0101               	movlb	1	; () banked
  2255  002290  51AE               	movf	(_I2CConfig+163)& (0+255),w,b
  2256  002292  0D07               	mullw	7
  2257  002294  0E17               	movlw	low (_I2CConfig+12)
  2258  002296  24F3               	addwf	243,w,c
  2259  002298  6ED9               	movwf	fsr2l,c
  2260  00229A  0E01               	movlw	high (_I2CConfig+12)
  2261  00229C  20F4               	addwfc	prodh,w,c
  2262  00229E  6EDA               	movwf	fsr2h,c
  2263  0022A0  0100               	movlb	0	; () banked
  2264  0022A2  C080  FFDF         	movff	?_getMemoryID,indf2
  2265  0022A6                     
  2266                           ; BSR set to: 0
  2267                           ;I2C.c: 1008:     I2CConfig.Buffer[I2CConfig.BufferNbr].type = I2C_MASTER_WRITE_WITH_RES
      +                          TART;
  2268  0022A6  0101               	movlb	1	; () banked
  2269  0022A8  51AE               	movf	(_I2CConfig+163)& (0+255),w,b
  2270  0022AA  0D07               	mullw	7
  2271  0022AC  0E0C               	movlw	low (_I2CConfig+1)
  2272  0022AE  24F3               	addwf	243,w,c
  2273  0022B0  6ED9               	movwf	fsr2l,c
  2274  0022B2  0E01               	movlw	high (_I2CConfig+1)
  2275  0022B4  20F4               	addwfc	prodh,w,c
  2276  0022B6  6EDA               	movwf	fsr2h,c
  2277  0022B8  0E02               	movlw	2
  2278  0022BA  6EDF               	movwf	indf2,c
  2279  0022BC                     
  2280                           ; BSR set to: 1
  2281                           ;I2C.c: 1009:     I2CConfig.Buffer[I2CConfig.BufferNbr].adress = adresse;
  2282  0022BC  51AE               	movf	(_I2CConfig+163)& (0+255),w,b
  2283  0022BE  0D07               	mullw	7
  2284  0022C0  0E0D               	movlw	low (_I2CConfig+2)
  2285  0022C2  24F3               	addwf	243,w,c
  2286  0022C4  6ED9               	movwf	fsr2l,c
  2287  0022C6  0E01               	movlw	high (_I2CConfig+2)
  2288  0022C8  20F4               	addwfc	prodh,w,c
  2289  0022CA  6EDA               	movwf	fsr2h,c
  2290  0022CC  C09F  FFDF         	movff	I2C_Read_Register_Request@adresse,indf2
  2291  0022D0                     
  2292                           ; BSR set to: 1
  2293                           ;I2C.c: 1010:     I2CConfig.Buffer[I2CConfig.BufferNbr].sizeData = sendsizeData;
  2294  0022D0  51AE               	movf	(_I2CConfig+163)& (0+255),w,b
  2295  0022D2  0D07               	mullw	7
  2296  0022D4  0E11               	movlw	low (_I2CConfig+6)
  2297  0022D6  24F3               	addwf	243,w,c
  2298  0022D8  6ED9               	movwf	fsr2l,c
  2299  0022DA  0E01               	movlw	high (_I2CConfig+6)
  2300  0022DC  20F4               	addwfc	prodh,w,c
  2301  0022DE  6EDA               	movwf	fsr2h,c
  2302  0022E0  C096  FFDF         	movff	I2C_Read_Register_Request@sendsizeData,indf2
  2303  0022E4                     
  2304                           ; BSR set to: 1
  2305                           ;I2C.c: 1011:     I2CConfig.Buffer[I2CConfig.BufferNbr].delay = delay;
  2306  0022E4  51AE               	movf	(_I2CConfig+163)& (0+255),w,b
  2307  0022E6  0D07               	mullw	7
  2308  0022E8  0E12               	movlw	low (_I2CConfig+7)
  2309  0022EA  24F3               	addwf	243,w,c
  2310  0022EC  6ED9               	movwf	fsr2l,c
  2311  0022EE  0E01               	movlw	high (_I2CConfig+7)
  2312  0022F0  20F4               	addwfc	prodh,w,c
  2313  0022F2  6EDA               	movwf	fsr2h,c
  2314  0022F4  C098  FFDF         	movff	I2C_Read_Register_Request@delay,indf2
  2315  0022F8                     
  2316                           ; BSR set to: 1
  2317                           ;I2C.c: 1012:     I2CConfig.MsgID[I2CConfig.BufferNbr] = myMsgID;
  2318  0022F8  0E98               	movlw	low (_I2CConfig+141)
  2319  0022FA  25AE               	addwf	(_I2CConfig+163)& (0+255),w,b
  2320  0022FC  6ED9               	movwf	fsr2l,c
  2321  0022FE  6ADA               	clrf	fsr2h,c
  2322  002300  0E01               	movlw	high (_I2CConfig+141)
  2323  002302  22DA               	addwfc	fsr2h,f,c
  2324  002304  C0DF  FFDF         	movff	_myMsgID,indf2
  2325  002308                     
  2326                           ; BSR set to: 1
  2327                           ;I2C.c: 1014:     myMsgID++;
  2328  002308  0100               	movlb	0	; () banked
  2329  00230A  2BDF               	incf	_myMsgID& (0+255),f,b
  2330  00230C                     
  2331                           ; BSR set to: 0
  2332                           ;I2C.c: 1015:     if(myMsgID == 0)
  2333  00230C  51DF               	movf	_myMsgID& (0+255),w,b
  2334  00230E  A4D8               	btfss	status,2,c
  2335  002310  EF8C  F011         	goto	u7551
  2336  002314  EF8E  F011         	goto	u7550
  2337  002318                     u7551:
  2338  002318  EF8F  F011         	goto	l304
  2339  00231C                     u7550:
  2340  00231C                     
  2341                           ; BSR set to: 0
  2342                           ;I2C.c: 1016:         myMsgID++;
  2343  00231C  2BDF               	incf	_myMsgID& (0+255),f,b
  2344  00231E                     l304:
  2345                           
  2346                           ; BSR set to: 0
  2347                           ;I2C.c: 1018:     I2CConfig.BufferNbr++;
  2348  00231E  0101               	movlb	1	; () banked
  2349  002320  2BAE               	incf	(_I2CConfig+163)& (0+255),f,b
  2350  002322                     
  2351                           ; BSR set to: 1
  2352                           ;I2C.c: 1019:     I2CConfig.Buffer[I2CConfig.BufferNbr].type = I2C_MASTER_READ;
  2353  002322  51AE               	movf	(_I2CConfig+163)& (0+255),w,b
  2354  002324  0D07               	mullw	7
  2355  002326  0E0C               	movlw	low (_I2CConfig+1)
  2356  002328  24F3               	addwf	243,w,c
  2357  00232A  6ED9               	movwf	fsr2l,c
  2358  00232C  0E01               	movlw	high (_I2CConfig+1)
  2359  00232E  20F4               	addwfc	prodh,w,c
  2360  002330  6EDA               	movwf	fsr2h,c
  2361  002332  0E01               	movlw	1
  2362  002334  6EDF               	movwf	indf2,c
  2363  002336                     
  2364                           ; BSR set to: 1
  2365                           ;I2C.c: 1020:     I2CConfig.Buffer[I2CConfig.BufferNbr].adress = adresse | 1;
  2366  002336  51AE               	movf	(_I2CConfig+163)& (0+255),w,b
  2367  002338  0D07               	mullw	7
  2368  00233A  0E0D               	movlw	low (_I2CConfig+2)
  2369  00233C  24F3               	addwf	243,w,c
  2370  00233E  6ED9               	movwf	fsr2l,c
  2371  002340  0E01               	movlw	high (_I2CConfig+2)
  2372  002342  20F4               	addwfc	prodh,w,c
  2373  002344  6EDA               	movwf	fsr2h,c
  2374  002346  0100               	movlb	0	; () banked
  2375  002348  519F               	movf	I2C_Read_Register_Request@adresse& (0+255),w,b
  2376  00234A  0901               	iorlw	1
  2377  00234C  6EDF               	movwf	indf2,c
  2378  00234E                     
  2379                           ; BSR set to: 0
  2380                           ;I2C.c: 1021:     I2CConfig.Buffer[I2CConfig.BufferNbr].sizeData = rcvsizeData;
  2381  00234E  0101               	movlb	1	; () banked
  2382  002350  51AE               	movf	(_I2CConfig+163)& (0+255),w,b
  2383  002352  0D07               	mullw	7
  2384  002354  0E11               	movlw	low (_I2CConfig+6)
  2385  002356  24F3               	addwf	243,w,c
  2386  002358  6ED9               	movwf	fsr2l,c
  2387  00235A  0E01               	movlw	high (_I2CConfig+6)
  2388  00235C  20F4               	addwfc	prodh,w,c
  2389  00235E  6EDA               	movwf	fsr2h,c
  2390  002360  C097  FFDF         	movff	I2C_Read_Register_Request@rcvsizeData,indf2
  2391  002364                     
  2392                           ; BSR set to: 1
  2393                           ;I2C.c: 1022:     I2CConfig.Buffer[I2CConfig.BufferNbr].delay = delay;
  2394  002364  51AE               	movf	(_I2CConfig+163)& (0+255),w,b
  2395  002366  0D07               	mullw	7
  2396  002368  0E12               	movlw	low (_I2CConfig+7)
  2397  00236A  24F3               	addwf	243,w,c
  2398  00236C  6ED9               	movwf	fsr2l,c
  2399  00236E  0E01               	movlw	high (_I2CConfig+7)
  2400  002370  20F4               	addwfc	prodh,w,c
  2401  002372  6EDA               	movwf	fsr2h,c
  2402  002374  C098  FFDF         	movff	I2C_Read_Register_Request@delay,indf2
  2403  002378                     
  2404                           ; BSR set to: 1
  2405                           ;I2C.c: 1023:     I2CConfig.MsgID[I2CConfig.BufferNbr] = myMsgID;
  2406  002378  0E98               	movlw	low (_I2CConfig+141)
  2407  00237A  25AE               	addwf	(_I2CConfig+163)& (0+255),w,b
  2408  00237C  6ED9               	movwf	fsr2l,c
  2409  00237E  6ADA               	clrf	fsr2h,c
  2410  002380  0E01               	movlw	high (_I2CConfig+141)
  2411  002382  22DA               	addwfc	fsr2h,f,c
  2412  002384  C0DF  FFDF         	movff	_myMsgID,indf2
  2413  002388                     
  2414                           ; BSR set to: 1
  2415                           ;I2C.c: 1024:     I2CConfig.BufferNbr++;
  2416  002388  2BAE               	incf	(_I2CConfig+163)& (0+255),f,b
  2417  00238A                     
  2418                           ; BSR set to: 1
  2419                           ;I2C.c: 1025:     if(I2CConfig.State == BUS_READY)
  2420  00238A  510B               	movf	_I2CConfig& (0+255),w,b
  2421  00238C  A4D8               	btfss	status,2,c
  2422  00238E  EFCB  F011         	goto	u7561
  2423  002392  EFCD  F011         	goto	u7560
  2424  002396                     u7561:
  2425  002396  EFD0  F011         	goto	l6159
  2426  00239A                     u7560:
  2427  00239A                     
  2428                           ; BSR set to: 1
  2429                           ;I2C.c: 1026:     {;I2C.c: 1027:         I2CConfig.State = MASTER_START;
  2430  00239A  0E01               	movlw	1
  2431  00239C  6F0B               	movwf	_I2CConfig& (0+255),b
  2432  00239E                     
  2433                           ; BSR set to: 1
  2434                           ;I2C.c: 1031:         SSP1CON2bits.SEN = 1;
  2435  00239E  80C5               	bsf	197,0,c	;volatile
  2436  0023A0                     l6159:
  2437                           
  2438                           ; BSR set to: 1
  2439                           ;I2C.c: 1034:     return myMsgID;
  2440  0023A0  C0DF  F094         	movff	_myMsgID,?_I2C_Read_Register_Request
  2441  0023A4  0100               	movlb	0	; () banked
  2442  0023A6  6B95               	clrf	(?_I2C_Read_Register_Request+1)& (0+255),b
  2443  0023A8                     l298:
  2444                           
  2445                           ; BSR set to: 0
  2446  0023A8  0012               	return		;funcret
  2447  0023AA                     __end_of_I2C_Read_Register_Request:
  2448                           	opt callstack 0
  2449                           
  2450 ;; *************** function _I2C_Read_Buffer *****************
  2451 ;; Defined at:
  2452 ;;		line 1069 in file "I2C.c"
  2453 ;; Parameters:    Size  Location     Type
  2454 ;;  adresse         2   68[BANK1 ] PTR unsigned char 
  2455 ;;		 -> main@adresse(1), 
  2456 ;;  sizeData        2   70[BANK1 ] PTR unsigned char 
  2457 ;;		 -> main@bufferSize(1), 
  2458 ;; Auto vars:     Size  Location     Type
  2459 ;;  Pointeur        2   61[BANK0 ] PTR PTR unsigned char 
  2460 ;;		 -> array.Tab.Pointer(2), array.Tab(60), nulPointer(2), 
  2461 ;;  data            3    0        PTR unsigned char 
  2462 ;;  i               1   63[BANK0 ] unsigned char 
  2463 ;;  ID              1   60[BANK0 ] unsigned char 
  2464 ;; Return value:  Size  Location     Type
  2465 ;;                  2   68[BANK1 ] PTR PTR unsigned char 
  2466 ;; Registers used:
  2467 ;;		wreg, fsr1l, fsr1h, fsr2l, fsr2h, status,2, status,0, prodl, prodh, cstack
  2468 ;; Tracked objects:
  2469 ;;		On entry : 0/0
  2470 ;;		On exit  : 0/0
  2471 ;;		Unchanged: 0/0
  2472 ;; Data sizes:     COMRAM   BANK0   BANK1   BANK2   BANK3   BANK4   BANK5
  2473 ;;      Params:         0       0       4       0       0       0       0
  2474 ;;      Locals:         0       4       0       0       0       0       0
  2475 ;;      Temps:          0       0       0       0       0       0       0
  2476 ;;      Totals:         0       4       4       0       0       0       0
  2477 ;;Total ram usage:        8 bytes
  2478 ;; Hardware stack levels used:    1
  2479 ;; Hardware stack levels required when called:    8
  2480 ;; This function calls:
  2481 ;;		_I2C_TabRefresh
  2482 ;;		_getMemoryID
  2483 ;;		_getMemoryPointer
  2484 ;;		_memcpy
  2485 ;; This function is called by:
  2486 ;;		_main
  2487 ;; This function uses a non-reentrant model
  2488 ;;
  2489                           
  2490                           	psect	text8
  2491  00301A                     __ptext8:
  2492                           	opt callstack 0
  2493  00301A                     _I2C_Read_Buffer:
  2494                           	opt callstack 22
  2495  00301A                     
  2496                           ;I2C.c: 1069: t_mem I2C_Read_Buffer(u8 *adresse, u8 *sizeData);I2C.c: 1071: {;I2C.c: 107
      +                          2:     u8 i;;I2C.c: 1073:     u8 *data;;I2C.c: 1074:     u8 ID;;I2C.c: 1079:     if((I2C
      +                          Config.Options & (0x04)) == 0)
  2497  00301A  0101               	movlb	1	; () banked
  2498  00301C  B5B1               	btfsc	(_I2CConfig+166)& (0+255),2,b
  2499  00301E  EF13  F018         	goto	u7571
  2500  003022  EF15  F018         	goto	u7570
  2501  003026                     u7571:
  2502  003026  EF1B  F018         	goto	l6169
  2503  00302A                     u7570:
  2504  00302A                     l6165:
  2505                           
  2506                           ; BSR set to: 1
  2507                           ;I2C.c: 1080:         return &nulPointer;
  2508  00302A  0EB2               	movlw	low _nulPointer
  2509  00302C  6FF8               	movwf	?_I2C_Read_Buffer& (0+255),b
  2510  00302E  0E01               	movlw	high _nulPointer
  2511  003030  6FF9               	movwf	(?_I2C_Read_Buffer+1)& (0+255),b
  2512  003032  EFB0  F018         	goto	l309
  2513  003036                     l6169:
  2514                           
  2515                           ; BSR set to: 1
  2516                           ;I2C.c: 1082:     if(I2CConfig.RcvBufferNbr > 0)
  2517  003036  51AF               	movf	(_I2CConfig+164)& (0+255),w,b
  2518  003038  B4D8               	btfsc	status,2,c
  2519  00303A  EF21  F018         	goto	u7581
  2520  00303E  EF23  F018         	goto	u7580
  2521  003042                     u7581:
  2522  003042  EF15  F018         	goto	l6165
  2523  003046                     u7580:
  2524  003046                     
  2525                           ; BSR set to: 1
  2526                           ;I2C.c: 1083:     {;I2C.c: 1087:         t_mem Pointeur = getMemoryPointer(I2CConfig.Rcv
      +                          Buffer[0].sizeData, 1);
  2527  003046  0E01               	movlw	1
  2528  003048  0100               	movlb	0	; () banked
  2529  00304A  6F86               	movwf	getMemoryPointer@memoryNumber& (0+255),b
  2530  00304C  0101               	movlb	1	; () banked
  2531  00304E  5157               	movf	(_I2CConfig+76)& (0+255),w,b
  2532  003050  ECD5  F011         	call	_getMemoryPointer
  2533  003054  C086  F09D         	movff	?_getMemoryPointer,I2C_Read_Buffer@Pointeur
  2534  003058  C087  F09E         	movff	?_getMemoryPointer+1,I2C_Read_Buffer@Pointeur+1
  2535  00305C                     
  2536                           ;I2C.c: 1088:         ID = getMemoryID(Pointeur, 1);
  2537  00305C  C09D  F080         	movff	I2C_Read_Buffer@Pointeur,getMemoryID@Pointer
  2538  003060  C09E  F081         	movff	I2C_Read_Buffer@Pointeur+1,getMemoryID@Pointer+1
  2539  003064  0E01               	movlw	1
  2540  003066  0100               	movlb	0	; () banked
  2541  003068  6F82               	movwf	getMemoryID@memoryNumber& (0+255),b
  2542  00306A  ECB1  F018         	call	_getMemoryID	;wreg free
  2543  00306E  0100               	movlb	0	; () banked
  2544  003070  5180               	movf	?_getMemoryID& (0+255),w,b
  2545  003072  6F9C               	movwf	I2C_Read_Buffer@ID& (0+255),b
  2546  003074                     
  2547                           ; BSR set to: 0
  2548                           ;I2C.c: 1089:         memcpy(*Pointeur, *I2CConfig.RcvBuffer[0].data, I2CConfig.RcvBuffe
      +                          r[0].sizeData);
  2549  003074  C09D  FFD9         	movff	I2C_Read_Buffer@Pointeur,fsr2l
  2550  003078  C09E  FFDA         	movff	I2C_Read_Buffer@Pointeur+1,fsr2h
  2551  00307C  CFDE F080          	movff	postinc2,memcpy@d1
  2552  003080  CFDD F081          	movff	postdec2,memcpy@d1+1
  2553  003084  C154  FFD9         	movff	_I2CConfig+73,fsr2l
  2554  003088  C155  FFDA         	movff	_I2CConfig+74,fsr2h
  2555  00308C  CFDE F082          	movff	postinc2,memcpy@s1
  2556  003090  CFDD F083          	movff	postdec2,memcpy@s1+1
  2557  003094  C157  F084         	movff	_I2CConfig+76,memcpy@n
  2558  003098  6B85               	clrf	(memcpy@n+1)& (0+255),b
  2559  00309A  EC22  F01C         	call	_memcpy	;wreg free
  2560  00309E                     
  2561                           ;I2C.c: 1091:         *sizeData = I2CConfig.RcvBuffer[0].sizeData;
  2562  00309E  C1FA  FFD9         	movff	I2C_Read_Buffer@sizeData,fsr2l
  2563  0030A2  C1FB  FFDA         	movff	I2C_Read_Buffer@sizeData+1,fsr2h
  2564  0030A6  C157  FFDF         	movff	_I2CConfig+76,indf2
  2565  0030AA                     
  2566                           ;I2C.c: 1092:         *adresse = I2CConfig.RcvBuffer[0].adress & 0xFE;
  2567  0030AA  0101               	movlb	1	; () banked
  2568  0030AC  5153               	movf	(_I2CConfig+72)& (0+255),w,b
  2569  0030AE  0BFE               	andlw	254
  2570  0030B0  C1F8  FFD9         	movff	I2C_Read_Buffer@adresse,fsr2l
  2571  0030B4  C1F9  FFDA         	movff	I2C_Read_Buffer@adresse+1,fsr2h
  2572  0030B8  6EDF               	movwf	indf2,c
  2573  0030BA                     
  2574                           ; BSR set to: 1
  2575                           ;I2C.c: 1093:         for(i = 0; i<I2CConfig.RcvBufferNbr ; i++)
  2576  0030BA  0E00               	movlw	0
  2577  0030BC  0100               	movlb	0	; () banked
  2578  0030BE  6F9F               	movwf	I2C_Read_Buffer@i& (0+255),b
  2579  0030C0  EF86  F018         	goto	l6189
  2580  0030C4                     l6183:
  2581                           
  2582                           ; BSR set to: 0
  2583                           ;I2C.c: 1094:         {;I2C.c: 1095:             I2CConfig.RcvBuffer[i] = I2CConfig.RcvB
      +                          uffer[i+1];
  2584  0030C4  519F               	movf	I2C_Read_Buffer@i& (0+255),w,b
  2585  0030C6  0D07               	mullw	7
  2586  0030C8  0E59               	movlw	low (_I2CConfig+78)
  2587  0030CA  24F3               	addwf	243,w,c
  2588  0030CC  6ED9               	movwf	fsr2l,c
  2589  0030CE  0E01               	movlw	high (_I2CConfig+78)
  2590  0030D0  20F4               	addwfc	prodh,w,c
  2591  0030D2  6EDA               	movwf	fsr2h,c
  2592  0030D4  519F               	movf	I2C_Read_Buffer@i& (0+255),w,b
  2593  0030D6  0D07               	mullw	7
  2594  0030D8  0E52               	movlw	low (_I2CConfig+71)
  2595  0030DA  24F3               	addwf	243,w,c
  2596  0030DC  6EE1               	movwf	fsr1l,c
  2597  0030DE  0E01               	movlw	high (_I2CConfig+71)
  2598  0030E0  20F4               	addwfc	prodh,w,c
  2599  0030E2  6EE2               	movwf	fsr1h,c
  2600  0030E4  0E06               	movlw	6
  2601  0030E6                     u7591:
  2602  0030E6  CFDB FFE3          	movff	plusw2,plusw1
  2603  0030EA  06E8               	decf	wreg,f,c
  2604  0030EC  E2FC               	bc	u7591
  2605  0030EE                     
  2606                           ; BSR set to: 0
  2607                           ;I2C.c: 1096:             I2CConfig.RcvMsgID[i] = I2CConfig.RcvMsgID[i+1];
  2608  0030EE  0EA4               	movlw	low (_I2CConfig+153)
  2609  0030F0  259F               	addwf	I2C_Read_Buffer@i& (0+255),w,b
  2610  0030F2  6ED9               	movwf	fsr2l,c
  2611  0030F4  6ADA               	clrf	fsr2h,c
  2612  0030F6  0E01               	movlw	high (_I2CConfig+153)
  2613  0030F8  22DA               	addwfc	fsr2h,f,c
  2614  0030FA  0EA3               	movlw	low (_I2CConfig+152)
  2615  0030FC  259F               	addwf	I2C_Read_Buffer@i& (0+255),w,b
  2616  0030FE  6EE1               	movwf	fsr1l,c
  2617  003100  6AE2               	clrf	fsr1h,c
  2618  003102  0E01               	movlw	high (_I2CConfig+152)
  2619  003104  22E2               	addwfc	fsr1h,f,c
  2620  003106  CFDF FFE7          	movff	indf2,indf1
  2621  00310A                     
  2622                           ; BSR set to: 0
  2623                           ;I2C.c: 1097:         }
  2624  00310A  2B9F               	incf	I2C_Read_Buffer@i& (0+255),f,b
  2625  00310C                     l6189:
  2626                           
  2627                           ; BSR set to: 0
  2628  00310C  0101               	movlb	1	; () banked
  2629  00310E  51AF               	movf	(_I2CConfig+164)& (0+255),w,b
  2630  003110  0100               	movlb	0	; () banked
  2631  003112  5D9F               	subwf	I2C_Read_Buffer@i& (0+255),w,b
  2632  003114  A0D8               	btfss	status,0,c
  2633  003116  EF8F  F018         	goto	u7601
  2634  00311A  EF91  F018         	goto	u7600
  2635  00311E                     u7601:
  2636  00311E  EF62  F018         	goto	l6183
  2637  003122                     u7600:
  2638  003122                     
  2639                           ; BSR set to: 0
  2640                           ;I2C.c: 1098:         I2CConfig.RcvBufferNbr--;
  2641  003122  0101               	movlb	1	; () banked
  2642  003124  07AF               	decf	(_I2CConfig+164)& (0+255),f,b
  2643  003126                     
  2644                           ; BSR set to: 1
  2645                           ;I2C.c: 1111:         if (I2CMemory.sizePoint > 9)
  2646  003126  0E09               	movlw	9
  2647  003128  650A               	cpfsgt	(_I2CMemory+10)& (0+255),b
  2648  00312A  EF99  F018         	goto	u7611
  2649  00312E  EF9B  F018         	goto	u7610
  2650  003132                     u7611:
  2651  003132  EF9D  F018         	goto	l6197
  2652  003136                     u7610:
  2653  003136                     
  2654                           ; BSR set to: 1
  2655                           ;I2C.c: 1112:             I2C_TabRefresh();
  2656  003136  EC76  F01B         	call	_I2C_TabRefresh	;wreg free
  2657  00313A                     l6197:
  2658                           
  2659                           ;I2C.c: 1114:         I2CMemory.PointTab[I2CMemory.sizePoint] = ID;
  2660  00313A  0E00               	movlw	low _I2CMemory
  2661  00313C  0101               	movlb	1	; () banked
  2662  00313E  250A               	addwf	(_I2CMemory+10)& (0+255),w,b
  2663  003140  6ED9               	movwf	fsr2l,c
  2664  003142  6ADA               	clrf	fsr2h,c
  2665  003144  0E01               	movlw	high _I2CMemory
  2666  003146  22DA               	addwfc	fsr2h,f,c
  2667  003148  C09C  FFDF         	movff	I2C_Read_Buffer@ID,indf2
  2668  00314C                     
  2669                           ; BSR set to: 1
  2670                           ;I2C.c: 1115:         I2CMemory.sizePoint++;
  2671  00314C  2B0A               	incf	(_I2CMemory+10)& (0+255),f,b
  2672  00314E                     
  2673                           ; BSR set to: 1
  2674                           ;I2C.c: 1116:         PointerRefresh = 10000;
  2675  00314E  0E27               	movlw	39
  2676  003150  0100               	movlb	0	; () banked
  2677  003152  6FDA               	movwf	(_PointerRefresh+1)& (0+255),b
  2678  003154  0E10               	movlw	16
  2679  003156  6FD9               	movwf	_PointerRefresh& (0+255),b
  2680  003158                     
  2681                           ; BSR set to: 0
  2682                           ;I2C.c: 1117:         return Pointeur;
  2683  003158  C09D  F1F8         	movff	I2C_Read_Buffer@Pointeur,?_I2C_Read_Buffer
  2684  00315C  C09E  F1F9         	movff	I2C_Read_Buffer@Pointeur+1,?_I2C_Read_Buffer+1
  2685  003160                     l309:
  2686  003160  0012               	return		;funcret
  2687  003162                     __end_of_I2C_Read_Buffer:
  2688                           	opt callstack 0
  2689                           
  2690 ;; *************** function _getMemoryPointer *****************
  2691 ;; Defined at:
  2692 ;;		line 96 in file "I2C_conf/memory/memory.c"
  2693 ;; Parameters:    Size  Location     Type
  2694 ;;  sizeData        1    wreg     unsigned char 
  2695 ;;  memoryNumber    1   38[BANK0 ] unsigned char 
  2696 ;; Auto vars:     Size  Location     Type
  2697 ;;  sizeData        1   48[BANK0 ] unsigned char 
  2698 ;;  dP              2   49[BANK0 ] PTR PTR unsigned char 
  2699 ;;		 -> array.Tab.Pointer(2), array.Tab(60), nulPointer(2), 
  2700 ;;  Pointer         2   46[BANK0 ] PTR unsigned char 
  2701 ;;		 -> memory.pile(64), memory(130), NULL(0), 
  2702 ;;  i               1   51[BANK0 ] unsigned char 
  2703 ;;  indice          1   45[BANK0 ] unsigned char 
  2704 ;; Return value:  Size  Location     Type
  2705 ;;                  2   38[BANK0 ] PTR PTR unsigned char 
  2706 ;; Registers used:
  2707 ;;		wreg, fsr1l, fsr1h, fsr2l, fsr2h, status,2, status,0, prodl, prodh, cstack
  2708 ;; Tracked objects:
  2709 ;;		On entry : 0/0
  2710 ;;		On exit  : 0/0
  2711 ;;		Unchanged: 0/0
  2712 ;; Data sizes:     COMRAM   BANK0   BANK1   BANK2   BANK3   BANK4   BANK5
  2713 ;;      Params:         0       2       0       0       0       0       0
  2714 ;;      Locals:         0       7       0       0       0       0       0
  2715 ;;      Temps:          0       5       0       0       0       0       0
  2716 ;;      Totals:         0      14       0       0       0       0       0
  2717 ;;Total ram usage:       14 bytes
  2718 ;; Hardware stack levels used:    1
  2719 ;; Hardware stack levels required when called:    6
  2720 ;; This function calls:
  2721 ;;		_myMalloc
  2722 ;; This function is called by:
  2723 ;;		_I2C_Write
  2724 ;;		_I2C_Read_Register_Request
  2725 ;;		_I2C_Read_Buffer
  2726 ;;		_I2C_Read_Request
  2727 ;; This function uses a non-reentrant model
  2728 ;;
  2729                           
  2730                           	psect	text9
  2731  0023AA                     __ptext9:
  2732                           	opt callstack 0
  2733  0023AA                     _getMemoryPointer:
  2734                           	opt callstack 23
  2735                           
  2736                           ;incstack = 0
  2737                           ;getMemoryPointer@sizeData stored from wreg
  2738  0023AA  0100               	movlb	0	; () banked
  2739  0023AC  6F90               	movwf	getMemoryPointer@sizeData& (0+255),b
  2740  0023AE                     
  2741                           ;I2C_conf/memory/memory.c: 96: t_mem getMemoryPointer(u8 sizeData, u8 memoryNumber);I2C_
      +                          conf/memory/memory.c: 97: {;I2C_conf/memory/memory.c: 98:     t_mem dP;;I2C_conf/memory/
      +                          memory.c: 99:     u8 i;;I2C_conf/memory/memory.c: 100:     u8 indice;;I2C_conf/memory/me
      +                          mory.c: 101:     if(array[memoryNumber].indice >= 10)
  2742  0023AE  0100               	movlb	0	; () banked
  2743  0023B0  5186               	movf	getMemoryPointer@memoryNumber& (0+255),w,b
  2744  0023B2  0D3D               	mullw	61
  2745  0023B4  0E3C               	movlw	low (_array+60)
  2746  0023B6  24F3               	addwf	243,w,c
  2747  0023B8  6ED9               	movwf	fsr2l,c
  2748  0023BA  0E02               	movlw	high (_array+60)
  2749  0023BC  20F4               	addwfc	prodh,w,c
  2750  0023BE  6EDA               	movwf	fsr2h,c
  2751  0023C0  0E09               	movlw	9
  2752  0023C2  64DF               	cpfsgt	indf2,c
  2753  0023C4  EFE6  F011         	goto	u7141
  2754  0023C8  EFE8  F011         	goto	u7140
  2755  0023CC                     u7141:
  2756  0023CC  EFF2  F011         	goto	l5791
  2757  0023D0                     u7140:
  2758  0023D0                     l5787:
  2759                           
  2760                           ; BSR set to: 0
  2761                           ;I2C_conf/memory/memory.c: 102:     {;I2C_conf/memory/memory.c: 103:         dP = &nulPo
      +                          inter;
  2762  0023D0  0EB2               	movlw	low _nulPointer
  2763  0023D2  6F91               	movwf	getMemoryPointer@dP& (0+255),b
  2764  0023D4  0E01               	movlw	high _nulPointer
  2765  0023D6  6F92               	movwf	(getMemoryPointer@dP+1)& (0+255),b
  2766                           
  2767                           ;I2C_conf/memory/memory.c: 104:         return dP;
  2768  0023D8  C091  F086         	movff	getMemoryPointer@dP,?_getMemoryPointer
  2769  0023DC  C092  F087         	movff	getMemoryPointer@dP+1,?_getMemoryPointer+1
  2770  0023E0  EF12  F013         	goto	l351
  2771  0023E4                     l5791:
  2772                           
  2773                           ; BSR set to: 0
  2774                           ;I2C_conf/memory/memory.c: 107:     u8 *Pointer;;I2C_conf/memory/memory.c: 108:     Poin
      +                          ter = myMalloc(sizeData, memoryNumber);
  2775  0023E4  C086  F080         	movff	getMemoryPointer@memoryNumber,myMalloc@memoryNumber
  2776  0023E8  5190               	movf	getMemoryPointer@sizeData& (0+255),w,b
  2777  0023EA  EC26  F01B         	call	_myMalloc
  2778  0023EE  C080  F08E         	movff	?_myMalloc,getMemoryPointer@Pointer
  2779  0023F2  C081  F08F         	movff	?_myMalloc+1,getMemoryPointer@Pointer+1
  2780  0023F6                     
  2781                           ;I2C_conf/memory/memory.c: 109:     if(Pointer == ((void*)0))
  2782  0023F6  0100               	movlb	0	; () banked
  2783  0023F8  518E               	movf	getMemoryPointer@Pointer& (0+255),w,b
  2784  0023FA  118F               	iorwf	(getMemoryPointer@Pointer+1)& (0+255),w,b
  2785  0023FC  A4D8               	btfss	status,2,c
  2786  0023FE  EF03  F012         	goto	u7151
  2787  002402  EF05  F012         	goto	u7150
  2788  002406                     u7151:
  2789  002406  EF07  F012         	goto	l5799
  2790  00240A                     u7150:
  2791  00240A  EFE8  F011         	goto	l5787
  2792  00240E                     l5799:
  2793                           
  2794                           ; BSR set to: 0
  2795                           ;I2C_conf/memory/memory.c: 114:     myMemID[memoryNumber]++;
  2796  00240E  0ED5               	movlw	low _myMemID
  2797  002410  2586               	addwf	getMemoryPointer@memoryNumber& (0+255),w,b
  2798  002412  6ED9               	movwf	fsr2l,c
  2799  002414  6ADA               	clrf	fsr2h,c
  2800  002416  0E00               	movlw	high _myMemID
  2801  002418  22DA               	addwfc	fsr2h,f,c
  2802  00241A  2ADF               	incf	indf2,f,c
  2803                           
  2804                           ;I2C_conf/memory/memory.c: 115:     if(myMemID[memoryNumber] == 0)
  2805  00241C  0ED5               	movlw	low _myMemID
  2806  00241E  2586               	addwf	getMemoryPointer@memoryNumber& (0+255),w,b
  2807  002420  6ED9               	movwf	fsr2l,c
  2808  002422  6ADA               	clrf	fsr2h,c
  2809  002424  0E00               	movlw	high _myMemID
  2810  002426  22DA               	addwfc	fsr2h,f,c
  2811  002428  50DF               	movf	indf2,w,c
  2812  00242A  A4D8               	btfss	status,2,c
  2813  00242C  EF1A  F012         	goto	u7161
  2814  002430  EF1C  F012         	goto	u7160
  2815  002434                     u7161:
  2816  002434  EF23  F012         	goto	l5803
  2817  002438                     u7160:
  2818  002438                     
  2819                           ; BSR set to: 0
  2820                           ;I2C_conf/memory/memory.c: 116:         myMemID[memoryNumber]++;
  2821  002438  0ED5               	movlw	low _myMemID
  2822  00243A  2586               	addwf	getMemoryPointer@memoryNumber& (0+255),w,b
  2823  00243C  6ED9               	movwf	fsr2l,c
  2824  00243E  6ADA               	clrf	fsr2h,c
  2825  002440  0E00               	movlw	high _myMemID
  2826  002442  22DA               	addwfc	fsr2h,f,c
  2827  002444  2ADF               	incf	indf2,f,c
  2828  002446                     l5803:
  2829                           
  2830                           ; BSR set to: 0
  2831                           ;I2C_conf/memory/memory.c: 117:     for(i = 0; i < 10; i++)
  2832  002446  0E00               	movlw	0
  2833  002448  6F93               	movwf	getMemoryPointer@i& (0+255),b
  2834  00244A                     l5809:
  2835                           
  2836                           ; BSR set to: 0
  2837                           ;I2C_conf/memory/memory.c: 118:     {;I2C_conf/memory/memory.c: 119:         if(array[me
      +                          moryNumber].Tab[i].State == 0)
  2838  00244A  5193               	movf	getMemoryPointer@i& (0+255),w,b
  2839  00244C  0D06               	mullw	6
  2840  00244E  CFF3 F088          	movff	prodl,??_getMemoryPointer
  2841  002452  CFF4 F089          	movff	prodh,??_getMemoryPointer+1
  2842  002456  5186               	movf	getMemoryPointer@memoryNumber& (0+255),w,b
  2843  002458  0D3D               	mullw	61
  2844  00245A  0E00               	movlw	low _array
  2845  00245C  6F8A               	movwf	(??_getMemoryPointer+2)& (0+255),b
  2846  00245E  0E02               	movlw	high _array
  2847  002460  6F8B               	movwf	(??_getMemoryPointer+3)& (0+255),b
  2848  002462  0E03               	movlw	3
  2849  002464  278A               	addwf	(??_getMemoryPointer+2)& (0+255),f,b
  2850  002466  0E00               	movlw	0
  2851  002468  238B               	addwfc	(??_getMemoryPointer+3)& (0+255),f,b
  2852  00246A  50F3               	movf	243,w,c
  2853  00246C  278A               	addwf	(??_getMemoryPointer+2)& (0+255),f,b
  2854  00246E  50F4               	movf	244,w,c
  2855  002470  238B               	addwfc	(??_getMemoryPointer+3)& (0+255),f,b
  2856  002472  5188               	movf	??_getMemoryPointer& (0+255),w,b
  2857  002474  258A               	addwf	(??_getMemoryPointer+2)& (0+255),w,b
  2858  002476  6ED9               	movwf	fsr2l,c
  2859  002478  5189               	movf	(??_getMemoryPointer+1)& (0+255),w,b
  2860  00247A  218B               	addwfc	(??_getMemoryPointer+3)& (0+255),w,b
  2861  00247C  6EDA               	movwf	fsr2h,c
  2862  00247E  50DF               	movf	indf2,w,c
  2863  002480  A4D8               	btfss	status,2,c
  2864  002482  EF45  F012         	goto	u7171
  2865  002486  EF47  F012         	goto	u7170
  2866  00248A                     u7171:
  2867  00248A  EFE6  F012         	goto	l5819
  2868  00248E                     u7170:
  2869  00248E                     
  2870                           ; BSR set to: 0
  2871                           ;I2C_conf/memory/memory.c: 120:         {;I2C_conf/memory/memory.c: 121:             arr
      +                          ay[memoryNumber].Tab[i].Pointer = Pointer;
  2872  00248E  5193               	movf	getMemoryPointer@i& (0+255),w,b
  2873  002490  0D06               	mullw	6
  2874  002492  CFF3 F088          	movff	prodl,??_getMemoryPointer
  2875  002496  CFF4 F089          	movff	prodh,??_getMemoryPointer+1
  2876  00249A  5186               	movf	getMemoryPointer@memoryNumber& (0+255),w,b
  2877  00249C  0D3D               	mullw	61
  2878  00249E  0E00               	movlw	low _array
  2879  0024A0  6F8A               	movwf	(??_getMemoryPointer+2)& (0+255),b
  2880  0024A2  0E02               	movlw	high _array
  2881  0024A4  6F8B               	movwf	(??_getMemoryPointer+3)& (0+255),b
  2882  0024A6  50F3               	movf	243,w,c
  2883  0024A8  278A               	addwf	(??_getMemoryPointer+2)& (0+255),f,b
  2884  0024AA  50F4               	movf	244,w,c
  2885  0024AC  238B               	addwfc	(??_getMemoryPointer+3)& (0+255),f,b
  2886  0024AE  5188               	movf	??_getMemoryPointer& (0+255),w,b
  2887  0024B0  258A               	addwf	(??_getMemoryPointer+2)& (0+255),w,b
  2888  0024B2  6ED9               	movwf	fsr2l,c
  2889  0024B4  5189               	movf	(??_getMemoryPointer+1)& (0+255),w,b
  2890  0024B6  218B               	addwfc	(??_getMemoryPointer+3)& (0+255),w,b
  2891  0024B8  6EDA               	movwf	fsr2h,c
  2892  0024BA  C08E  FFDE         	movff	getMemoryPointer@Pointer,postinc2
  2893  0024BE  C08F  FFDD         	movff	getMemoryPointer@Pointer+1,postdec2
  2894                           
  2895                           ;I2C_conf/memory/memory.c: 122:             array[memoryNumber].Tab[i].PointerSize = siz
      +                          eData;
  2896  0024C2  5193               	movf	getMemoryPointer@i& (0+255),w,b
  2897  0024C4  0D06               	mullw	6
  2898  0024C6  CFF3 F088          	movff	prodl,??_getMemoryPointer
  2899  0024CA  CFF4 F089          	movff	prodh,??_getMemoryPointer+1
  2900  0024CE  5186               	movf	getMemoryPointer@memoryNumber& (0+255),w,b
  2901  0024D0  0D3D               	mullw	61
  2902  0024D2  0E00               	movlw	low _array
  2903  0024D4  6F8A               	movwf	(??_getMemoryPointer+2)& (0+255),b
  2904  0024D6  0E02               	movlw	high _array
  2905  0024D8  6F8B               	movwf	(??_getMemoryPointer+3)& (0+255),b
  2906  0024DA  0E02               	movlw	2
  2907  0024DC  278A               	addwf	(??_getMemoryPointer+2)& (0+255),f,b
  2908  0024DE  0E00               	movlw	0
  2909  0024E0  238B               	addwfc	(??_getMemoryPointer+3)& (0+255),f,b
  2910  0024E2  50F3               	movf	243,w,c
  2911  0024E4  278A               	addwf	(??_getMemoryPointer+2)& (0+255),f,b
  2912  0024E6  50F4               	movf	244,w,c
  2913  0024E8  238B               	addwfc	(??_getMemoryPointer+3)& (0+255),f,b
  2914  0024EA  5188               	movf	??_getMemoryPointer& (0+255),w,b
  2915  0024EC  258A               	addwf	(??_getMemoryPointer+2)& (0+255),w,b
  2916  0024EE  6ED9               	movwf	fsr2l,c
  2917  0024F0  5189               	movf	(??_getMemoryPointer+1)& (0+255),w,b
  2918  0024F2  218B               	addwfc	(??_getMemoryPointer+3)& (0+255),w,b
  2919  0024F4  6EDA               	movwf	fsr2h,c
  2920  0024F6  C090  FFDF         	movff	getMemoryPointer@sizeData,indf2
  2921                           
  2922                           ;I2C_conf/memory/memory.c: 123:             array[memoryNumber].Tab[i].State = 1;
  2923  0024FA  5193               	movf	getMemoryPointer@i& (0+255),w,b
  2924  0024FC  0D06               	mullw	6
  2925  0024FE  CFF3 F088          	movff	prodl,??_getMemoryPointer
  2926  002502  CFF4 F089          	movff	prodh,??_getMemoryPointer+1
  2927  002506  5186               	movf	getMemoryPointer@memoryNumber& (0+255),w,b
  2928  002508  0D3D               	mullw	61
  2929  00250A  0E00               	movlw	low _array
  2930  00250C  6F8A               	movwf	(??_getMemoryPointer+2)& (0+255),b
  2931  00250E  0E02               	movlw	high _array
  2932  002510  6F8B               	movwf	(??_getMemoryPointer+3)& (0+255),b
  2933  002512  0E03               	movlw	3
  2934  002514  278A               	addwf	(??_getMemoryPointer+2)& (0+255),f,b
  2935  002516  0E00               	movlw	0
  2936  002518  238B               	addwfc	(??_getMemoryPointer+3)& (0+255),f,b
  2937  00251A  50F3               	movf	243,w,c
  2938  00251C  278A               	addwf	(??_getMemoryPointer+2)& (0+255),f,b
  2939  00251E  50F4               	movf	244,w,c
  2940  002520  238B               	addwfc	(??_getMemoryPointer+3)& (0+255),f,b
  2941  002522  5188               	movf	??_getMemoryPointer& (0+255),w,b
  2942  002524  258A               	addwf	(??_getMemoryPointer+2)& (0+255),w,b
  2943  002526  6ED9               	movwf	fsr2l,c
  2944  002528  5189               	movf	(??_getMemoryPointer+1)& (0+255),w,b
  2945  00252A  218B               	addwfc	(??_getMemoryPointer+3)& (0+255),w,b
  2946  00252C  6EDA               	movwf	fsr2h,c
  2947  00252E  0E01               	movlw	1
  2948  002530  6EDF               	movwf	indf2,c
  2949  002532                     
  2950                           ; BSR set to: 0
  2951                           ;I2C_conf/memory/memory.c: 124:             array[memoryNumber].Tab[i].ID = myMemID[memo
      +                          ryNumber];
  2952  002532  0ED5               	movlw	low _myMemID
  2953  002534  2586               	addwf	getMemoryPointer@memoryNumber& (0+255),w,b
  2954  002536  6ED9               	movwf	fsr2l,c
  2955  002538  6ADA               	clrf	fsr2h,c
  2956  00253A  0E00               	movlw	high _myMemID
  2957  00253C  22DA               	addwfc	fsr2h,f,c
  2958  00253E  5193               	movf	getMemoryPointer@i& (0+255),w,b
  2959  002540  0D06               	mullw	6
  2960  002542  CFF3 F088          	movff	prodl,??_getMemoryPointer
  2961  002546  CFF4 F089          	movff	prodh,??_getMemoryPointer+1
  2962  00254A  5186               	movf	getMemoryPointer@memoryNumber& (0+255),w,b
  2963  00254C  0D3D               	mullw	61
  2964  00254E  0E00               	movlw	low _array
  2965  002550  6F8A               	movwf	(??_getMemoryPointer+2)& (0+255),b
  2966  002552  0E02               	movlw	high _array
  2967  002554  6F8B               	movwf	(??_getMemoryPointer+3)& (0+255),b
  2968  002556  0E04               	movlw	4
  2969  002558  278A               	addwf	(??_getMemoryPointer+2)& (0+255),f,b
  2970  00255A  0E00               	movlw	0
  2971  00255C  238B               	addwfc	(??_getMemoryPointer+3)& (0+255),f,b
  2972  00255E  50F3               	movf	243,w,c
  2973  002560  278A               	addwf	(??_getMemoryPointer+2)& (0+255),f,b
  2974  002562  50F4               	movf	244,w,c
  2975  002564  238B               	addwfc	(??_getMemoryPointer+3)& (0+255),f,b
  2976  002566  5188               	movf	??_getMemoryPointer& (0+255),w,b
  2977  002568  258A               	addwf	(??_getMemoryPointer+2)& (0+255),w,b
  2978  00256A  6EE1               	movwf	fsr1l,c
  2979  00256C  5189               	movf	(??_getMemoryPointer+1)& (0+255),w,b
  2980  00256E  218B               	addwfc	(??_getMemoryPointer+3)& (0+255),w,b
  2981  002570  6EE2               	movwf	fsr1h,c
  2982  002572  CFDF FFE7          	movff	indf2,indf1
  2983  002576                     
  2984                           ; BSR set to: 0
  2985                           ;I2C_conf/memory/memory.c: 125:             array[memoryNumber].Tab[i].indice = (memory[
      +                          memoryNumber].use - sizeData);
  2986  002576  5193               	movf	getMemoryPointer@i& (0+255),w,b
  2987  002578  0D06               	mullw	6
  2988  00257A  CFF3 F088          	movff	prodl,??_getMemoryPointer
  2989  00257E  CFF4 F089          	movff	prodh,??_getMemoryPointer+1
  2990  002582  5186               	movf	getMemoryPointer@memoryNumber& (0+255),w,b
  2991  002584  0D3D               	mullw	61
  2992  002586  0E00               	movlw	low _array
  2993  002588  6F8A               	movwf	(??_getMemoryPointer+2)& (0+255),b
  2994  00258A  0E02               	movlw	high _array
  2995  00258C  6F8B               	movwf	(??_getMemoryPointer+3)& (0+255),b
  2996  00258E  0E05               	movlw	5
  2997  002590  278A               	addwf	(??_getMemoryPointer+2)& (0+255),f,b
  2998  002592  0E00               	movlw	0
  2999  002594  238B               	addwfc	(??_getMemoryPointer+3)& (0+255),f,b
  3000  002596  50F3               	movf	243,w,c
  3001  002598  278A               	addwf	(??_getMemoryPointer+2)& (0+255),f,b
  3002  00259A  50F4               	movf	244,w,c
  3003  00259C  238B               	addwfc	(??_getMemoryPointer+3)& (0+255),f,b
  3004  00259E  5188               	movf	??_getMemoryPointer& (0+255),w,b
  3005  0025A0  258A               	addwf	(??_getMemoryPointer+2)& (0+255),w,b
  3006  0025A2  6ED9               	movwf	fsr2l,c
  3007  0025A4  5189               	movf	(??_getMemoryPointer+1)& (0+255),w,b
  3008  0025A6  218B               	addwfc	(??_getMemoryPointer+3)& (0+255),w,b
  3009  0025A8  6EDA               	movwf	fsr2h,c
  3010  0025AA  5186               	movf	getMemoryPointer@memoryNumber& (0+255),w,b
  3011  0025AC  0D41               	mullw	65
  3012  0025AE  0EBA               	movlw	low (_memory+64)
  3013  0025B0  24F3               	addwf	243,w,c
  3014  0025B2  6EE1               	movwf	fsr1l,c
  3015  0025B4  0E02               	movlw	high (_memory+64)
  3016  0025B6  20F4               	addwfc	prodh,w,c
  3017  0025B8  6EE2               	movwf	fsr1h,c
  3018  0025BA  50E7               	movf	indf1,w,c
  3019  0025BC  6F8C               	movwf	(??_getMemoryPointer+4)& (0+255),b
  3020  0025BE  5190               	movf	getMemoryPointer@sizeData& (0+255),w,b
  3021  0025C0  5D8C               	subwf	(??_getMemoryPointer+4)& (0+255),w,b
  3022  0025C2  6EDF               	movwf	indf2,c
  3023  0025C4                     
  3024                           ; BSR set to: 0
  3025                           ;I2C_conf/memory/memory.c: 126:             indice = i;
  3026  0025C4  C093  F08D         	movff	getMemoryPointer@i,getMemoryPointer@indice
  3027                           
  3028                           ;I2C_conf/memory/memory.c: 127:             break;
  3029  0025C8  EFEF  F012         	goto	l5823
  3030  0025CC                     l5819:
  3031                           
  3032                           ; BSR set to: 0
  3033                           ;I2C_conf/memory/memory.c: 129:     }
  3034  0025CC  2B93               	incf	getMemoryPointer@i& (0+255),f,b
  3035  0025CE                     
  3036                           ; BSR set to: 0
  3037  0025CE  0E09               	movlw	9
  3038  0025D0  6593               	cpfsgt	getMemoryPointer@i& (0+255),b
  3039  0025D2  EFED  F012         	goto	u7181
  3040  0025D6  EFEF  F012         	goto	u7180
  3041  0025DA                     u7181:
  3042  0025DA  EF25  F012         	goto	l5809
  3043  0025DE                     u7180:
  3044  0025DE                     l5823:
  3045                           
  3046                           ; BSR set to: 0
  3047                           ;I2C_conf/memory/memory.c: 130:     array[memoryNumber].indice++;
  3048  0025DE  5186               	movf	getMemoryPointer@memoryNumber& (0+255),w,b
  3049  0025E0  0D3D               	mullw	61
  3050  0025E2  0E3C               	movlw	low (_array+60)
  3051  0025E4  24F3               	addwf	243,w,c
  3052  0025E6  6ED9               	movwf	fsr2l,c
  3053  0025E8  0E02               	movlw	high (_array+60)
  3054  0025EA  20F4               	addwfc	prodh,w,c
  3055  0025EC  6EDA               	movwf	fsr2h,c
  3056  0025EE  2ADF               	incf	indf2,f,c
  3057  0025F0                     
  3058                           ; BSR set to: 0
  3059                           ;I2C_conf/memory/memory.c: 131:     dP = &array[memoryNumber].Tab[indice].Pointer;
  3060  0025F0  518D               	movf	getMemoryPointer@indice& (0+255),w,b
  3061  0025F2  0D06               	mullw	6
  3062  0025F4  CFF3 F088          	movff	prodl,??_getMemoryPointer
  3063  0025F8  CFF4 F089          	movff	prodh,??_getMemoryPointer+1
  3064  0025FC  5186               	movf	getMemoryPointer@memoryNumber& (0+255),w,b
  3065  0025FE  0D3D               	mullw	61
  3066  002600  0E00               	movlw	low _array
  3067  002602  6F8A               	movwf	(??_getMemoryPointer+2)& (0+255),b
  3068  002604  0E02               	movlw	high _array
  3069  002606  6F8B               	movwf	(??_getMemoryPointer+3)& (0+255),b
  3070  002608  50F3               	movf	243,w,c
  3071  00260A  278A               	addwf	(??_getMemoryPointer+2)& (0+255),f,b
  3072  00260C  50F4               	movf	244,w,c
  3073  00260E  238B               	addwfc	(??_getMemoryPointer+3)& (0+255),f,b
  3074  002610  5188               	movf	??_getMemoryPointer& (0+255),w,b
  3075  002612  258A               	addwf	(??_getMemoryPointer+2)& (0+255),w,b
  3076  002614  6F91               	movwf	getMemoryPointer@dP& (0+255),b
  3077  002616  5189               	movf	(??_getMemoryPointer+1)& (0+255),w,b
  3078  002618  218B               	addwfc	(??_getMemoryPointer+3)& (0+255),w,b
  3079  00261A  6F92               	movwf	(getMemoryPointer@dP+1)& (0+255),b
  3080  00261C                     
  3081                           ; BSR set to: 0
  3082                           ;I2C_conf/memory/memory.c: 132:     return dP;
  3083  00261C  C091  F086         	movff	getMemoryPointer@dP,?_getMemoryPointer
  3084  002620  C092  F087         	movff	getMemoryPointer@dP+1,?_getMemoryPointer+1
  3085  002624                     l351:
  3086                           
  3087                           ; BSR set to: 0
  3088  002624  0012               	return		;funcret
  3089  002626                     __end_of_getMemoryPointer:
  3090                           	opt callstack 0
  3091                           
  3092 ;; *************** function _myMalloc *****************
  3093 ;; Defined at:
  3094 ;;		line 72 in file "I2C_conf/memory/memory.c"
  3095 ;; Parameters:    Size  Location     Type
  3096 ;;  sizeData        1    wreg     unsigned char 
  3097 ;;  memoryNumber    1   32[BANK0 ] unsigned char 
  3098 ;; Auto vars:     Size  Location     Type
  3099 ;;  sizeData        1   37[BANK0 ] unsigned char 
  3100 ;; Return value:  Size  Location     Type
  3101 ;;                  2   32[BANK0 ] PTR unsigned char 
  3102 ;; Registers used:
  3103 ;;		wreg, fsr2l, fsr2h, status,2, status,0, prodl, prodh
  3104 ;; Tracked objects:
  3105 ;;		On entry : 0/0
  3106 ;;		On exit  : 0/0
  3107 ;;		Unchanged: 0/0
  3108 ;; Data sizes:     COMRAM   BANK0   BANK1   BANK2   BANK3   BANK4   BANK5
  3109 ;;      Params:         0       2       0       0       0       0       0
  3110 ;;      Locals:         0       1       0       0       0       0       0
  3111 ;;      Temps:          0       3       0       0       0       0       0
  3112 ;;      Totals:         0       6       0       0       0       0       0
  3113 ;;Total ram usage:        6 bytes
  3114 ;; Hardware stack levels used:    1
  3115 ;; Hardware stack levels required when called:    5
  3116 ;; This function calls:
  3117 ;;		Nothing
  3118 ;; This function is called by:
  3119 ;;		_getMemoryPointer
  3120 ;; This function uses a non-reentrant model
  3121 ;;
  3122                           
  3123                           	psect	text10
  3124  00364C                     __ptext10:
  3125                           	opt callstack 0
  3126  00364C                     _myMalloc:
  3127                           	opt callstack 23
  3128                           
  3129                           ; BSR set to: 0
  3130                           ;incstack = 0
  3131                           ;myMalloc@sizeData stored from wreg
  3132  00364C  0100               	movlb	0	; () banked
  3133  00364E  6F85               	movwf	myMalloc@sizeData& (0+255),b
  3134  003650                     
  3135                           ;I2C_conf/memory/memory.c: 72: u8* myMalloc(u8 sizeData,u8 memoryNumber);I2C_conf/memory
      +                          /memory.c: 73: {;I2C_conf/memory/memory.c: 74:     if((memory[memoryNumber].use + sizeDa
      +                          ta) > (64 -1))
  3136  003650  0100               	movlb	0	; () banked
  3137  003652  5180               	movf	myMalloc@memoryNumber& (0+255),w,b
  3138  003654  0D41               	mullw	65
  3139  003656  0EBA               	movlw	low (_memory+64)
  3140  003658  24F3               	addwf	243,w,c
  3141  00365A  6ED9               	movwf	fsr2l,c
  3142  00365C  0E02               	movlw	high (_memory+64)
  3143  00365E  20F4               	addwfc	prodh,w,c
  3144  003660  6EDA               	movwf	fsr2h,c
  3145  003662  50DF               	movf	indf2,w,c
  3146  003664  6F82               	movwf	??_myMalloc& (0+255),b
  3147  003666  6B83               	clrf	(??_myMalloc+1)& (0+255),b
  3148  003668  5185               	movf	myMalloc@sizeData& (0+255),w,b
  3149  00366A  2782               	addwf	??_myMalloc& (0+255),f,b
  3150  00366C  0E00               	movlw	0
  3151  00366E  2383               	addwfc	(??_myMalloc+1)& (0+255),f,b
  3152  003670  BF83               	btfsc	(??_myMalloc+1)& (0+255),7,b
  3153  003672  EF44  F01B         	goto	u5811
  3154  003676  5183               	movf	(??_myMalloc+1)& (0+255),w,b
  3155  003678  E109               	bnz	u5810
  3156  00367A  0E40               	movlw	64
  3157  00367C  5D82               	subwf	??_myMalloc& (0+255),w,b
  3158  00367E  A0D8               	btfss	status,0,c
  3159  003680  EF44  F01B         	goto	u5811
  3160  003684  EF46  F01B         	goto	u5810
  3161  003688                     u5811:
  3162  003688  EF4C  F01B         	goto	l5021
  3163  00368C                     u5810:
  3164  00368C                     
  3165                           ; BSR set to: 0
  3166                           ;I2C_conf/memory/memory.c: 75:             return ((void*)0);
  3167  00368C  0E00               	movlw	0
  3168  00368E  6F80               	movwf	?_myMalloc& (0+255),b
  3169  003690  0E00               	movlw	0
  3170  003692  6F81               	movwf	(?_myMalloc+1)& (0+255),b
  3171  003694  EF75  F01B         	goto	l347
  3172  003698                     l5021:
  3173                           
  3174                           ; BSR set to: 0
  3175                           ;I2C_conf/memory/memory.c: 76:     memory[memoryNumber].use += sizeData;
  3176  003698  5180               	movf	myMalloc@memoryNumber& (0+255),w,b
  3177  00369A  0D41               	mullw	65
  3178  00369C  0EBA               	movlw	low (_memory+64)
  3179  00369E  24F3               	addwf	243,w,c
  3180  0036A0  6ED9               	movwf	fsr2l,c
  3181  0036A2  0E02               	movlw	high (_memory+64)
  3182  0036A4  20F4               	addwfc	prodh,w,c
  3183  0036A6  6EDA               	movwf	fsr2h,c
  3184  0036A8  5185               	movf	myMalloc@sizeData& (0+255),w,b
  3185  0036AA  26DF               	addwf	indf2,f,c
  3186                           
  3187                           ;I2C_conf/memory/memory.c: 77:     return &memory[memoryNumber].pile[memory[memoryNumber
      +                          ].use - sizeData];
  3188  0036AC  5180               	movf	myMalloc@memoryNumber& (0+255),w,b
  3189  0036AE  0D41               	mullw	65
  3190  0036B0  0E7A               	movlw	low _memory
  3191  0036B2  6F82               	movwf	??_myMalloc& (0+255),b
  3192  0036B4  0E02               	movlw	high _memory
  3193  0036B6  6F83               	movwf	(??_myMalloc+1)& (0+255),b
  3194  0036B8  50F3               	movf	243,w,c
  3195  0036BA  2782               	addwf	??_myMalloc& (0+255),f,b
  3196  0036BC  50F4               	movf	244,w,c
  3197  0036BE  2383               	addwfc	(??_myMalloc+1)& (0+255),f,b
  3198  0036C0  5180               	movf	myMalloc@memoryNumber& (0+255),w,b
  3199  0036C2  0D41               	mullw	65
  3200  0036C4  0EBA               	movlw	low (_memory+64)
  3201  0036C6  24F3               	addwf	243,w,c
  3202  0036C8  6ED9               	movwf	fsr2l,c
  3203  0036CA  0E02               	movlw	high (_memory+64)
  3204  0036CC  20F4               	addwfc	prodh,w,c
  3205  0036CE  6EDA               	movwf	fsr2h,c
  3206  0036D0  50DF               	movf	indf2,w,c
  3207  0036D2  6F84               	movwf	(??_myMalloc+2)& (0+255),b
  3208  0036D4  5184               	movf	(??_myMalloc+2)& (0+255),w,b
  3209  0036D6  2782               	addwf	??_myMalloc& (0+255),f,b
  3210  0036D8  0E00               	movlw	0
  3211  0036DA  2383               	addwfc	(??_myMalloc+1)& (0+255),f,b
  3212  0036DC  5185               	movf	myMalloc@sizeData& (0+255),w,b
  3213  0036DE  5D82               	subwf	??_myMalloc& (0+255),w,b
  3214  0036E0  6F80               	movwf	?_myMalloc& (0+255),b
  3215  0036E2  5183               	movf	(??_myMalloc+1)& (0+255),w,b
  3216  0036E4  A0D8               	btfss	status,0,c
  3217  0036E6  0583               	decf	(??_myMalloc+1)& (0+255),w,b
  3218  0036E8  6F81               	movwf	(?_myMalloc+1)& (0+255),b
  3219  0036EA                     l347:
  3220                           
  3221                           ; BSR set to: 0
  3222  0036EA  0012               	return		;funcret
  3223  0036EC                     __end_of_myMalloc:
  3224                           	opt callstack 0
  3225                           
  3226 ;; *************** function _getMemoryID *****************
  3227 ;; Defined at:
  3228 ;;		line 251 in file "I2C_conf/memory/memory.c"
  3229 ;; Parameters:    Size  Location     Type
  3230 ;;  Pointer         2   32[BANK0 ] PTR PTR unsigned char 
  3231 ;;		 -> array.Tab.Pointer(2), array.Tab(60), nulPointer(2), 
  3232 ;;  memoryNumber    1   34[BANK0 ] unsigned char 
  3233 ;; Auto vars:     Size  Location     Type
  3234 ;;  i               1   41[BANK0 ] unsigned char 
  3235 ;;  indice          1   40[BANK0 ] unsigned char 
  3236 ;; Return value:  Size  Location     Type
  3237 ;;                  2   32[BANK0 ] int 
  3238 ;; Registers used:
  3239 ;;		wreg, fsr2l, fsr2h, status,2, status,0, prodl, prodh
  3240 ;; Tracked objects:
  3241 ;;		On entry : 0/0
  3242 ;;		On exit  : 0/0
  3243 ;;		Unchanged: 0/0
  3244 ;; Data sizes:     COMRAM   BANK0   BANK1   BANK2   BANK3   BANK4   BANK5
  3245 ;;      Params:         0       3       0       0       0       0       0
  3246 ;;      Locals:         0       2       0       0       0       0       0
  3247 ;;      Temps:          0       5       0       0       0       0       0
  3248 ;;      Totals:         0      10       0       0       0       0       0
  3249 ;;Total ram usage:       10 bytes
  3250 ;; Hardware stack levels used:    1
  3251 ;; Hardware stack levels required when called:    5
  3252 ;; This function calls:
  3253 ;;		Nothing
  3254 ;; This function is called by:
  3255 ;;		_I2C_Write
  3256 ;;		_I2C_Read_Register_Request
  3257 ;;		_I2C_Read_Buffer
  3258 ;;		_I2C_Read_Request
  3259 ;; This function uses a non-reentrant model
  3260 ;;
  3261                           
  3262                           	psect	text11
  3263  003162                     __ptext11:
  3264                           	opt callstack 0
  3265  003162                     _getMemoryID:
  3266                           	opt callstack 24
  3267  003162                     
  3268                           ;I2C_conf/memory/memory.c: 251: int getMemoryID(t_mem Pointer, u8 memoryNumber);I2C_conf
      +                          /memory/memory.c: 252: {;I2C_conf/memory/memory.c: 253:     if(*Pointer == ((void*)0))
  3269  003162  C080  FFD9         	movff	getMemoryID@Pointer,fsr2l
  3270  003166  C081  FFDA         	movff	getMemoryID@Pointer+1,fsr2h
  3271  00316A  50DE               	movf	postinc2,w,c
  3272  00316C  10DE               	iorwf	postinc2,w,c
  3273  00316E  A4D8               	btfss	status,2,c
  3274  003170  EFBC  F018         	goto	u7191
  3275  003174  EFBE  F018         	goto	u7190
  3276  003178                     u7191:
  3277  003178  EFC3  F018         	goto	l5835
  3278  00317C                     u7190:
  3279  00317C                     l5833:
  3280                           
  3281                           ;I2C_conf/memory/memory.c: 254:         return (-1);
  3282  00317C  0100               	movlb	0	; () banked
  3283  00317E  6980               	setf	?_getMemoryID& (0+255),b
  3284  003180  6981               	setf	(?_getMemoryID+1)& (0+255),b
  3285  003182  EF3F  F019         	goto	l383
  3286  003186                     l5835:
  3287                           
  3288                           ;I2C_conf/memory/memory.c: 255:     u8 i;;I2C_conf/memory/memory.c: 256:     u8 indice =
      +                           10 + 1;
  3289  003186  0E0B               	movlw	11
  3290  003188  0100               	movlb	0	; () banked
  3291  00318A  6F88               	movwf	getMemoryID@indice& (0+255),b
  3292                           
  3293                           ;I2C_conf/memory/memory.c: 257:     for(i = 0; i < 10 ; i++)
  3294  00318C  0E00               	movlw	0
  3295  00318E  6F89               	movwf	getMemoryID@i& (0+255),b
  3296  003190                     l5841:
  3297                           
  3298                           ; BSR set to: 0
  3299                           ;I2C_conf/memory/memory.c: 258:     {;I2C_conf/memory/memory.c: 259:         if(Pointer 
      +                          == &array[memoryNumber].Tab[i].Pointer)
  3300  003190  5182               	movf	getMemoryID@memoryNumber& (0+255),w,b
  3301  003192  0D3D               	mullw	61
  3302  003194  0E00               	movlw	low _array
  3303  003196  6F83               	movwf	??_getMemoryID& (0+255),b
  3304  003198  0E02               	movlw	high _array
  3305  00319A  6F84               	movwf	(??_getMemoryID+1)& (0+255),b
  3306  00319C  50F3               	movf	243,w,c
  3307  00319E  2783               	addwf	??_getMemoryID& (0+255),f,b
  3308  0031A0  50F4               	movf	244,w,c
  3309  0031A2  2384               	addwfc	(??_getMemoryID+1)& (0+255),f,b
  3310  0031A4  5189               	movf	getMemoryID@i& (0+255),w,b
  3311  0031A6  0D06               	mullw	6
  3312  0031A8  50F3               	movf	243,w,c
  3313  0031AA  2783               	addwf	??_getMemoryID& (0+255),f,b
  3314  0031AC  50F4               	movf	244,w,c
  3315  0031AE  2384               	addwfc	(??_getMemoryID+1)& (0+255),f,b
  3316  0031B0  5183               	movf	??_getMemoryID& (0+255),w,b
  3317  0031B2  1980               	xorwf	getMemoryID@Pointer& (0+255),w,b
  3318  0031B4  E107               	bnz	u7201
  3319  0031B6  5184               	movf	(??_getMemoryID+1)& (0+255),w,b
  3320  0031B8  1981               	xorwf	(getMemoryID@Pointer+1)& (0+255),w,b
  3321  0031BA  A4D8               	btfss	status,2,c
  3322  0031BC  EFE2  F018         	goto	u7201
  3323  0031C0  EFE4  F018         	goto	u7200
  3324  0031C4                     u7201:
  3325  0031C4  EFE8  F018         	goto	l5845
  3326  0031C8                     u7200:
  3327  0031C8                     
  3328                           ; BSR set to: 0
  3329                           ;I2C_conf/memory/memory.c: 260:         {;I2C_conf/memory/memory.c: 261:             ind
      +                          ice = i;
  3330  0031C8  C089  F088         	movff	getMemoryID@i,getMemoryID@indice
  3331                           
  3332                           ;I2C_conf/memory/memory.c: 262:             break;
  3333  0031CC  EFF1  F018         	goto	l5849
  3334  0031D0                     l5845:
  3335                           
  3336                           ; BSR set to: 0
  3337                           ;I2C_conf/memory/memory.c: 264:     }
  3338  0031D0  2B89               	incf	getMemoryID@i& (0+255),f,b
  3339  0031D2                     
  3340                           ; BSR set to: 0
  3341  0031D2  0E09               	movlw	9
  3342  0031D4  6589               	cpfsgt	getMemoryID@i& (0+255),b
  3343  0031D6  EFEF  F018         	goto	u7211
  3344  0031DA  EFF1  F018         	goto	u7210
  3345  0031DE                     u7211:
  3346  0031DE  EFC8  F018         	goto	l5841
  3347  0031E2                     u7210:
  3348  0031E2                     l5849:
  3349                           
  3350                           ; BSR set to: 0
  3351                           ;I2C_conf/memory/memory.c: 265:     if(indice == (10 + 1))
  3352  0031E2  0E0B               	movlw	11
  3353  0031E4  1988               	xorwf	getMemoryID@indice& (0+255),w,b
  3354  0031E6  A4D8               	btfss	status,2,c
  3355  0031E8  EFF8  F018         	goto	u7221
  3356  0031EC  EFFA  F018         	goto	u7220
  3357  0031F0                     u7221:
  3358  0031F0  EFFC  F018         	goto	l5853
  3359  0031F4                     u7220:
  3360  0031F4  EFBE  F018         	goto	l5833
  3361  0031F8                     l5853:
  3362                           
  3363                           ; BSR set to: 0
  3364                           ;I2C_conf/memory/memory.c: 267:     if(array[memoryNumber].Tab[indice].State == 0)
  3365  0031F8  5188               	movf	getMemoryID@indice& (0+255),w,b
  3366  0031FA  0D06               	mullw	6
  3367  0031FC  CFF3 F083          	movff	prodl,??_getMemoryID
  3368  003200  CFF4 F084          	movff	prodh,??_getMemoryID+1
  3369  003204  5182               	movf	getMemoryID@memoryNumber& (0+255),w,b
  3370  003206  0D3D               	mullw	61
  3371  003208  0E00               	movlw	low _array
  3372  00320A  6F85               	movwf	(??_getMemoryID+2)& (0+255),b
  3373  00320C  0E02               	movlw	high _array
  3374  00320E  6F86               	movwf	(??_getMemoryID+3)& (0+255),b
  3375  003210  0E03               	movlw	3
  3376  003212  2785               	addwf	(??_getMemoryID+2)& (0+255),f,b
  3377  003214  0E00               	movlw	0
  3378  003216  2386               	addwfc	(??_getMemoryID+3)& (0+255),f,b
  3379  003218  50F3               	movf	243,w,c
  3380  00321A  2785               	addwf	(??_getMemoryID+2)& (0+255),f,b
  3381  00321C  50F4               	movf	244,w,c
  3382  00321E  2386               	addwfc	(??_getMemoryID+3)& (0+255),f,b
  3383  003220  5183               	movf	??_getMemoryID& (0+255),w,b
  3384  003222  2585               	addwf	(??_getMemoryID+2)& (0+255),w,b
  3385  003224  6ED9               	movwf	fsr2l,c
  3386  003226  5184               	movf	(??_getMemoryID+1)& (0+255),w,b
  3387  003228  2186               	addwfc	(??_getMemoryID+3)& (0+255),w,b
  3388  00322A  6EDA               	movwf	fsr2h,c
  3389  00322C  50DF               	movf	indf2,w,c
  3390  00322E  A4D8               	btfss	status,2,c
  3391  003230  EF1C  F019         	goto	u7231
  3392  003234  EF1E  F019         	goto	u7230
  3393  003238                     u7231:
  3394  003238  EF20  F019         	goto	l5859
  3395  00323C                     u7230:
  3396  00323C  EFBE  F018         	goto	l5833
  3397  003240                     l5859:
  3398                           
  3399                           ; BSR set to: 0
  3400                           ;I2C_conf/memory/memory.c: 270:         return array[memoryNumber].Tab[indice].ID;
  3401  003240  5188               	movf	getMemoryID@indice& (0+255),w,b
  3402  003242  0D06               	mullw	6
  3403  003244  CFF3 F083          	movff	prodl,??_getMemoryID
  3404  003248  CFF4 F084          	movff	prodh,??_getMemoryID+1
  3405  00324C  5182               	movf	getMemoryID@memoryNumber& (0+255),w,b
  3406  00324E  0D3D               	mullw	61
  3407  003250  0E00               	movlw	low _array
  3408  003252  6F85               	movwf	(??_getMemoryID+2)& (0+255),b
  3409  003254  0E02               	movlw	high _array
  3410  003256  6F86               	movwf	(??_getMemoryID+3)& (0+255),b
  3411  003258  0E04               	movlw	4
  3412  00325A  2785               	addwf	(??_getMemoryID+2)& (0+255),f,b
  3413  00325C  0E00               	movlw	0
  3414  00325E  2386               	addwfc	(??_getMemoryID+3)& (0+255),f,b
  3415  003260  50F3               	movf	243,w,c
  3416  003262  2785               	addwf	(??_getMemoryID+2)& (0+255),f,b
  3417  003264  50F4               	movf	244,w,c
  3418  003266  2386               	addwfc	(??_getMemoryID+3)& (0+255),f,b
  3419  003268  5183               	movf	??_getMemoryID& (0+255),w,b
  3420  00326A  2585               	addwf	(??_getMemoryID+2)& (0+255),w,b
  3421  00326C  6ED9               	movwf	fsr2l,c
  3422  00326E  5184               	movf	(??_getMemoryID+1)& (0+255),w,b
  3423  003270  2186               	addwfc	(??_getMemoryID+3)& (0+255),w,b
  3424  003272  6EDA               	movwf	fsr2h,c
  3425  003274  50DF               	movf	indf2,w,c
  3426  003276  6F87               	movwf	(??_getMemoryID+4)& (0+255),b
  3427  003278  5187               	movf	(??_getMemoryID+4)& (0+255),w,b
  3428  00327A  6F80               	movwf	?_getMemoryID& (0+255),b
  3429  00327C  6B81               	clrf	(?_getMemoryID+1)& (0+255),b
  3430  00327E                     l383:
  3431                           
  3432                           ; BSR set to: 0
  3433  00327E  0012               	return		;funcret
  3434  003280                     __end_of_getMemoryID:
  3435                           	opt callstack 0
  3436                           
  3437 ;; *************** function _I2C_TabRefresh *****************
  3438 ;; Defined at:
  3439 ;;		line 1143 in file "I2C.c"
  3440 ;; Parameters:    Size  Location     Type
  3441 ;;		None
  3442 ;; Auto vars:     Size  Location     Type
  3443 ;;  Pointer         2   57[BANK0 ] PTR PTR unsigned char 
  3444 ;;		 -> array.Tab.Pointer(2), array.Tab(60), nulPointer(2), 
  3445 ;;  i               1   59[BANK0 ] unsigned char 
  3446 ;; Return value:  Size  Location     Type
  3447 ;;                  1    wreg      void 
  3448 ;; Registers used:
  3449 ;;		wreg, fsr1l, fsr1h, fsr2l, fsr2h, status,2, status,0, prodl, prodh, cstack
  3450 ;; Tracked objects:
  3451 ;;		On entry : 0/0
  3452 ;;		On exit  : 0/0
  3453 ;;		Unchanged: 0/0
  3454 ;; Data sizes:     COMRAM   BANK0   BANK1   BANK2   BANK3   BANK4   BANK5
  3455 ;;      Params:         0       0       0       0       0       0       0
  3456 ;;      Locals:         0       3       0       0       0       0       0
  3457 ;;      Temps:          0       0       0       0       0       0       0
  3458 ;;      Totals:         0       3       0       0       0       0       0
  3459 ;;Total ram usage:        3 bytes
  3460 ;; Hardware stack levels used:    1
  3461 ;; Hardware stack levels required when called:    7
  3462 ;; This function calls:
  3463 ;;		_getFree
  3464 ;;		_getMemoryFromID
  3465 ;; This function is called by:
  3466 ;;		_I2C_Read_Buffer
  3467 ;; This function uses a non-reentrant model
  3468 ;;
  3469                           
  3470                           	psect	text12
  3471  0036EC                     __ptext12:
  3472                           	opt callstack 0
  3473  0036EC                     _I2C_TabRefresh:
  3474                           	opt callstack 22
  3475  0036EC                     
  3476                           ;I2C.c: 1145:     u8 i;;I2C.c: 1146:     if(I2CMemory.sizePoint > 0)
  3477  0036EC  0101               	movlb	1	; () banked
  3478  0036EE  510A               	movf	(_I2CMemory+10)& (0+255),w,b
  3479  0036F0  B4D8               	btfsc	status,2,c
  3480  0036F2  EF7D  F01B         	goto	u7241
  3481  0036F6  EF7F  F01B         	goto	u7240
  3482  0036FA                     u7241:
  3483  0036FA  EFB4  F01B         	goto	l322
  3484  0036FE                     u7240:
  3485  0036FE                     
  3486                           ; BSR set to: 1
  3487                           ;I2C.c: 1147:     {;I2C.c: 1151:         t_mem Pointer = getMemoryFromID(I2CMemory.Point
      +                          Tab[0], 1);
  3488  0036FE  0E01               	movlw	1
  3489  003700  0100               	movlb	0	; () banked
  3490  003702  6F80               	movwf	getMemoryFromID@memoryNumber& (0+255),b
  3491  003704  0101               	movlb	1	; () banked
  3492  003706  5100               	movf	_I2CMemory& (0+255),w,b
  3493  003708  EC40  F019         	call	_getMemoryFromID
  3494  00370C  C080  F099         	movff	?_getMemoryFromID,I2C_TabRefresh@Pointer
  3495  003710  C081  F09A         	movff	?_getMemoryFromID+1,I2C_TabRefresh@Pointer+1
  3496  003714                     
  3497                           ;I2C.c: 1152:         getFree(Pointer, 1);
  3498  003714  C099  F08B         	movff	I2C_TabRefresh@Pointer,getFree@Pointer
  3499  003718  C09A  F08C         	movff	I2C_TabRefresh@Pointer+1,getFree@Pointer+1
  3500  00371C  0E01               	movlw	1
  3501  00371E  0100               	movlb	0	; () banked
  3502  003720  6F8D               	movwf	getFree@memoryNumber& (0+255),b
  3503  003722  EC7C  F003         	call	_getFree	;wreg free
  3504  003726                     
  3505                           ;I2C.c: 1154:         for (i = 0; i < I2CMemory.sizePoint; i++)
  3506  003726  0E00               	movlw	0
  3507  003728  0100               	movlb	0	; () banked
  3508  00372A  6F9B               	movwf	I2C_TabRefresh@i& (0+255),b
  3509  00372C  EFA7  F01B         	goto	l5875
  3510  003730                     l5871:
  3511                           
  3512                           ; BSR set to: 0
  3513                           ;I2C.c: 1155:             I2CMemory.PointTab[i] = I2CMemory.PointTab[i+1];
  3514  003730  0E01               	movlw	low (_I2CMemory+1)
  3515  003732  259B               	addwf	I2C_TabRefresh@i& (0+255),w,b
  3516  003734  6ED9               	movwf	fsr2l,c
  3517  003736  6ADA               	clrf	fsr2h,c
  3518  003738  0E01               	movlw	high (_I2CMemory+1)
  3519  00373A  22DA               	addwfc	fsr2h,f,c
  3520  00373C  0E00               	movlw	low _I2CMemory
  3521  00373E  259B               	addwf	I2C_TabRefresh@i& (0+255),w,b
  3522  003740  6EE1               	movwf	fsr1l,c
  3523  003742  6AE2               	clrf	fsr1h,c
  3524  003744  0E01               	movlw	high _I2CMemory
  3525  003746  22E2               	addwfc	fsr1h,f,c
  3526  003748  CFDF FFE7          	movff	indf2,indf1
  3527  00374C                     
  3528                           ; BSR set to: 0
  3529  00374C  2B9B               	incf	I2C_TabRefresh@i& (0+255),f,b
  3530  00374E                     l5875:
  3531                           
  3532                           ; BSR set to: 0
  3533  00374E  0101               	movlb	1	; () banked
  3534  003750  510A               	movf	(_I2CMemory+10)& (0+255),w,b
  3535  003752  0100               	movlb	0	; () banked
  3536  003754  5D9B               	subwf	I2C_TabRefresh@i& (0+255),w,b
  3537  003756  A0D8               	btfss	status,0,c
  3538  003758  EFB0  F01B         	goto	u7251
  3539  00375C  EFB2  F01B         	goto	u7250
  3540  003760                     u7251:
  3541  003760  EF98  F01B         	goto	l5871
  3542  003764                     u7250:
  3543  003764                     
  3544                           ; BSR set to: 0
  3545                           ;I2C.c: 1156:         I2CMemory.sizePoint--;
  3546  003764  0101               	movlb	1	; () banked
  3547  003766  070A               	decf	(_I2CMemory+10)& (0+255),f,b
  3548  003768                     l322:
  3549                           
  3550                           ; BSR set to: 1
  3551  003768  0012               	return		;funcret
  3552  00376A                     __end_of_I2C_TabRefresh:
  3553                           	opt callstack 0
  3554                           
  3555 ;; *************** function _I2C_Init *****************
  3556 ;; Defined at:
  3557 ;;		line 588 in file "I2C.c"
  3558 ;; Parameters:    Size  Location     Type
  3559 ;;  Options         1    wreg     unsigned char 
  3560 ;; Auto vars:     Size  Location     Type
  3561 ;;  Options         1   87[BANK0 ] unsigned char 
  3562 ;;  min             4   92[BANK0 ] float 
  3563 ;;  prUsed          2   90[BANK0 ] unsigned int 
  3564 ;;  prescUsed       2   88[BANK0 ] unsigned int 
  3565 ;; Return value:  Size  Location     Type
  3566 ;;                  2   83[BANK0 ] int 
  3567 ;; Registers used:
  3568 ;;		wreg, fsr2l, fsr2h, status,2, status,0, prodl, prodh, cstack
  3569 ;; Tracked objects:
  3570 ;;		On entry : 0/0
  3571 ;;		On exit  : 0/0
  3572 ;;		Unchanged: 0/0
  3573 ;; Data sizes:     COMRAM   BANK0   BANK1   BANK2   BANK3   BANK4   BANK5
  3574 ;;      Params:         0       2       0       0       0       0       0
  3575 ;;      Locals:         0       9       0       0       0       0       0
  3576 ;;      Temps:          0       2       0       0       0       0       0
  3577 ;;      Totals:         0      13       0       0       0       0       0
  3578 ;;Total ram usage:       13 bytes
  3579 ;; Hardware stack levels used:    1
  3580 ;; Hardware stack levels required when called:    8
  3581 ;; This function calls:
  3582 ;;		_I2C_timer_prescaler
  3583 ;;		___fleq
  3584 ;;		_memory_init
  3585 ;;		_memset
  3586 ;; This function is called by:
  3587 ;;		_main
  3588 ;; This function uses a non-reentrant model
  3589 ;;
  3590                           
  3591                           	psect	text13
  3592  002ACA                     __ptext13:
  3593                           	opt callstack 0
  3594  002ACA                     _I2C_Init:
  3595                           	opt callstack 22
  3596                           
  3597                           ; BSR set to: 1
  3598                           ;incstack = 0
  3599                           ;I2C_Init@Options stored from wreg
  3600  002ACA  0100               	movlb	0	; () banked
  3601  002ACC  6FB7               	movwf	I2C_Init@Options& (0+255),b
  3602  002ACE                     
  3603                           ;I2C.c: 660:     PEIE = 1;
  3604  002ACE  8CF2               	bsf	4082,6,c	;volatile
  3605                           
  3606                           ;I2C.c: 661:     GIE = 1;
  3607  002AD0  8EF2               	bsf	4082,7,c	;volatile
  3608  002AD2                     
  3609                           ;I2C.c: 662:     nulPointer = ((void*)0);
  3610  002AD2  0E00               	movlw	0
  3611  002AD4  0101               	movlb	1	; () banked
  3612  002AD6  6FB2               	movwf	_nulPointer& (0+255),b
  3613  002AD8  0E00               	movlw	0
  3614  002ADA  6FB3               	movwf	(_nulPointer+1)& (0+255),b
  3615  002ADC                     
  3616                           ; BSR set to: 1
  3617                           ;I2C.c: 663:     memory_init();
  3618  002ADC  EC26  F01D         	call	_memory_init	;wreg free
  3619  002AE0                     
  3620                           ;I2C.c: 664:     float min = 20;
  3621  002AE0  0E00               	movlw	0
  3622  002AE2  0100               	movlb	0	; () banked
  3623  002AE4  6FBC               	movwf	I2C_Init@min& (0+255),b
  3624  002AE6  0E00               	movlw	0
  3625  002AE8  6FBD               	movwf	(I2C_Init@min+1)& (0+255),b
  3626  002AEA  0EA0               	movlw	160
  3627  002AEC  6FBE               	movwf	(I2C_Init@min+2)& (0+255),b
  3628  002AEE  0E41               	movlw	65
  3629  002AF0  6FBF               	movwf	(I2C_Init@min+3)& (0+255),b
  3630  002AF2                     
  3631                           ; BSR set to: 0
  3632                           ;I2C.c: 665:     u16 prescUsed = 0;
  3633  002AF2  0E00               	movlw	0
  3634  002AF4  6FB9               	movwf	(I2C_Init@prescUsed+1)& (0+255),b
  3635  002AF6  0E00               	movlw	0
  3636  002AF8  6FB8               	movwf	I2C_Init@prescUsed& (0+255),b
  3637  002AFA                     
  3638                           ; BSR set to: 0
  3639                           ;I2C.c: 666:     u16 prUsed = 0;
  3640  002AFA  0E00               	movlw	0
  3641  002AFC  6FBB               	movwf	(I2C_Init@prUsed+1)& (0+255),b
  3642  002AFE  0E00               	movlw	0
  3643  002B00  6FBA               	movwf	I2C_Init@prUsed& (0+255),b
  3644  002B02                     
  3645                           ; BSR set to: 0
  3646                           ;I2C.c: 667:     I2C_timer_prescaler(0.0001, &prUsed, 16U, &prescUsed, &min);
  3647  002B02  0E17               	movlw	23
  3648  002B04  6FA7               	movwf	I2C_timer_prescaler@period& (0+255),b
  3649  002B06  0EB7               	movlw	183
  3650  002B08  6FA8               	movwf	(I2C_timer_prescaler@period+1)& (0+255),b
  3651  002B0A  0ED1               	movlw	209
  3652  002B0C  6FA9               	movwf	(I2C_timer_prescaler@period+2)& (0+255),b
  3653  002B0E  0E38               	movlw	56
  3654  002B10  6FAA               	movwf	(I2C_timer_prescaler@period+3)& (0+255),b
  3655  002B12  0EBA               	movlw	low I2C_Init@prUsed
  3656  002B14  6FAB               	movwf	I2C_timer_prescaler@prUsed& (0+255),b
  3657  002B16  0E00               	movlw	high I2C_Init@prUsed
  3658  002B18  6FAC               	movwf	(I2C_timer_prescaler@prUsed+1)& (0+255),b
  3659  002B1A  0E00               	movlw	0
  3660  002B1C  6FAE               	movwf	(I2C_timer_prescaler@presc+1)& (0+255),b
  3661  002B1E  0E10               	movlw	16
  3662  002B20  6FAD               	movwf	I2C_timer_prescaler@presc& (0+255),b
  3663  002B22  0EB8               	movlw	low I2C_Init@prescUsed
  3664  002B24  6FAF               	movwf	I2C_timer_prescaler@prescUsed& (0+255),b
  3665  002B26  0E00               	movlw	high I2C_Init@prescUsed
  3666  002B28  6FB0               	movwf	(I2C_timer_prescaler@prescUsed+1)& (0+255),b
  3667  002B2A  0EBC               	movlw	low I2C_Init@min
  3668  002B2C  6FB1               	movwf	I2C_timer_prescaler@min& (0+255),b
  3669  002B2E  0E00               	movlw	high I2C_Init@min
  3670  002B30  6FB2               	movwf	(I2C_timer_prescaler@min+1)& (0+255),b
  3671  002B32  ECE7  F00C         	call	_I2C_timer_prescaler	;wreg free
  3672  002B36                     
  3673                           ;I2C.c: 668:     I2C_timer_prescaler(0.0001, &prUsed, 4U, &prescUsed, &min);
  3674  002B36  0E17               	movlw	23
  3675  002B38  0100               	movlb	0	; () banked
  3676  002B3A  6FA7               	movwf	I2C_timer_prescaler@period& (0+255),b
  3677  002B3C  0EB7               	movlw	183
  3678  002B3E  6FA8               	movwf	(I2C_timer_prescaler@period+1)& (0+255),b
  3679  002B40  0ED1               	movlw	209
  3680  002B42  6FA9               	movwf	(I2C_timer_prescaler@period+2)& (0+255),b
  3681  002B44  0E38               	movlw	56
  3682  002B46  6FAA               	movwf	(I2C_timer_prescaler@period+3)& (0+255),b
  3683  002B48  0EBA               	movlw	low I2C_Init@prUsed
  3684  002B4A  6FAB               	movwf	I2C_timer_prescaler@prUsed& (0+255),b
  3685  002B4C  0E00               	movlw	high I2C_Init@prUsed
  3686  002B4E  6FAC               	movwf	(I2C_timer_prescaler@prUsed+1)& (0+255),b
  3687  002B50  0E00               	movlw	0
  3688  002B52  6FAE               	movwf	(I2C_timer_prescaler@presc+1)& (0+255),b
  3689  002B54  0E04               	movlw	4
  3690  002B56  6FAD               	movwf	I2C_timer_prescaler@presc& (0+255),b
  3691  002B58  0EB8               	movlw	low I2C_Init@prescUsed
  3692  002B5A  6FAF               	movwf	I2C_timer_prescaler@prescUsed& (0+255),b
  3693  002B5C  0E00               	movlw	high I2C_Init@prescUsed
  3694  002B5E  6FB0               	movwf	(I2C_timer_prescaler@prescUsed+1)& (0+255),b
  3695  002B60  0EBC               	movlw	low I2C_Init@min
  3696  002B62  6FB1               	movwf	I2C_timer_prescaler@min& (0+255),b
  3697  002B64  0E00               	movlw	high I2C_Init@min
  3698  002B66  6FB2               	movwf	(I2C_timer_prescaler@min+1)& (0+255),b
  3699  002B68  ECE7  F00C         	call	_I2C_timer_prescaler	;wreg free
  3700  002B6C                     
  3701                           ;I2C.c: 669:     I2C_timer_prescaler(0.0001, &prUsed, 1U, &prescUsed, &min);
  3702  002B6C  0E17               	movlw	23
  3703  002B6E  0100               	movlb	0	; () banked
  3704  002B70  6FA7               	movwf	I2C_timer_prescaler@period& (0+255),b
  3705  002B72  0EB7               	movlw	183
  3706  002B74  6FA8               	movwf	(I2C_timer_prescaler@period+1)& (0+255),b
  3707  002B76  0ED1               	movlw	209
  3708  002B78  6FA9               	movwf	(I2C_timer_prescaler@period+2)& (0+255),b
  3709  002B7A  0E38               	movlw	56
  3710  002B7C  6FAA               	movwf	(I2C_timer_prescaler@period+3)& (0+255),b
  3711  002B7E  0EBA               	movlw	low I2C_Init@prUsed
  3712  002B80  6FAB               	movwf	I2C_timer_prescaler@prUsed& (0+255),b
  3713  002B82  0E00               	movlw	high I2C_Init@prUsed
  3714  002B84  6FAC               	movwf	(I2C_timer_prescaler@prUsed+1)& (0+255),b
  3715  002B86  0E00               	movlw	0
  3716  002B88  6FAE               	movwf	(I2C_timer_prescaler@presc+1)& (0+255),b
  3717  002B8A  0E01               	movlw	1
  3718  002B8C  6FAD               	movwf	I2C_timer_prescaler@presc& (0+255),b
  3719  002B8E  0EB8               	movlw	low I2C_Init@prescUsed
  3720  002B90  6FAF               	movwf	I2C_timer_prescaler@prescUsed& (0+255),b
  3721  002B92  0E00               	movlw	high I2C_Init@prescUsed
  3722  002B94  6FB0               	movwf	(I2C_timer_prescaler@prescUsed+1)& (0+255),b
  3723  002B96  0EBC               	movlw	low I2C_Init@min
  3724  002B98  6FB1               	movwf	I2C_timer_prescaler@min& (0+255),b
  3725  002B9A  0E00               	movlw	high I2C_Init@min
  3726  002B9C  6FB2               	movwf	(I2C_timer_prescaler@min+1)& (0+255),b
  3727  002B9E  ECE7  F00C         	call	_I2C_timer_prescaler	;wreg free
  3728  002BA2                     
  3729                           ;I2C.c: 670:     if(min==20)
  3730  002BA2  C0BC  F080         	movff	I2C_Init@min,___fleq@ff1
  3731  002BA6  C0BD  F081         	movff	I2C_Init@min+1,___fleq@ff1+1
  3732  002BAA  C0BE  F082         	movff	I2C_Init@min+2,___fleq@ff1+2
  3733  002BAE  C0BF  F083         	movff	I2C_Init@min+3,___fleq@ff1+3
  3734  002BB2  0E00               	movlw	0
  3735  002BB4  0100               	movlb	0	; () banked
  3736  002BB6  6F84               	movwf	___fleq@ff2& (0+255),b
  3737  002BB8  0E00               	movlw	0
  3738  002BBA  6F85               	movwf	(___fleq@ff2+1)& (0+255),b
  3739  002BBC  0EA0               	movlw	160
  3740  002BBE  6F86               	movwf	(___fleq@ff2+2)& (0+255),b
  3741  002BC0  0E41               	movlw	65
  3742  002BC2  6F87               	movwf	(___fleq@ff2+3)& (0+255),b
  3743  002BC4  ECD0  F01A         	call	___fleq	;wreg free
  3744  002BC8  0100               	movlb	0	; () banked
  3745  002BCA  A0D8               	btfss	status,0,c
  3746  002BCC  EFEA  F015         	goto	u7311
  3747  002BD0  EFEC  F015         	goto	u7310
  3748  002BD4                     u7311:
  3749  002BD4  EFF0  F015         	goto	l5935
  3750  002BD8                     u7310:
  3751  002BD8                     l5933:
  3752                           
  3753                           ; BSR set to: 0
  3754                           ;I2C.c: 671:         return (-1);
  3755  002BD8  69B3               	setf	?_I2C_Init& (0+255),b
  3756  002BDA  69B4               	setf	(?_I2C_Init+1)& (0+255),b
  3757  002BDC  EF74  F016         	goto	l249
  3758  002BE0                     l5935:
  3759                           
  3760                           ; BSR set to: 0
  3761                           ;I2C.c: 672:     I2CConfig.BufferNbr = 0;
  3762  002BE0  0E00               	movlw	0
  3763  002BE2  0101               	movlb	1	; () banked
  3764  002BE4  6FAE               	movwf	(_I2CConfig+163)& (0+255),b
  3765                           
  3766                           ;I2C.c: 673:     I2CConfig.RcvBufferNbr = 0;
  3767  002BE6  0E00               	movlw	0
  3768  002BE8  6FAF               	movwf	(_I2CConfig+164)& (0+255),b
  3769  002BEA                     
  3770                           ; BSR set to: 1
  3771                           ;I2C.c: 674:     memset(&I2CConfig.MsgID, 0, sizeof(I2CConfig.MsgID));
  3772  002BEA  0E98               	movlw	low (_I2CConfig+141)
  3773  002BEC  0100               	movlb	0	; () banked
  3774  002BEE  6F80               	movwf	memset@dest& (0+255),b
  3775  002BF0  0E01               	movlw	high (_I2CConfig+141)
  3776  002BF2  6F81               	movwf	(memset@dest+1)& (0+255),b
  3777  002BF4  0E00               	movlw	0
  3778  002BF6  6F83               	movwf	(memset@c+1)& (0+255),b
  3779  002BF8  0E00               	movlw	0
  3780  002BFA  6F82               	movwf	memset@c& (0+255),b
  3781  002BFC  0E00               	movlw	0
  3782  002BFE  6F85               	movwf	(memset@n+1)& (0+255),b
  3783  002C00  0E0B               	movlw	11
  3784  002C02  6F84               	movwf	memset@n& (0+255),b
  3785  002C04  EC51  F017         	call	_memset	;wreg free
  3786  002C08                     
  3787                           ;I2C.c: 675:     myMsgID = 1;
  3788  002C08  0E01               	movlw	1
  3789  002C0A  0100               	movlb	0	; () banked
  3790  002C0C  6FDF               	movwf	_myMsgID& (0+255),b
  3791  002C0E                     
  3792                           ; BSR set to: 0
  3793                           ;I2C.c: 676:     I2CConfig.State = BUS_READY;
  3794  002C0E  0E00               	movlw	0
  3795  002C10  0101               	movlb	1	; () banked
  3796  002C12  6F0B               	movwf	_I2CConfig& (0+255),b
  3797  002C14                     
  3798                           ; BSR set to: 1
  3799                           ;I2C.c: 677:     T2CONbits.T2OUTPS = 0b1001;
  3800  002C14  50BA               	movf	186,w,c	;volatile
  3801  002C16  0B87               	andlw	-121
  3802  002C18  0948               	iorlw	72
  3803  002C1A  6EBA               	movwf	186,c	;volatile
  3804  002C1C                     
  3805                           ; BSR set to: 1
  3806                           ;I2C.c: 678:     PR2 = (u8) prUsed;
  3807  002C1C  C0BA  FFBB         	movff	I2C_Init@prUsed,4027	;volatile
  3808  002C20                     
  3809                           ; BSR set to: 1
  3810                           ;I2C.c: 679:     TMR2 = 0;
  3811  002C20  0E00               	movlw	0
  3812  002C22  6EBC               	movwf	188,c	;volatile
  3813  002C24                     
  3814                           ; BSR set to: 1
  3815                           ;I2C.c: 680:     TMR2IE = 1;
  3816  002C24  829D               	bsf	3997,1,c	;volatile
  3817  002C26                     
  3818                           ; BSR set to: 1
  3819                           ;I2C.c: 681:     TMR2IF = 0;
  3820  002C26  929E               	bcf	3998,1,c	;volatile
  3821                           
  3822                           ;I2C.c: 682:     switch(prescUsed)
  3823  002C28  EF26  F016         	goto	l5963
  3824  002C2C                     l5953:
  3825                           
  3826                           ; BSR set to: 0
  3827                           ;I2C.c: 685:             T2CONbits.T2CKPS = 0b10;
  3828  002C2C  50BA               	movf	186,w,c	;volatile
  3829  002C2E  0BFC               	andlw	-4
  3830  002C30  0902               	iorlw	2
  3831  002C32  6EBA               	movwf	186,c	;volatile
  3832                           
  3833                           ;I2C.c: 686:             break;
  3834  002C34  EF41  F016         	goto	l5965
  3835  002C38                     l5955:
  3836                           
  3837                           ; BSR set to: 0
  3838                           ;I2C.c: 688:             T2CONbits.T2CKPS = 0b01;
  3839  002C38  50BA               	movf	186,w,c	;volatile
  3840  002C3A  0BFC               	andlw	-4
  3841  002C3C  0901               	iorlw	1
  3842  002C3E  6EBA               	movwf	186,c	;volatile
  3843                           
  3844                           ;I2C.c: 689:             break;
  3845  002C40  EF41  F016         	goto	l5965
  3846  002C44                     l5957:
  3847                           
  3848                           ; BSR set to: 0
  3849                           ;I2C.c: 691:             T2CONbits.T2CKPS = 0b00;
  3850  002C44  0EFC               	movlw	-4
  3851  002C46  16BA               	andwf	186,f,c	;volatile
  3852                           
  3853                           ;I2C.c: 692:             break;
  3854  002C48  EF41  F016         	goto	l5965
  3855  002C4C                     l5963:
  3856                           
  3857                           ; BSR set to: 1
  3858  002C4C  C0B8  F0B5         	movff	I2C_Init@prescUsed,??_I2C_Init
  3859  002C50  C0B9  F0B6         	movff	I2C_Init@prescUsed+1,??_I2C_Init+1
  3860                           
  3861                           ; Switch on 2 bytes has been partitioned into a top level switch of size 1, and 1 sub-sw
      +                          itches
  3862                           ; Switch size 1, requested type "simple"
  3863                           ; Number of cases is 1, Range of values is 0 to 0
  3864                           ; switch strategies available:
  3865                           ; Name         Instructions Cycles
  3866                           ; simple_byte            4     3 (average)
  3867                           ;	Chosen strategy is simple_byte
  3868  002C54  0100               	movlb	0	; () banked
  3869  002C56  51B6               	movf	(??_I2C_Init+1)& (0+255),w,b
  3870  002C58  0A00               	xorlw	0	; case 0
  3871  002C5A  B4D8               	btfsc	status,2,c
  3872  002C5C  EF32  F016         	goto	l6397
  3873  002C60  EFEC  F015         	goto	l5933
  3874  002C64                     l6397:
  3875                           
  3876                           ; BSR set to: 0
  3877                           ; Switch size 1, requested type "simple"
  3878                           ; Number of cases is 3, Range of values is 1 to 16
  3879                           ; switch strategies available:
  3880                           ; Name         Instructions Cycles
  3881                           ; simple_byte           10     6 (average)
  3882                           ;	Chosen strategy is simple_byte
  3883  002C64  51B5               	movf	??_I2C_Init& (0+255),w,b
  3884  002C66  0A01               	xorlw	1	; case 1
  3885  002C68  B4D8               	btfsc	status,2,c
  3886  002C6A  EF22  F016         	goto	l5957
  3887  002C6E  0A05               	xorlw	5	; case 4
  3888  002C70  B4D8               	btfsc	status,2,c
  3889  002C72  EF1C  F016         	goto	l5955
  3890  002C76  0A14               	xorlw	20	; case 16
  3891  002C78  B4D8               	btfsc	status,2,c
  3892  002C7A  EF16  F016         	goto	l5953
  3893  002C7E  EFEC  F015         	goto	l5933
  3894  002C82                     l5965:
  3895                           
  3896                           ; BSR set to: 0
  3897                           ;I2C.c: 697:     timer = 0;
  3898  002C82  0E00               	movlw	0
  3899  002C84  6FD8               	movwf	(_timer+1)& (0+255),b
  3900  002C86  0E00               	movlw	0
  3901  002C88  6FD7               	movwf	_timer& (0+255),b
  3902  002C8A                     
  3903                           ; BSR set to: 0
  3904                           ;I2C.c: 698:     T2CONbits.TMR2ON = 1;
  3905  002C8A  84BA               	bsf	186,2,c	;volatile
  3906  002C8C                     
  3907                           ; BSR set to: 0
  3908                           ;I2C.c: 699:     if((Options & (0x04)) != 0)
  3909  002C8C  A5B7               	btfss	I2C_Init@Options& (0+255),2,b
  3910  002C8E  EF4B  F016         	goto	u7321
  3911  002C92  EF4D  F016         	goto	u7320
  3912  002C96                     u7321:
  3913  002C96  EF50  F016         	goto	l256
  3914  002C9A                     u7320:
  3915  002C9A                     
  3916                           ; BSR set to: 0
  3917                           ;I2C.c: 700:         SSP1IE = 1;
  3918  002C9A  869D               	bsf	3997,3,c	;volatile
  3919  002C9C  EF51  F016         	goto	l257
  3920  002CA0                     l256:
  3921                           
  3922                           ; BSR set to: 0
  3923                           ;I2C.c: 702:         SSP1IE = 0;
  3924  002CA0  969D               	bcf	3997,3,c	;volatile
  3925  002CA2                     l257:
  3926                           
  3927                           ; BSR set to: 0
  3928                           ;I2C.c: 703:     if((Options & (0x02)) != 0)
  3929  002CA2  A3B7               	btfss	I2C_Init@Options& (0+255),1,b
  3930  002CA4  EF56  F016         	goto	u7331
  3931  002CA8  EF58  F016         	goto	u7330
  3932  002CAC                     u7331:
  3933  002CAC  EFEC  F015         	goto	l5933
  3934  002CB0                     u7330:
  3935  002CB0                     
  3936                           ; BSR set to: 0
  3937                           ;I2C.c: 704:     {;I2C.c: 705:         if((Options & (0x01)) != 0)
  3938  002CB0  A1B7               	btfss	I2C_Init@Options& (0+255),0,b
  3939  002CB2  EF5D  F016         	goto	u7341
  3940  002CB6  EF5F  F016         	goto	u7340
  3941  002CBA                     u7341:
  3942  002CBA  EF61  F016         	goto	l259
  3943  002CBE                     u7340:
  3944  002CBE  EFEC  F015         	goto	l5933
  3945  002CC2                     l259:
  3946                           
  3947                           ; BSR set to: 0
  3948                           ;I2C.c: 707:         SSP1CON1bits.SSPEN = 0;
  3949  002CC2  9AC6               	bcf	198,5,c	;volatile
  3950  002CC4                     
  3951                           ; BSR set to: 0
  3952                           ;I2C.c: 708:         SSP1ADD = 65;
  3953  002CC4  0E41               	movlw	65
  3954  002CC6  6EC8               	movwf	200,c	;volatile
  3955  002CC8                     
  3956                           ; BSR set to: 0
  3957                           ;I2C.c: 709:         SSP1STATbits.SMP = 0;
  3958  002CC8  9EC7               	bcf	199,7,c	;volatile
  3959                           
  3960                           ;I2C.c: 710:         SSP1CON1bits.SSPM = 0b1000;
  3961  002CCA  50C6               	movf	198,w,c	;volatile
  3962  002CCC  0BF0               	andlw	-16
  3963  002CCE  0908               	iorlw	8
  3964  002CD0  6EC6               	movwf	198,c	;volatile
  3965  002CD2                     
  3966                           ; BSR set to: 0
  3967                           ;I2C.c: 711:         SSP1CON1bits.SSPEN = 1;
  3968  002CD2  8AC6               	bsf	198,5,c	;volatile
  3969                           
  3970                           ;I2C.c: 712:         I2CConfig.Status = 1;
  3971  002CD4  0E01               	movlw	1
  3972  002CD6  0101               	movlb	1	; () banked
  3973  002CD8  6FB0               	movwf	(_I2CConfig+165)& (0+255),b
  3974  002CDA                     
  3975                           ; BSR set to: 1
  3976                           ;I2C.c: 713:         I2CConfig.Options = Options;
  3977  002CDA  C0B7  F1B1         	movff	I2C_Init@Options,_I2CConfig+166
  3978                           
  3979                           ;I2C.c: 714:         return 0;
  3980  002CDE  0E00               	movlw	0
  3981  002CE0  0100               	movlb	0	; () banked
  3982  002CE2  6FB4               	movwf	(?_I2C_Init+1)& (0+255),b
  3983  002CE4  0E00               	movlw	0
  3984  002CE6  6FB3               	movwf	?_I2C_Init& (0+255),b
  3985  002CE8                     l249:
  3986                           
  3987                           ; BSR set to: 0
  3988  002CE8  0012               	return		;funcret
  3989  002CEA                     __end_of_I2C_Init:
  3990                           	opt callstack 0
  3991                           
  3992 ;; *************** function _memset *****************
  3993 ;; Defined at:
  3994 ;;		line 4 in file "C:\Program Files (x86)\Microchip\xc8\v2.10\pic\sources\c99\common\memset.c"
  3995 ;; Parameters:    Size  Location     Type
  3996 ;;  dest            2   32[BANK0 ] PTR void 
  3997 ;;		 -> I2CConfig(167), 
  3998 ;;  c               2   34[BANK0 ] int 
  3999 ;;  n               2   36[BANK0 ] unsigned int 
  4000 ;; Auto vars:     Size  Location     Type
  4001 ;;  s               2   42[BANK0 ] PTR unsigned char 
  4002 ;;		 -> I2CConfig(167), 
  4003 ;;  k               2   40[BANK0 ] unsigned int 
  4004 ;; Return value:  Size  Location     Type
  4005 ;;                  2   32[BANK0 ] PTR void 
  4006 ;; Registers used:
  4007 ;;		wreg, fsr2l, fsr2h, status,2, status,0
  4008 ;; Tracked objects:
  4009 ;;		On entry : 0/0
  4010 ;;		On exit  : 0/0
  4011 ;;		Unchanged: 0/0
  4012 ;; Data sizes:     COMRAM   BANK0   BANK1   BANK2   BANK3   BANK4   BANK5
  4013 ;;      Params:         0       6       0       0       0       0       0
  4014 ;;      Locals:         0       4       0       0       0       0       0
  4015 ;;      Temps:          0       2       0       0       0       0       0
  4016 ;;      Totals:         0      12       0       0       0       0       0
  4017 ;;Total ram usage:       12 bytes
  4018 ;; Hardware stack levels used:    1
  4019 ;; Hardware stack levels required when called:    5
  4020 ;; This function calls:
  4021 ;;		Nothing
  4022 ;; This function is called by:
  4023 ;;		_I2C_Init
  4024 ;; This function uses a non-reentrant model
  4025 ;;
  4026                           
  4027                           	psect	text14
  4028  002EA2                     __ptext14:
  4029                           	opt callstack 0
  4030  002EA2                     _memset:
  4031                           	opt callstack 24
  4032  002EA2  C080  F08A         	movff	memset@dest,memset@s
  4033  002EA6  C081  F08B         	movff	memset@dest+1,memset@s+1
  4034  002EAA  0100               	movlb	0	; () banked
  4035  002EAC  5184               	movf	memset@n& (0+255),w,b
  4036  002EAE  1185               	iorwf	(memset@n+1)& (0+255),w,b
  4037  002EB0  A4D8               	btfss	status,2,c
  4038  002EB2  EF5D  F017         	goto	u7031
  4039  002EB6  EF5F  F017         	goto	u7030
  4040  002EBA                     u7031:
  4041  002EBA  EF61  F017         	goto	l5749
  4042  002EBE                     u7030:
  4043  002EBE  EF0C  F018         	goto	l1155
  4044  002EC2                     l5749:
  4045                           
  4046                           ; BSR set to: 0
  4047  002EC2  C08A  FFD9         	movff	memset@s,fsr2l
  4048  002EC6  C08B  FFDA         	movff	memset@s+1,fsr2h
  4049  002ECA  C082  FFDF         	movff	memset@c,indf2
  4050  002ECE                     
  4051                           ; BSR set to: 0
  4052  002ECE  5184               	movf	memset@n& (0+255),w,b
  4053  002ED0  258A               	addwf	memset@s& (0+255),w,b
  4054  002ED2  6F86               	movwf	??_memset& (0+255),b
  4055  002ED4  5185               	movf	(memset@n+1)& (0+255),w,b
  4056  002ED6  218B               	addwfc	(memset@s+1)& (0+255),w,b
  4057  002ED8  6F87               	movwf	(??_memset+1)& (0+255),b
  4058  002EDA  0EFF               	movlw	255
  4059  002EDC  2586               	addwf	??_memset& (0+255),w,b
  4060  002EDE  6ED9               	movwf	fsr2l,c
  4061  002EE0  0EFF               	movlw	255
  4062  002EE2  2187               	addwfc	(??_memset+1)& (0+255),w,b
  4063  002EE4  6EDA               	movwf	fsr2h,c
  4064  002EE6  C082  FFDF         	movff	memset@c,indf2
  4065  002EEA  5185               	movf	(memset@n+1)& (0+255),w,b
  4066  002EEC  E107               	bnz	u7041
  4067  002EEE  0E03               	movlw	3
  4068  002EF0  5D84               	subwf	memset@n& (0+255),w,b
  4069  002EF2  B0D8               	btfsc	status,0,c
  4070  002EF4  EF7E  F017         	goto	u7041
  4071  002EF8  EF80  F017         	goto	u7040
  4072  002EFC                     u7041:
  4073  002EFC  EF82  F017         	goto	l5755
  4074  002F00                     u7040:
  4075  002F00  EF0C  F018         	goto	l1155
  4076  002F04                     l5755:
  4077                           
  4078                           ; BSR set to: 0
  4079  002F04  EE20 F001          	lfsr	2,1
  4080  002F08  518A               	movf	memset@s& (0+255),w,b
  4081  002F0A  26D9               	addwf	fsr2l,f,c
  4082  002F0C  518B               	movf	(memset@s+1)& (0+255),w,b
  4083  002F0E  22DA               	addwfc	fsr2h,f,c
  4084  002F10  C082  FFDF         	movff	memset@c,indf2
  4085  002F14  EE20 F002          	lfsr	2,2
  4086  002F18  518A               	movf	memset@s& (0+255),w,b
  4087  002F1A  26D9               	addwf	fsr2l,f,c
  4088  002F1C  518B               	movf	(memset@s+1)& (0+255),w,b
  4089  002F1E  22DA               	addwfc	fsr2h,f,c
  4090  002F20  C082  FFDF         	movff	memset@c,indf2
  4091  002F24  5184               	movf	memset@n& (0+255),w,b
  4092  002F26  258A               	addwf	memset@s& (0+255),w,b
  4093  002F28  6F86               	movwf	??_memset& (0+255),b
  4094  002F2A  5185               	movf	(memset@n+1)& (0+255),w,b
  4095  002F2C  218B               	addwfc	(memset@s+1)& (0+255),w,b
  4096  002F2E  6F87               	movwf	(??_memset+1)& (0+255),b
  4097  002F30  0EFE               	movlw	254
  4098  002F32  2586               	addwf	??_memset& (0+255),w,b
  4099  002F34  6ED9               	movwf	fsr2l,c
  4100  002F36  0EFF               	movlw	255
  4101  002F38  2187               	addwfc	(??_memset+1)& (0+255),w,b
  4102  002F3A  6EDA               	movwf	fsr2h,c
  4103  002F3C  C082  FFDF         	movff	memset@c,indf2
  4104  002F40  5184               	movf	memset@n& (0+255),w,b
  4105  002F42  258A               	addwf	memset@s& (0+255),w,b
  4106  002F44  6F86               	movwf	??_memset& (0+255),b
  4107  002F46  5185               	movf	(memset@n+1)& (0+255),w,b
  4108  002F48  218B               	addwfc	(memset@s+1)& (0+255),w,b
  4109  002F4A  6F87               	movwf	(??_memset+1)& (0+255),b
  4110  002F4C  0EFD               	movlw	253
  4111  002F4E  2586               	addwf	??_memset& (0+255),w,b
  4112  002F50  6ED9               	movwf	fsr2l,c
  4113  002F52  0EFF               	movlw	255
  4114  002F54  2187               	addwfc	(??_memset+1)& (0+255),w,b
  4115  002F56  6EDA               	movwf	fsr2h,c
  4116  002F58  C082  FFDF         	movff	memset@c,indf2
  4117  002F5C                     
  4118                           ; BSR set to: 0
  4119  002F5C  5185               	movf	(memset@n+1)& (0+255),w,b
  4120  002F5E  E107               	bnz	u7051
  4121  002F60  0E07               	movlw	7
  4122  002F62  5D84               	subwf	memset@n& (0+255),w,b
  4123  002F64  B0D8               	btfsc	status,0,c
  4124  002F66  EFB7  F017         	goto	u7051
  4125  002F6A  EFB9  F017         	goto	u7050
  4126  002F6E                     u7051:
  4127  002F6E  EFBB  F017         	goto	l5761
  4128  002F72                     u7050:
  4129  002F72  EF0C  F018         	goto	l1155
  4130  002F76                     l5761:
  4131                           
  4132                           ; BSR set to: 0
  4133  002F76  EE20 F003          	lfsr	2,3
  4134  002F7A  518A               	movf	memset@s& (0+255),w,b
  4135  002F7C  26D9               	addwf	fsr2l,f,c
  4136  002F7E  518B               	movf	(memset@s+1)& (0+255),w,b
  4137  002F80  22DA               	addwfc	fsr2h,f,c
  4138  002F82  C082  FFDF         	movff	memset@c,indf2
  4139  002F86  5184               	movf	memset@n& (0+255),w,b
  4140  002F88  258A               	addwf	memset@s& (0+255),w,b
  4141  002F8A  6F86               	movwf	??_memset& (0+255),b
  4142  002F8C  5185               	movf	(memset@n+1)& (0+255),w,b
  4143  002F8E  218B               	addwfc	(memset@s+1)& (0+255),w,b
  4144  002F90  6F87               	movwf	(??_memset+1)& (0+255),b
  4145  002F92  0EFC               	movlw	252
  4146  002F94  2586               	addwf	??_memset& (0+255),w,b
  4147  002F96  6ED9               	movwf	fsr2l,c
  4148  002F98  0EFF               	movlw	255
  4149  002F9A  2187               	addwfc	(??_memset+1)& (0+255),w,b
  4150  002F9C  6EDA               	movwf	fsr2h,c
  4151  002F9E  C082  FFDF         	movff	memset@c,indf2
  4152  002FA2                     
  4153                           ; BSR set to: 0
  4154  002FA2  5185               	movf	(memset@n+1)& (0+255),w,b
  4155  002FA4  E107               	bnz	u7061
  4156  002FA6  0E09               	movlw	9
  4157  002FA8  5D84               	subwf	memset@n& (0+255),w,b
  4158  002FAA  B0D8               	btfsc	status,0,c
  4159  002FAC  EFDA  F017         	goto	u7061
  4160  002FB0  EFDC  F017         	goto	u7060
  4161  002FB4                     u7061:
  4162  002FB4  EFDE  F017         	goto	l5767
  4163  002FB8                     u7060:
  4164  002FB8  EF0C  F018         	goto	l1155
  4165  002FBC                     l5767:
  4166                           
  4167                           ; BSR set to: 0
  4168  002FBC  C08A  F086         	movff	memset@s,??_memset
  4169  002FC0  C08B  F087         	movff	memset@s+1,??_memset+1
  4170  002FC4  1F86               	comf	??_memset& (0+255),f,b
  4171  002FC6  1F87               	comf	(??_memset+1)& (0+255),f,b
  4172  002FC8  4B86               	infsnz	??_memset& (0+255),f,b
  4173  002FCA  2B87               	incf	(??_memset+1)& (0+255),f,b
  4174  002FCC  0E03               	movlw	3
  4175  002FCE  1586               	andwf	??_memset& (0+255),w,b
  4176  002FD0  6F88               	movwf	memset@k& (0+255),b
  4177  002FD2  6B89               	clrf	(memset@k+1)& (0+255),b
  4178  002FD4  5188               	movf	memset@k& (0+255),w,b
  4179  002FD6  278A               	addwf	memset@s& (0+255),f,b
  4180  002FD8  5189               	movf	(memset@k+1)& (0+255),w,b
  4181  002FDA  238B               	addwfc	(memset@s+1)& (0+255),f,b
  4182  002FDC  5188               	movf	memset@k& (0+255),w,b
  4183  002FDE  5F84               	subwf	memset@n& (0+255),f,b
  4184  002FE0  5189               	movf	(memset@k+1)& (0+255),w,b
  4185  002FE2  5B85               	subwfb	(memset@n+1)& (0+255),f,b
  4186  002FE4  0EFC               	movlw	252
  4187  002FE6  1784               	andwf	memset@n& (0+255),f,b
  4188  002FE8  0EFF               	movlw	255
  4189  002FEA  1785               	andwf	(memset@n+1)& (0+255),f,b
  4190  002FEC  EF03  F018         	goto	l5775
  4191  002FF0                     l5769:
  4192                           
  4193                           ; BSR set to: 0
  4194  002FF0  C08A  FFD9         	movff	memset@s,fsr2l
  4195  002FF4  C08B  FFDA         	movff	memset@s+1,fsr2h
  4196  002FF8  C082  FFDF         	movff	memset@c,indf2
  4197  002FFC                     
  4198                           ; BSR set to: 0
  4199  002FFC  0784               	decf	memset@n& (0+255),f,b
  4200  002FFE  A0D8               	btfss	status,0,c
  4201  003000  0785               	decf	(memset@n+1)& (0+255),f,b
  4202  003002                     
  4203                           ; BSR set to: 0
  4204  003002  4B8A               	infsnz	memset@s& (0+255),f,b
  4205  003004  2B8B               	incf	(memset@s+1)& (0+255),f,b
  4206  003006                     l5775:
  4207                           
  4208                           ; BSR set to: 0
  4209  003006  5184               	movf	memset@n& (0+255),w,b
  4210  003008  1185               	iorwf	(memset@n+1)& (0+255),w,b
  4211  00300A  A4D8               	btfss	status,2,c
  4212  00300C  EF0A  F018         	goto	u7071
  4213  003010  EF0C  F018         	goto	u7070
  4214  003014                     u7071:
  4215  003014  EFF8  F017         	goto	l5769
  4216  003018                     u7070:
  4217  003018                     l1155:
  4218                           
  4219                           ; BSR set to: 0
  4220  003018  0012               	return		;funcret
  4221  00301A                     __end_of_memset:
  4222                           	opt callstack 0
  4223                           
  4224 ;; *************** function _memory_init *****************
  4225 ;; Defined at:
  4226 ;;		line 47 in file "I2C_conf/memory/memory.c"
  4227 ;; Parameters:    Size  Location     Type
  4228 ;;		None
  4229 ;; Auto vars:     Size  Location     Type
  4230 ;;		None
  4231 ;; Return value:  Size  Location     Type
  4232 ;;                  1    wreg      void 
  4233 ;; Registers used:
  4234 ;;		wreg, fsr2l, fsr2h, status,2, status,0, prodl, prodh, cstack
  4235 ;; Tracked objects:
  4236 ;;		On entry : 0/0
  4237 ;;		On exit  : 0/0
  4238 ;;		Unchanged: 0/0
  4239 ;; Data sizes:     COMRAM   BANK0   BANK1   BANK2   BANK3   BANK4   BANK5
  4240 ;;      Params:         0       0       0       0       0       0       0
  4241 ;;      Locals:         0       0       0       0       0       0       0
  4242 ;;      Temps:          0       0       0       0       0       0       0
  4243 ;;      Totals:         0       0       0       0       0       0       0
  4244 ;;Total ram usage:        0 bytes
  4245 ;; Hardware stack levels used:    1
  4246 ;; Hardware stack levels required when called:    6
  4247 ;; This function calls:
  4248 ;;		_getFreeFull
  4249 ;; This function is called by:
  4250 ;;		_I2C_Init
  4251 ;; This function uses a non-reentrant model
  4252 ;;
  4253                           
  4254                           	psect	text15
  4255  003A4C                     __ptext15:
  4256                           	opt callstack 0
  4257  003A4C                     _memory_init:
  4258                           	opt callstack 23
  4259  003A4C                     
  4260                           ;I2C_conf/memory/memory.c: 49:     nulPointer = ((void*)0);
  4261  003A4C  0E00               	movlw	0
  4262  003A4E  0101               	movlb	1	; () banked
  4263  003A50  6FB2               	movwf	_nulPointer& (0+255),b
  4264  003A52  0E00               	movlw	0
  4265  003A54  6FB3               	movwf	(_nulPointer+1)& (0+255),b
  4266  003A56                     
  4267                           ; BSR set to: 1
  4268                           ;I2C_conf/memory/memory.c: 50:     getFreeFull(0);
  4269  003A56  0E00               	movlw	0
  4270  003A58  ECB5  F01B         	call	_getFreeFull
  4271  003A5C                     
  4272                           ;I2C_conf/memory/memory.c: 51:     getFreeFull(1);
  4273  003A5C  0E01               	movlw	1
  4274  003A5E  ECB5  F01B         	call	_getFreeFull
  4275  003A62  0012               	return		;funcret
  4276  003A64                     __end_of_memory_init:
  4277                           	opt callstack 0
  4278                           
  4279 ;; *************** function _getFreeFull *****************
  4280 ;; Defined at:
  4281 ;;		line 288 in file "I2C_conf/memory/memory.c"
  4282 ;; Parameters:    Size  Location     Type
  4283 ;;  memoryNumber    1    wreg     unsigned char 
  4284 ;; Auto vars:     Size  Location     Type
  4285 ;;  memoryNumber    1   36[BANK0 ] unsigned char 
  4286 ;;  i               1   37[BANK0 ] unsigned char 
  4287 ;; Return value:  Size  Location     Type
  4288 ;;                  1    wreg      void 
  4289 ;; Registers used:
  4290 ;;		wreg, fsr2l, fsr2h, status,2, status,0, prodl, prodh
  4291 ;; Tracked objects:
  4292 ;;		On entry : 0/0
  4293 ;;		On exit  : 0/0
  4294 ;;		Unchanged: 0/0
  4295 ;; Data sizes:     COMRAM   BANK0   BANK1   BANK2   BANK3   BANK4   BANK5
  4296 ;;      Params:         0       0       0       0       0       0       0
  4297 ;;      Locals:         0       2       0       0       0       0       0
  4298 ;;      Temps:          0       4       0       0       0       0       0
  4299 ;;      Totals:         0       6       0       0       0       0       0
  4300 ;;Total ram usage:        6 bytes
  4301 ;; Hardware stack levels used:    1
  4302 ;; Hardware stack levels required when called:    5
  4303 ;; This function calls:
  4304 ;;		Nothing
  4305 ;; This function is called by:
  4306 ;;		_memory_init
  4307 ;; This function uses a non-reentrant model
  4308 ;;
  4309                           
  4310                           	psect	text16
  4311  00376A                     __ptext16:
  4312                           	opt callstack 0
  4313  00376A                     _getFreeFull:
  4314                           	opt callstack 23
  4315                           
  4316                           ;incstack = 0
  4317                           ;getFreeFull@memoryNumber stored from wreg
  4318  00376A  0100               	movlb	0	; () banked
  4319  00376C  6F84               	movwf	getFreeFull@memoryNumber& (0+255),b
  4320  00376E                     
  4321                           ;I2C_conf/memory/memory.c: 288: void getFreeFull(u8 memoryNumber);I2C_conf/memory/memory
      +                          .c: 289: {;I2C_conf/memory/memory.c: 290:     u8 i;;I2C_conf/memory/memory.c: 291:     m
      +                          emory[memoryNumber].use = 0;
  4322  00376E  0100               	movlb	0	; () banked
  4323  003770  5184               	movf	getFreeFull@memoryNumber& (0+255),w,b
  4324  003772  0D41               	mullw	65
  4325  003774  0EBA               	movlw	low (_memory+64)
  4326  003776  24F3               	addwf	243,w,c
  4327  003778  6ED9               	movwf	fsr2l,c
  4328  00377A  0E02               	movlw	high (_memory+64)
  4329  00377C  20F4               	addwfc	prodh,w,c
  4330  00377E  6EDA               	movwf	fsr2h,c
  4331  003780  0E00               	movlw	0
  4332  003782  6EDF               	movwf	indf2,c
  4333                           
  4334                           ;I2C_conf/memory/memory.c: 292:     array[memoryNumber].indice = 0;
  4335  003784  5184               	movf	getFreeFull@memoryNumber& (0+255),w,b
  4336  003786  0D3D               	mullw	61
  4337  003788  0E3C               	movlw	low (_array+60)
  4338  00378A  24F3               	addwf	243,w,c
  4339  00378C  6ED9               	movwf	fsr2l,c
  4340  00378E  0E02               	movlw	high (_array+60)
  4341  003790  20F4               	addwfc	prodh,w,c
  4342  003792  6EDA               	movwf	fsr2h,c
  4343  003794  0E00               	movlw	0
  4344  003796  6EDF               	movwf	indf2,c
  4345  003798                     
  4346                           ; BSR set to: 0
  4347                           ;I2C_conf/memory/memory.c: 293:     for(i = 0; i < 10 ; i++)
  4348  003798  0E00               	movlw	0
  4349  00379A  6F85               	movwf	getFreeFull@i& (0+255),b
  4350  00379C                     l5009:
  4351                           
  4352                           ; BSR set to: 0
  4353                           ;I2C_conf/memory/memory.c: 294:         array[memoryNumber].Tab[i].State = 0;
  4354  00379C  5185               	movf	getFreeFull@i& (0+255),w,b
  4355  00379E  0D06               	mullw	6
  4356  0037A0  CFF3 F080          	movff	prodl,??_getFreeFull
  4357  0037A4  CFF4 F081          	movff	prodh,??_getFreeFull+1
  4358  0037A8  5184               	movf	getFreeFull@memoryNumber& (0+255),w,b
  4359  0037AA  0D3D               	mullw	61
  4360  0037AC  0E00               	movlw	low _array
  4361  0037AE  6F82               	movwf	(??_getFreeFull+2)& (0+255),b
  4362  0037B0  0E02               	movlw	high _array
  4363  0037B2  6F83               	movwf	(??_getFreeFull+3)& (0+255),b
  4364  0037B4  0E03               	movlw	3
  4365  0037B6  2782               	addwf	(??_getFreeFull+2)& (0+255),f,b
  4366  0037B8  0E00               	movlw	0
  4367  0037BA  2383               	addwfc	(??_getFreeFull+3)& (0+255),f,b
  4368  0037BC  50F3               	movf	243,w,c
  4369  0037BE  2782               	addwf	(??_getFreeFull+2)& (0+255),f,b
  4370  0037C0  50F4               	movf	244,w,c
  4371  0037C2  2383               	addwfc	(??_getFreeFull+3)& (0+255),f,b
  4372  0037C4  5180               	movf	??_getFreeFull& (0+255),w,b
  4373  0037C6  2582               	addwf	(??_getFreeFull+2)& (0+255),w,b
  4374  0037C8  6ED9               	movwf	fsr2l,c
  4375  0037CA  5181               	movf	(??_getFreeFull+1)& (0+255),w,b
  4376  0037CC  2183               	addwfc	(??_getFreeFull+3)& (0+255),w,b
  4377  0037CE  6EDA               	movwf	fsr2h,c
  4378  0037D0  0E00               	movlw	0
  4379  0037D2  6EDF               	movwf	indf2,c
  4380  0037D4                     
  4381                           ; BSR set to: 0
  4382  0037D4  2B85               	incf	getFreeFull@i& (0+255),f,b
  4383  0037D6                     
  4384                           ; BSR set to: 0
  4385  0037D6  0E09               	movlw	9
  4386  0037D8  6585               	cpfsgt	getFreeFull@i& (0+255),b
  4387  0037DA  EFF1  F01B         	goto	u5801
  4388  0037DE  EFF3  F01B         	goto	u5800
  4389  0037E2                     u5801:
  4390  0037E2  EFCE  F01B         	goto	l5009
  4391  0037E6                     u5800:
  4392  0037E6                     
  4393                           ; BSR set to: 0
  4394  0037E6  0012               	return		;funcret
  4395  0037E8                     __end_of_getFreeFull:
  4396                           	opt callstack 0
  4397                           
  4398 ;; *************** function ___fleq *****************
  4399 ;; Defined at:
  4400 ;;		line 4 in file "C:\Program Files (x86)\Microchip\xc8\v2.10\pic\sources\c99\common\fleq.c"
  4401 ;; Parameters:    Size  Location     Type
  4402 ;;  ff1             4   32[BANK0 ] void 
  4403 ;;  ff2             4   36[BANK0 ] void 
  4404 ;; Auto vars:     Size  Location     Type
  4405 ;;		None
  4406 ;; Return value:  Size  Location     Type
  4407 ;;		None               void
  4408 ;; Registers used:
  4409 ;;		wreg, status,2, status,0
  4410 ;; Tracked objects:
  4411 ;;		On entry : 0/0
  4412 ;;		On exit  : 0/0
  4413 ;;		Unchanged: 0/0
  4414 ;; Data sizes:     COMRAM   BANK0   BANK1   BANK2   BANK3   BANK4   BANK5
  4415 ;;      Params:         0       8       0       0       0       0       0
  4416 ;;      Locals:         0       0       0       0       0       0       0
  4417 ;;      Temps:          0       4       0       0       0       0       0
  4418 ;;      Totals:         0      12       0       0       0       0       0
  4419 ;;Total ram usage:       12 bytes
  4420 ;; Hardware stack levels used:    1
  4421 ;; Hardware stack levels required when called:    5
  4422 ;; This function calls:
  4423 ;;		Nothing
  4424 ;; This function is called by:
  4425 ;;		_I2C_Init
  4426 ;; This function uses a non-reentrant model
  4427 ;;
  4428                           
  4429                           	psect	text17
  4430  0035A0                     __ptext17:
  4431                           	opt callstack 0
  4432  0035A0                     ___fleq:
  4433                           	opt callstack 24
  4434  0035A0  0E00               	movlw	0
  4435  0035A2  0100               	movlb	0	; () banked
  4436  0035A4  1580               	andwf	___fleq@ff1& (0+255),w,b
  4437  0035A6  6F88               	movwf	??___fleq& (0+255),b
  4438  0035A8  0E00               	movlw	0
  4439  0035AA  1581               	andwf	(___fleq@ff1+1)& (0+255),w,b
  4440  0035AC  6F89               	movwf	(??___fleq+1)& (0+255),b
  4441  0035AE  0E80               	movlw	128
  4442  0035B0  1582               	andwf	(___fleq@ff1+2)& (0+255),w,b
  4443  0035B2  6F8A               	movwf	(??___fleq+2)& (0+255),b
  4444  0035B4  0E7F               	movlw	127
  4445  0035B6  1583               	andwf	(___fleq@ff1+3)& (0+255),w,b
  4446  0035B8  6F8B               	movwf	(??___fleq+3)& (0+255),b
  4447  0035BA  5188               	movf	??___fleq& (0+255),w,b
  4448  0035BC  1189               	iorwf	(??___fleq+1)& (0+255),w,b
  4449  0035BE  118A               	iorwf	(??___fleq+2)& (0+255),w,b
  4450  0035C0  118B               	iorwf	(??___fleq+3)& (0+255),w,b
  4451  0035C2  A4D8               	btfss	status,2,c
  4452  0035C4  EFE6  F01A         	goto	u7261
  4453  0035C8  EFE8  F01A         	goto	u7260
  4454  0035CC                     u7261:
  4455  0035CC  EFF0  F01A         	goto	l5883
  4456  0035D0                     u7260:
  4457  0035D0                     
  4458                           ; BSR set to: 0
  4459  0035D0  0E00               	movlw	0
  4460  0035D2  6F80               	movwf	___fleq@ff1& (0+255),b
  4461  0035D4  0E00               	movlw	0
  4462  0035D6  6F81               	movwf	(___fleq@ff1+1)& (0+255),b
  4463  0035D8  0E00               	movlw	0
  4464  0035DA  6F82               	movwf	(___fleq@ff1+2)& (0+255),b
  4465  0035DC  0E00               	movlw	0
  4466  0035DE  6F83               	movwf	(___fleq@ff1+3)& (0+255),b
  4467  0035E0                     l5883:
  4468                           
  4469                           ; BSR set to: 0
  4470  0035E0  0E00               	movlw	0
  4471  0035E2  1584               	andwf	___fleq@ff2& (0+255),w,b
  4472  0035E4  6F88               	movwf	??___fleq& (0+255),b
  4473  0035E6  0E00               	movlw	0
  4474  0035E8  1585               	andwf	(___fleq@ff2+1)& (0+255),w,b
  4475  0035EA  6F89               	movwf	(??___fleq+1)& (0+255),b
  4476  0035EC  0E80               	movlw	128
  4477  0035EE  1586               	andwf	(___fleq@ff2+2)& (0+255),w,b
  4478  0035F0  6F8A               	movwf	(??___fleq+2)& (0+255),b
  4479  0035F2  0E7F               	movlw	127
  4480  0035F4  1587               	andwf	(___fleq@ff2+3)& (0+255),w,b
  4481  0035F6  6F8B               	movwf	(??___fleq+3)& (0+255),b
  4482  0035F8  5188               	movf	??___fleq& (0+255),w,b
  4483  0035FA  1189               	iorwf	(??___fleq+1)& (0+255),w,b
  4484  0035FC  118A               	iorwf	(??___fleq+2)& (0+255),w,b
  4485  0035FE  118B               	iorwf	(??___fleq+3)& (0+255),w,b
  4486  003600  A4D8               	btfss	status,2,c
  4487  003602  EF05  F01B         	goto	u7271
  4488  003606  EF07  F01B         	goto	u7270
  4489  00360A                     u7271:
  4490  00360A  EF0F  F01B         	goto	l5887
  4491  00360E                     u7270:
  4492  00360E                     
  4493                           ; BSR set to: 0
  4494  00360E  0E00               	movlw	0
  4495  003610  6F84               	movwf	___fleq@ff2& (0+255),b
  4496  003612  0E00               	movlw	0
  4497  003614  6F85               	movwf	(___fleq@ff2+1)& (0+255),b
  4498  003616  0E00               	movlw	0
  4499  003618  6F86               	movwf	(___fleq@ff2+2)& (0+255),b
  4500  00361A  0E00               	movlw	0
  4501  00361C  6F87               	movwf	(___fleq@ff2+3)& (0+255),b
  4502  00361E                     l5887:
  4503                           
  4504                           ; BSR set to: 0
  4505  00361E  5184               	movf	___fleq@ff2& (0+255),w,b
  4506  003620  1980               	xorwf	___fleq@ff1& (0+255),w,b
  4507  003622  E10F               	bnz	u7280
  4508  003624  5185               	movf	(___fleq@ff2+1)& (0+255),w,b
  4509  003626  1981               	xorwf	(___fleq@ff1+1)& (0+255),w,b
  4510  003628  E10C               	bnz	u7280
  4511  00362A  5186               	movf	(___fleq@ff2+2)& (0+255),w,b
  4512  00362C  1982               	xorwf	(___fleq@ff1+2)& (0+255),w,b
  4513  00362E  E109               	bnz	u7280
  4514  003630  5187               	movf	(___fleq@ff2+3)& (0+255),w,b
  4515  003632  1983               	xorwf	(___fleq@ff1+3)& (0+255),w,b
  4516  003634  B4D8               	btfsc	status,2,c
  4517  003636  EF1F  F01B         	goto	u7281
  4518  00363A  EF21  F01B         	goto	u7280
  4519  00363E                     u7281:
  4520  00363E  EF24  F01B         	goto	l5891
  4521  003642                     u7280:
  4522  003642                     
  4523                           ; BSR set to: 0
  4524  003642  90D8               	bcf	status,0,c
  4525  003644  EF25  F01B         	goto	l733
  4526  003648                     l5891:
  4527                           
  4528                           ; BSR set to: 0
  4529  003648  80D8               	bsf	status,0,c
  4530  00364A                     l733:
  4531                           
  4532                           ; BSR set to: 0
  4533  00364A  0012               	return		;funcret
  4534  00364C                     __end_of___fleq:
  4535                           	opt callstack 0
  4536                           
  4537 ;; *************** function _I2C_timer_prescaler *****************
  4538 ;; Defined at:
  4539 ;;		line 230 in file "I2C_conf/I2C_PIC_Support.c"
  4540 ;; Parameters:    Size  Location     Type
  4541 ;;  period          4   71[BANK0 ] float 
  4542 ;;  prUsed          2   75[BANK0 ] PTR unsigned int 
  4543 ;;		 -> I2C_Init@prUsed(2), 
  4544 ;;  presc           2   77[BANK0 ] unsigned int 
  4545 ;;  prescUsed       2   79[BANK0 ] PTR unsigned int 
  4546 ;;		 -> I2C_Init@prescUsed(2), 
  4547 ;;  min             2   81[BANK0 ] PTR float 
  4548 ;;		 -> I2C_Init@min(4), 
  4549 ;; Auto vars:     Size  Location     Type
  4550 ;;  pr_f            4   16[BANK1 ] PTR float 
  4551 ;;  minB            4   12[BANK1 ] float 
  4552 ;;  x               4    8[BANK1 ] float 
  4553 ;;  pr              2   20[BANK1 ] unsigned int 
  4554 ;; Return value:  Size  Location     Type
  4555 ;;                  1    wreg      void 
  4556 ;; Registers used:
  4557 ;;		wreg, fsr2l, fsr2h, status,2, status,0, prodl, prodh, cstack
  4558 ;; Tracked objects:
  4559 ;;		On entry : 0/0
  4560 ;;		On exit  : 0/0
  4561 ;;		Unchanged: 0/0
  4562 ;; Data sizes:     COMRAM   BANK0   BANK1   BANK2   BANK3   BANK4   BANK5
  4563 ;;      Params:         0      12       0       0       0       0       0
  4564 ;;      Locals:         0       0      22       0       0       0       0
  4565 ;;      Temps:          0       0       0       0       0       0       0
  4566 ;;      Totals:         0      12      22       0       0       0       0
  4567 ;;Total ram usage:       34 bytes
  4568 ;; Hardware stack levels used:    1
  4569 ;; Hardware stack levels required when called:    7
  4570 ;; This function calls:
  4571 ;;		___fldiv
  4572 ;;		___flge
  4573 ;;		___flmul
  4574 ;;		___flsub
  4575 ;;		___fltol
  4576 ;;		___xxtofl
  4577 ;; This function is called by:
  4578 ;;		_I2C_Init
  4579 ;; This function uses a non-reentrant model
  4580 ;;
  4581                           
  4582                           	psect	text18
  4583  0019CE                     __ptext18:
  4584                           	opt callstack 0
  4585  0019CE                     _I2C_timer_prescaler:
  4586                           	opt callstack 22
  4587  0019CE                     
  4588                           ;I2C_conf/I2C_PIC_Support.c: 230: void I2C_timer_prescaler(float period, u16 *prUsed, u1
      +                          6 presc, u16 *prescUsed, float *min);I2C_conf/I2C_PIC_Support.c: 231: {;I2C_conf/I2C_PIC
      +                          _Support.c: 232:     float minB;;I2C_conf/I2C_PIC_Support.c: 233:     double pr_f;;I2C_c
      +                          onf/I2C_PIC_Support.c: 234:     u16 pr;;I2C_conf/I2C_PIC_Support.c: 235:     long double
      +                           x;;I2C_conf/I2C_PIC_Support.c: 236:     x = (((double)80000000)/4) / ((double)presc);
  4589  0019CE  0E80               	movlw	128
  4590  0019D0  0100               	movlb	0	; () banked
  4591  0019D2  6F8E               	movwf	___fldiv@b& (0+255),b
  4592  0019D4  0E96               	movlw	150
  4593  0019D6  6F8F               	movwf	(___fldiv@b+1)& (0+255),b
  4594  0019D8  0E98               	movlw	152
  4595  0019DA  6F90               	movwf	(___fldiv@b+2)& (0+255),b
  4596  0019DC  0E4B               	movlw	75
  4597  0019DE  6F91               	movwf	(___fldiv@b+3)& (0+255),b
  4598  0019E0  C0AD  F080         	movff	I2C_timer_prescaler@presc,___xxtofl@val
  4599  0019E4  C0AE  F081         	movff	I2C_timer_prescaler@presc+1,___xxtofl@val+1
  4600  0019E8  6B82               	clrf	(___xxtofl@val+2)& (0+255),b
  4601  0019EA  6B83               	clrf	(___xxtofl@val+3)& (0+255),b
  4602  0019EC  0E00               	movlw	0
  4603  0019EE  EC75  F016         	call	___xxtofl
  4604  0019F2  C080  F092         	movff	?___xxtofl,___fldiv@a
  4605  0019F6  C081  F093         	movff	?___xxtofl+1,___fldiv@a+1
  4606  0019FA  C082  F094         	movff	?___xxtofl+2,___fldiv@a+2
  4607  0019FE  C083  F095         	movff	?___xxtofl+3,___fldiv@a+3
  4608  001A02  ECC0  F00E         	call	___fldiv	;wreg free
  4609  001A06  C08E  F1BC         	movff	?___fldiv,I2C_timer_prescaler@x
  4610  001A0A  C08F  F1BD         	movff	?___fldiv+1,I2C_timer_prescaler@x+1
  4611  001A0E  C090  F1BE         	movff	?___fldiv+2,I2C_timer_prescaler@x+2
  4612  001A12  C091  F1BF         	movff	?___fldiv+3,I2C_timer_prescaler@x+3
  4613  001A16                     
  4614                           ;I2C_conf/I2C_PIC_Support.c: 241:     if((x*period)<=(double)256)
  4615  001A16  0E00               	movlw	0
  4616  001A18  0100               	movlb	0	; () banked
  4617  001A1A  6F99               	movwf	___flge@ff1& (0+255),b
  4618  001A1C  0E00               	movlw	0
  4619  001A1E  6F9A               	movwf	(___flge@ff1+1)& (0+255),b
  4620  001A20  0E80               	movlw	128
  4621  001A22  6F9B               	movwf	(___flge@ff1+2)& (0+255),b
  4622  001A24  0E43               	movlw	67
  4623  001A26  6F9C               	movwf	(___flge@ff1+3)& (0+255),b
  4624  001A28  C0A7  F084         	movff	I2C_timer_prescaler@period,___flmul@a
  4625  001A2C  C0A8  F085         	movff	I2C_timer_prescaler@period+1,___flmul@a+1
  4626  001A30  C0A9  F086         	movff	I2C_timer_prescaler@period+2,___flmul@a+2
  4627  001A34  C0AA  F087         	movff	I2C_timer_prescaler@period+3,___flmul@a+3
  4628  001A38  C1BC  F080         	movff	I2C_timer_prescaler@x,___flmul@b
  4629  001A3C  C1BD  F081         	movff	I2C_timer_prescaler@x+1,___flmul@b+1
  4630  001A40  C1BE  F082         	movff	I2C_timer_prescaler@x+2,___flmul@b+2
  4631  001A44  C1BF  F083         	movff	I2C_timer_prescaler@x+3,___flmul@b+3
  4632  001A48  ECD1  F00A         	call	___flmul	;wreg free
  4633  001A4C  C080  F09D         	movff	?___flmul,___flge@ff2
  4634  001A50  C081  F09E         	movff	?___flmul+1,___flge@ff2+1
  4635  001A54  C082  F09F         	movff	?___flmul+2,___flge@ff2+2
  4636  001A58  C083  F0A0         	movff	?___flmul+3,___flge@ff2+3
  4637  001A5C  EC4D  F01A         	call	___flge	;wreg free
  4638  001A60  0100               	movlb	0	; () banked
  4639  001A62  A0D8               	btfss	status,0,c
  4640  001A64  EF36  F00D         	goto	u6981
  4641  001A68  EF38  F00D         	goto	u6980
  4642  001A6C                     u6981:
  4643  001A6C  EFBF  F00E         	goto	l471
  4644  001A70                     u6980:
  4645  001A70                     
  4646                           ; BSR set to: 0
  4647                           ;I2C_conf/I2C_PIC_Support.c: 242:     {;I2C_conf/I2C_PIC_Support.c: 244:         pr_f = 
      +                          x * period;
  4648  001A70  C1BC  F080         	movff	I2C_timer_prescaler@x,___flmul@b
  4649  001A74  C1BD  F081         	movff	I2C_timer_prescaler@x+1,___flmul@b+1
  4650  001A78  C1BE  F082         	movff	I2C_timer_prescaler@x+2,___flmul@b+2
  4651  001A7C  C1BF  F083         	movff	I2C_timer_prescaler@x+3,___flmul@b+3
  4652  001A80  C0A7  F084         	movff	I2C_timer_prescaler@period,___flmul@a
  4653  001A84  C0A8  F085         	movff	I2C_timer_prescaler@period+1,___flmul@a+1
  4654  001A88  C0A9  F086         	movff	I2C_timer_prescaler@period+2,___flmul@a+2
  4655  001A8C  C0AA  F087         	movff	I2C_timer_prescaler@period+3,___flmul@a+3
  4656  001A90  ECD1  F00A         	call	___flmul	;wreg free
  4657  001A94  C080  F1C4         	movff	?___flmul,I2C_timer_prescaler@pr_f
  4658  001A98  C081  F1C5         	movff	?___flmul+1,I2C_timer_prescaler@pr_f+1
  4659  001A9C  C082  F1C6         	movff	?___flmul+2,I2C_timer_prescaler@pr_f+2
  4660  001AA0  C083  F1C7         	movff	?___flmul+3,I2C_timer_prescaler@pr_f+3
  4661  001AA4                     
  4662                           ;I2C_conf/I2C_PIC_Support.c: 245:         pr = (u16)pr_f;
  4663  001AA4  C1C4  F080         	movff	I2C_timer_prescaler@pr_f,___fltol@f1
  4664  001AA8  C1C5  F081         	movff	I2C_timer_prescaler@pr_f+1,___fltol@f1+1
  4665  001AAC  C1C6  F082         	movff	I2C_timer_prescaler@pr_f+2,___fltol@f1+2
  4666  001AB0  C1C7  F083         	movff	I2C_timer_prescaler@pr_f+3,___fltol@f1+3
  4667  001AB4  ECC9  F019         	call	___fltol	;wreg free
  4668  001AB8  C080  F1C8         	movff	?___fltol,I2C_timer_prescaler@pr
  4669  001ABC  C081  F1C9         	movff	?___fltol+1,I2C_timer_prescaler@pr+1
  4670  001AC0                     
  4671                           ;I2C_conf/I2C_PIC_Support.c: 246:         minB = (pr>pr_f)? (pr-pr_f):(pr_f-pr);
  4672  001AC0  C1C4  F099         	movff	I2C_timer_prescaler@pr_f,___flge@ff1
  4673  001AC4  C1C5  F09A         	movff	I2C_timer_prescaler@pr_f+1,___flge@ff1+1
  4674  001AC8  C1C6  F09B         	movff	I2C_timer_prescaler@pr_f+2,___flge@ff1+2
  4675  001ACC  C1C7  F09C         	movff	I2C_timer_prescaler@pr_f+3,___flge@ff1+3
  4676  001AD0  C1C8  F080         	movff	I2C_timer_prescaler@pr,___xxtofl@val
  4677  001AD4  C1C9  F081         	movff	I2C_timer_prescaler@pr+1,___xxtofl@val+1
  4678  001AD8  0100               	movlb	0	; () banked
  4679  001ADA  6B82               	clrf	(___xxtofl@val+2)& (0+255),b
  4680  001ADC  6B83               	clrf	(___xxtofl@val+3)& (0+255),b
  4681  001ADE  0E00               	movlw	0
  4682  001AE0  EC75  F016         	call	___xxtofl
  4683  001AE4  C080  F09D         	movff	?___xxtofl,___flge@ff2
  4684  001AE8  C081  F09E         	movff	?___xxtofl+1,___flge@ff2+1
  4685  001AEC  C082  F09F         	movff	?___xxtofl+2,___flge@ff2+2
  4686  001AF0  C083  F0A0         	movff	?___xxtofl+3,___flge@ff2+3
  4687  001AF4  EC4D  F01A         	call	___flge	;wreg free
  4688  001AF8  0100               	movlb	0	; () banked
  4689  001AFA  A0D8               	btfss	status,0,c
  4690  001AFC  EF82  F00D         	goto	u6991
  4691  001B00  EF84  F00D         	goto	u6990
  4692  001B04                     u6991:
  4693  001B04  EFA9  F00D         	goto	l5723
  4694  001B08                     u6990:
  4695  001B08                     
  4696                           ; BSR set to: 0
  4697  001B08  C1C4  F090         	movff	I2C_timer_prescaler@pr_f,___flsub@b
  4698  001B0C  C1C5  F091         	movff	I2C_timer_prescaler@pr_f+1,___flsub@b+1
  4699  001B10  C1C6  F092         	movff	I2C_timer_prescaler@pr_f+2,___flsub@b+2
  4700  001B14  C1C7  F093         	movff	I2C_timer_prescaler@pr_f+3,___flsub@b+3
  4701  001B18  C1C8  F080         	movff	I2C_timer_prescaler@pr,___xxtofl@val
  4702  001B1C  C1C9  F081         	movff	I2C_timer_prescaler@pr+1,___xxtofl@val+1
  4703  001B20  6B82               	clrf	(___xxtofl@val+2)& (0+255),b
  4704  001B22  6B83               	clrf	(___xxtofl@val+3)& (0+255),b
  4705  001B24  0E00               	movlw	0
  4706  001B26  EC75  F016         	call	___xxtofl
  4707  001B2A  C080  F094         	movff	?___xxtofl,___flsub@a
  4708  001B2E  C081  F095         	movff	?___xxtofl+1,___flsub@a+1
  4709  001B32  C082  F096         	movff	?___xxtofl+2,___flsub@a+2
  4710  001B36  C083  F097         	movff	?___xxtofl+3,___flsub@a+3
  4711  001B3A  ECC0  F01C         	call	___flsub	;wreg free
  4712  001B3E  C090  F1B4         	movff	?___flsub,_I2C_timer_prescaler$1029
  4713  001B42  C091  F1B5         	movff	?___flsub+1,_I2C_timer_prescaler$1029+1
  4714  001B46  C092  F1B6         	movff	?___flsub+2,_I2C_timer_prescaler$1029+2
  4715  001B4A  C093  F1B7         	movff	?___flsub+3,_I2C_timer_prescaler$1029+3
  4716  001B4E  EFCC  F00D         	goto	l5725
  4717  001B52                     l5723:
  4718                           
  4719                           ; BSR set to: 0
  4720  001B52  C1C8  F080         	movff	I2C_timer_prescaler@pr,___xxtofl@val
  4721  001B56  C1C9  F081         	movff	I2C_timer_prescaler@pr+1,___xxtofl@val+1
  4722  001B5A  6B82               	clrf	(___xxtofl@val+2)& (0+255),b
  4723  001B5C  6B83               	clrf	(___xxtofl@val+3)& (0+255),b
  4724  001B5E  0E00               	movlw	0
  4725  001B60  EC75  F016         	call	___xxtofl
  4726  001B64  C080  F090         	movff	?___xxtofl,___flsub@b
  4727  001B68  C081  F091         	movff	?___xxtofl+1,___flsub@b+1
  4728  001B6C  C082  F092         	movff	?___xxtofl+2,___flsub@b+2
  4729  001B70  C083  F093         	movff	?___xxtofl+3,___flsub@b+3
  4730  001B74  C1C4  F094         	movff	I2C_timer_prescaler@pr_f,___flsub@a
  4731  001B78  C1C5  F095         	movff	I2C_timer_prescaler@pr_f+1,___flsub@a+1
  4732  001B7C  C1C6  F096         	movff	I2C_timer_prescaler@pr_f+2,___flsub@a+2
  4733  001B80  C1C7  F097         	movff	I2C_timer_prescaler@pr_f+3,___flsub@a+3
  4734  001B84  ECC0  F01C         	call	___flsub	;wreg free
  4735  001B88  C090  F1B4         	movff	?___flsub,_I2C_timer_prescaler$1029
  4736  001B8C  C091  F1B5         	movff	?___flsub+1,_I2C_timer_prescaler$1029+1
  4737  001B90  C092  F1B6         	movff	?___flsub+2,_I2C_timer_prescaler$1029+2
  4738  001B94  C093  F1B7         	movff	?___flsub+3,_I2C_timer_prescaler$1029+3
  4739  001B98                     l5725:
  4740  001B98  C1B4  F1C0         	movff	_I2C_timer_prescaler$1029,I2C_timer_prescaler@minB
  4741  001B9C  C1B5  F1C1         	movff	_I2C_timer_prescaler$1029+1,I2C_timer_prescaler@minB+1
  4742  001BA0  C1B6  F1C2         	movff	_I2C_timer_prescaler$1029+2,I2C_timer_prescaler@minB+2
  4743  001BA4  C1B7  F1C3         	movff	_I2C_timer_prescaler$1029+3,I2C_timer_prescaler@minB+3
  4744  001BA8                     
  4745                           ;I2C_conf/I2C_PIC_Support.c: 247:         if(minB < *min)
  4746  001BA8  C1C0  F099         	movff	I2C_timer_prescaler@minB,___flge@ff1
  4747  001BAC  C1C1  F09A         	movff	I2C_timer_prescaler@minB+1,___flge@ff1+1
  4748  001BB0  C1C2  F09B         	movff	I2C_timer_prescaler@minB+2,___flge@ff1+2
  4749  001BB4  C1C3  F09C         	movff	I2C_timer_prescaler@minB+3,___flge@ff1+3
  4750  001BB8  C0B1  FFD9         	movff	I2C_timer_prescaler@min,fsr2l
  4751  001BBC  C0B2  FFDA         	movff	I2C_timer_prescaler@min+1,fsr2h
  4752  001BC0  CFDE F09D          	movff	postinc2,___flge@ff2
  4753  001BC4  CFDE F09E          	movff	postinc2,___flge@ff2+1
  4754  001BC8  CFDE F09F          	movff	postinc2,___flge@ff2+2
  4755  001BCC  CFDE F0A0          	movff	postinc2,___flge@ff2+3
  4756  001BD0  EC4D  F01A         	call	___flge	;wreg free
  4757  001BD4  0100               	movlb	0	; () banked
  4758  001BD6  B0D8               	btfsc	status,0,c
  4759  001BD8  EFF0  F00D         	goto	u7001
  4760  001BDC  EFF2  F00D         	goto	u7000
  4761  001BE0                     u7001:
  4762  001BE0  EF0E  F00E         	goto	l5731
  4763  001BE4                     u7000:
  4764  001BE4                     
  4765                           ; BSR set to: 0
  4766                           ;I2C_conf/I2C_PIC_Support.c: 248:         {;I2C_conf/I2C_PIC_Support.c: 249:            
      +                           *prUsed = pr;
  4767  001BE4  C0AB  FFD9         	movff	I2C_timer_prescaler@prUsed,fsr2l
  4768  001BE8  C0AC  FFDA         	movff	I2C_timer_prescaler@prUsed+1,fsr2h
  4769  001BEC  C1C8  FFDE         	movff	I2C_timer_prescaler@pr,postinc2
  4770  001BF0  C1C9  FFDD         	movff	I2C_timer_prescaler@pr+1,postdec2
  4771                           
  4772                           ;I2C_conf/I2C_PIC_Support.c: 250:             *prescUsed = presc;
  4773  001BF4  C0AF  FFD9         	movff	I2C_timer_prescaler@prescUsed,fsr2l
  4774  001BF8  C0B0  FFDA         	movff	I2C_timer_prescaler@prescUsed+1,fsr2h
  4775  001BFC  C0AD  FFDE         	movff	I2C_timer_prescaler@presc,postinc2
  4776  001C00  C0AE  FFDD         	movff	I2C_timer_prescaler@presc+1,postdec2
  4777                           
  4778                           ;I2C_conf/I2C_PIC_Support.c: 251:             *min = minB;
  4779  001C04  C0B1  FFD9         	movff	I2C_timer_prescaler@min,fsr2l
  4780  001C08  C0B2  FFDA         	movff	I2C_timer_prescaler@min+1,fsr2h
  4781  001C0C  C1C0  FFDE         	movff	I2C_timer_prescaler@minB,postinc2
  4782  001C10  C1C1  FFDE         	movff	I2C_timer_prescaler@minB+1,postinc2
  4783  001C14  C1C2  FFDE         	movff	I2C_timer_prescaler@minB+2,postinc2
  4784  001C18  C1C3  FFDE         	movff	I2C_timer_prescaler@minB+3,postinc2
  4785  001C1C                     l5731:
  4786                           
  4787                           ; BSR set to: 0
  4788                           ;I2C_conf/I2C_PIC_Support.c: 253:         pr++;
  4789  001C1C  0101               	movlb	1	; () banked
  4790  001C1E  4BC8               	infsnz	I2C_timer_prescaler@pr& (0+255),f,b
  4791  001C20  2BC9               	incf	(I2C_timer_prescaler@pr+1)& (0+255),f,b
  4792  001C22                     
  4793                           ; BSR set to: 1
  4794                           ;I2C_conf/I2C_PIC_Support.c: 254:         minB = (pr>pr_f)? (pr-pr_f):(pr_f-pr);
  4795  001C22  C1C4  F099         	movff	I2C_timer_prescaler@pr_f,___flge@ff1
  4796  001C26  C1C5  F09A         	movff	I2C_timer_prescaler@pr_f+1,___flge@ff1+1
  4797  001C2A  C1C6  F09B         	movff	I2C_timer_prescaler@pr_f+2,___flge@ff1+2
  4798  001C2E  C1C7  F09C         	movff	I2C_timer_prescaler@pr_f+3,___flge@ff1+3
  4799  001C32  C1C8  F080         	movff	I2C_timer_prescaler@pr,___xxtofl@val
  4800  001C36  C1C9  F081         	movff	I2C_timer_prescaler@pr+1,___xxtofl@val+1
  4801  001C3A  0100               	movlb	0	; () banked
  4802  001C3C  6B82               	clrf	(___xxtofl@val+2)& (0+255),b
  4803  001C3E  6B83               	clrf	(___xxtofl@val+3)& (0+255),b
  4804  001C40  0E00               	movlw	0
  4805  001C42  EC75  F016         	call	___xxtofl
  4806  001C46  C080  F09D         	movff	?___xxtofl,___flge@ff2
  4807  001C4A  C081  F09E         	movff	?___xxtofl+1,___flge@ff2+1
  4808  001C4E  C082  F09F         	movff	?___xxtofl+2,___flge@ff2+2
  4809  001C52  C083  F0A0         	movff	?___xxtofl+3,___flge@ff2+3
  4810  001C56  EC4D  F01A         	call	___flge	;wreg free
  4811  001C5A  0100               	movlb	0	; () banked
  4812  001C5C  A0D8               	btfss	status,0,c
  4813  001C5E  EF33  F00E         	goto	u7011
  4814  001C62  EF35  F00E         	goto	u7010
  4815  001C66                     u7011:
  4816  001C66  EF5A  F00E         	goto	l5737
  4817  001C6A                     u7010:
  4818  001C6A                     
  4819                           ; BSR set to: 0
  4820  001C6A  C1C4  F090         	movff	I2C_timer_prescaler@pr_f,___flsub@b
  4821  001C6E  C1C5  F091         	movff	I2C_timer_prescaler@pr_f+1,___flsub@b+1
  4822  001C72  C1C6  F092         	movff	I2C_timer_prescaler@pr_f+2,___flsub@b+2
  4823  001C76  C1C7  F093         	movff	I2C_timer_prescaler@pr_f+3,___flsub@b+3
  4824  001C7A  C1C8  F080         	movff	I2C_timer_prescaler@pr,___xxtofl@val
  4825  001C7E  C1C9  F081         	movff	I2C_timer_prescaler@pr+1,___xxtofl@val+1
  4826  001C82  6B82               	clrf	(___xxtofl@val+2)& (0+255),b
  4827  001C84  6B83               	clrf	(___xxtofl@val+3)& (0+255),b
  4828  001C86  0E00               	movlw	0
  4829  001C88  EC75  F016         	call	___xxtofl
  4830  001C8C  C080  F094         	movff	?___xxtofl,___flsub@a
  4831  001C90  C081  F095         	movff	?___xxtofl+1,___flsub@a+1
  4832  001C94  C082  F096         	movff	?___xxtofl+2,___flsub@a+2
  4833  001C98  C083  F097         	movff	?___xxtofl+3,___flsub@a+3
  4834  001C9C  ECC0  F01C         	call	___flsub	;wreg free
  4835  001CA0  C090  F1B8         	movff	?___flsub,_I2C_timer_prescaler$1030
  4836  001CA4  C091  F1B9         	movff	?___flsub+1,_I2C_timer_prescaler$1030+1
  4837  001CA8  C092  F1BA         	movff	?___flsub+2,_I2C_timer_prescaler$1030+2
  4838  001CAC  C093  F1BB         	movff	?___flsub+3,_I2C_timer_prescaler$1030+3
  4839  001CB0  EF7D  F00E         	goto	l5739
  4840  001CB4                     l5737:
  4841                           
  4842                           ; BSR set to: 0
  4843  001CB4  C1C8  F080         	movff	I2C_timer_prescaler@pr,___xxtofl@val
  4844  001CB8  C1C9  F081         	movff	I2C_timer_prescaler@pr+1,___xxtofl@val+1
  4845  001CBC  6B82               	clrf	(___xxtofl@val+2)& (0+255),b
  4846  001CBE  6B83               	clrf	(___xxtofl@val+3)& (0+255),b
  4847  001CC0  0E00               	movlw	0
  4848  001CC2  EC75  F016         	call	___xxtofl
  4849  001CC6  C080  F090         	movff	?___xxtofl,___flsub@b
  4850  001CCA  C081  F091         	movff	?___xxtofl+1,___flsub@b+1
  4851  001CCE  C082  F092         	movff	?___xxtofl+2,___flsub@b+2
  4852  001CD2  C083  F093         	movff	?___xxtofl+3,___flsub@b+3
  4853  001CD6  C1C4  F094         	movff	I2C_timer_prescaler@pr_f,___flsub@a
  4854  001CDA  C1C5  F095         	movff	I2C_timer_prescaler@pr_f+1,___flsub@a+1
  4855  001CDE  C1C6  F096         	movff	I2C_timer_prescaler@pr_f+2,___flsub@a+2
  4856  001CE2  C1C7  F097         	movff	I2C_timer_prescaler@pr_f+3,___flsub@a+3
  4857  001CE6  ECC0  F01C         	call	___flsub	;wreg free
  4858  001CEA  C090  F1B8         	movff	?___flsub,_I2C_timer_prescaler$1030
  4859  001CEE  C091  F1B9         	movff	?___flsub+1,_I2C_timer_prescaler$1030+1
  4860  001CF2  C092  F1BA         	movff	?___flsub+2,_I2C_timer_prescaler$1030+2
  4861  001CF6  C093  F1BB         	movff	?___flsub+3,_I2C_timer_prescaler$1030+3
  4862  001CFA                     l5739:
  4863  001CFA  C1B8  F1C0         	movff	_I2C_timer_prescaler$1030,I2C_timer_prescaler@minB
  4864  001CFE  C1B9  F1C1         	movff	_I2C_timer_prescaler$1030+1,I2C_timer_prescaler@minB+1
  4865  001D02  C1BA  F1C2         	movff	_I2C_timer_prescaler$1030+2,I2C_timer_prescaler@minB+2
  4866  001D06  C1BB  F1C3         	movff	_I2C_timer_prescaler$1030+3,I2C_timer_prescaler@minB+3
  4867  001D0A                     
  4868                           ;I2C_conf/I2C_PIC_Support.c: 255:         if(minB < *min)
  4869  001D0A  C1C0  F099         	movff	I2C_timer_prescaler@minB,___flge@ff1
  4870  001D0E  C1C1  F09A         	movff	I2C_timer_prescaler@minB+1,___flge@ff1+1
  4871  001D12  C1C2  F09B         	movff	I2C_timer_prescaler@minB+2,___flge@ff1+2
  4872  001D16  C1C3  F09C         	movff	I2C_timer_prescaler@minB+3,___flge@ff1+3
  4873  001D1A  C0B1  FFD9         	movff	I2C_timer_prescaler@min,fsr2l
  4874  001D1E  C0B2  FFDA         	movff	I2C_timer_prescaler@min+1,fsr2h
  4875  001D22  CFDE F09D          	movff	postinc2,___flge@ff2
  4876  001D26  CFDE F09E          	movff	postinc2,___flge@ff2+1
  4877  001D2A  CFDE F09F          	movff	postinc2,___flge@ff2+2
  4878  001D2E  CFDE F0A0          	movff	postinc2,___flge@ff2+3
  4879  001D32  EC4D  F01A         	call	___flge	;wreg free
  4880  001D36  0100               	movlb	0	; () banked
  4881  001D38  B0D8               	btfsc	status,0,c
  4882  001D3A  EFA1  F00E         	goto	u7021
  4883  001D3E  EFA3  F00E         	goto	u7020
  4884  001D42                     u7021:
  4885  001D42  EFBF  F00E         	goto	l471
  4886  001D46                     u7020:
  4887  001D46                     
  4888                           ; BSR set to: 0
  4889                           ;I2C_conf/I2C_PIC_Support.c: 256:         {;I2C_conf/I2C_PIC_Support.c: 257:            
      +                           *prUsed = pr;
  4890  001D46  C0AB  FFD9         	movff	I2C_timer_prescaler@prUsed,fsr2l
  4891  001D4A  C0AC  FFDA         	movff	I2C_timer_prescaler@prUsed+1,fsr2h
  4892  001D4E  C1C8  FFDE         	movff	I2C_timer_prescaler@pr,postinc2
  4893  001D52  C1C9  FFDD         	movff	I2C_timer_prescaler@pr+1,postdec2
  4894                           
  4895                           ;I2C_conf/I2C_PIC_Support.c: 258:             *prescUsed = presc;
  4896  001D56  C0AF  FFD9         	movff	I2C_timer_prescaler@prescUsed,fsr2l
  4897  001D5A  C0B0  FFDA         	movff	I2C_timer_prescaler@prescUsed+1,fsr2h
  4898  001D5E  C0AD  FFDE         	movff	I2C_timer_prescaler@presc,postinc2
  4899  001D62  C0AE  FFDD         	movff	I2C_timer_prescaler@presc+1,postdec2
  4900                           
  4901                           ;I2C_conf/I2C_PIC_Support.c: 259:             *min = minB;
  4902  001D66  C0B1  FFD9         	movff	I2C_timer_prescaler@min,fsr2l
  4903  001D6A  C0B2  FFDA         	movff	I2C_timer_prescaler@min+1,fsr2h
  4904  001D6E  C1C0  FFDE         	movff	I2C_timer_prescaler@minB,postinc2
  4905  001D72  C1C1  FFDE         	movff	I2C_timer_prescaler@minB+1,postinc2
  4906  001D76  C1C2  FFDE         	movff	I2C_timer_prescaler@minB+2,postinc2
  4907  001D7A  C1C3  FFDE         	movff	I2C_timer_prescaler@minB+3,postinc2
  4908  001D7E                     l471:
  4909                           
  4910                           ; BSR set to: 0
  4911  001D7E  0012               	return		;funcret
  4912  001D80                     __end_of_I2C_timer_prescaler:
  4913                           	opt callstack 0
  4914                           
  4915 ;; *************** function ___xxtofl *****************
  4916 ;; Defined at:
  4917 ;;		line 10 in file "C:\Program Files (x86)\Microchip\xc8\v2.10\pic\sources\c99\common\xxtofl.c"
  4918 ;; Parameters:    Size  Location     Type
  4919 ;;  sign            1    wreg     unsigned char 
  4920 ;;  val             4   32[BANK0 ] long 
  4921 ;; Auto vars:     Size  Location     Type
  4922 ;;  sign            1   40[BANK0 ] unsigned char 
  4923 ;;  arg             4   42[BANK0 ] unsigned long 
  4924 ;;  exp             1   41[BANK0 ] unsigned char 
  4925 ;; Return value:  Size  Location     Type
  4926 ;;                  4   32[BANK0 ] unsigned char 
  4927 ;; Registers used:
  4928 ;;		wreg, status,2, status,0
  4929 ;; Tracked objects:
  4930 ;;		On entry : 0/0
  4931 ;;		On exit  : 0/0
  4932 ;;		Unchanged: 0/0
  4933 ;; Data sizes:     COMRAM   BANK0   BANK1   BANK2   BANK3   BANK4   BANK5
  4934 ;;      Params:         0       4       0       0       0       0       0
  4935 ;;      Locals:         0       6       0       0       0       0       0
  4936 ;;      Temps:          0       4       0       0       0       0       0
  4937 ;;      Totals:         0      14       0       0       0       0       0
  4938 ;;Total ram usage:       14 bytes
  4939 ;; Hardware stack levels used:    1
  4940 ;; Hardware stack levels required when called:    5
  4941 ;; This function calls:
  4942 ;;		Nothing
  4943 ;; This function is called by:
  4944 ;;		_I2C_timer_prescaler
  4945 ;; This function uses a non-reentrant model
  4946 ;;
  4947                           
  4948                           	psect	text19
  4949  002CEA                     __ptext19:
  4950                           	opt callstack 0
  4951  002CEA                     ___xxtofl:
  4952                           	opt callstack 23
  4953                           
  4954                           ; BSR set to: 0
  4955                           ;incstack = 0
  4956                           ;___xxtofl@sign stored from wreg
  4957  002CEA  0100               	movlb	0	; () banked
  4958  002CEC  6F88               	movwf	___xxtofl@sign& (0+255),b
  4959  002CEE  0100               	movlb	0	; () banked
  4960  002CF0  5188               	movf	___xxtofl@sign& (0+255),w,b
  4961  002CF2  B4D8               	btfsc	status,2,c
  4962  002CF4  EF7E  F016         	goto	u6361
  4963  002CF8  EF80  F016         	goto	u6360
  4964  002CFC                     u6361:
  4965  002CFC  EFA2  F016         	goto	l1129
  4966  002D00                     u6360:
  4967  002D00                     
  4968                           ; BSR set to: 0
  4969  002D00  BF83               	btfsc	(___xxtofl@val+3)& (0+255),7,b
  4970  002D02  EF87  F016         	goto	u6370
  4971  002D06  EF85  F016         	goto	u6371
  4972  002D0A                     u6371:
  4973  002D0A  EFA2  F016         	goto	l1129
  4974  002D0E                     u6370:
  4975  002D0E                     
  4976                           ; BSR set to: 0
  4977  002D0E  C080  F084         	movff	___xxtofl@val,??___xxtofl
  4978  002D12  C081  F085         	movff	___xxtofl@val+1,??___xxtofl+1
  4979  002D16  C082  F086         	movff	___xxtofl@val+2,??___xxtofl+2
  4980  002D1A  C083  F087         	movff	___xxtofl@val+3,??___xxtofl+3
  4981  002D1E  1F84               	comf	??___xxtofl& (0+255),f,b
  4982  002D20  1F85               	comf	(??___xxtofl+1)& (0+255),f,b
  4983  002D22  1F86               	comf	(??___xxtofl+2)& (0+255),f,b
  4984  002D24  1F87               	comf	(??___xxtofl+3)& (0+255),f,b
  4985  002D26  2B84               	incf	??___xxtofl& (0+255),f,b
  4986  002D28  0E00               	movlw	0
  4987  002D2A  2385               	addwfc	(??___xxtofl+1)& (0+255),f,b
  4988  002D2C  2386               	addwfc	(??___xxtofl+2)& (0+255),f,b
  4989  002D2E  2387               	addwfc	(??___xxtofl+3)& (0+255),f,b
  4990  002D30  C084  F08A         	movff	??___xxtofl,___xxtofl@arg
  4991  002D34  C085  F08B         	movff	??___xxtofl+1,___xxtofl@arg+1
  4992  002D38  C086  F08C         	movff	??___xxtofl+2,___xxtofl@arg+2
  4993  002D3C  C087  F08D         	movff	??___xxtofl+3,___xxtofl@arg+3
  4994  002D40  EFAA  F016         	goto	l5371
  4995  002D44                     l1129:
  4996                           
  4997                           ; BSR set to: 0
  4998  002D44  C080  F08A         	movff	___xxtofl@val,___xxtofl@arg
  4999  002D48  C081  F08B         	movff	___xxtofl@val+1,___xxtofl@arg+1
  5000  002D4C  C082  F08C         	movff	___xxtofl@val+2,___xxtofl@arg+2
  5001  002D50  C083  F08D         	movff	___xxtofl@val+3,___xxtofl@arg+3
  5002  002D54                     l5371:
  5003                           
  5004                           ; BSR set to: 0
  5005  002D54  5180               	movf	___xxtofl@val& (0+255),w,b
  5006  002D56  1181               	iorwf	(___xxtofl@val+1)& (0+255),w,b
  5007  002D58  1182               	iorwf	(___xxtofl@val+2)& (0+255),w,b
  5008  002D5A  1183               	iorwf	(___xxtofl@val+3)& (0+255),w,b
  5009  002D5C  A4D8               	btfss	status,2,c
  5010  002D5E  EFB3  F016         	goto	u6381
  5011  002D62  EFB5  F016         	goto	u6380
  5012  002D66                     u6381:
  5013  002D66  EFBF  F016         	goto	l5377
  5014  002D6A                     u6380:
  5015  002D6A                     
  5016                           ; BSR set to: 0
  5017  002D6A  0E00               	movlw	0
  5018  002D6C  6F80               	movwf	?___xxtofl& (0+255),b
  5019  002D6E  0E00               	movlw	0
  5020  002D70  6F81               	movwf	(?___xxtofl+1)& (0+255),b
  5021  002D72  0E00               	movlw	0
  5022  002D74  6F82               	movwf	(?___xxtofl+2)& (0+255),b
  5023  002D76  0E00               	movlw	0
  5024  002D78  6F83               	movwf	(?___xxtofl+3)& (0+255),b
  5025  002D7A  EF50  F017         	goto	l1132
  5026  002D7E                     l5377:
  5027                           
  5028                           ; BSR set to: 0
  5029  002D7E  0E96               	movlw	150
  5030  002D80  6F89               	movwf	___xxtofl@exp& (0+255),b
  5031  002D82  EFC9  F016         	goto	l5381
  5032  002D86                     l5379:
  5033                           
  5034                           ; BSR set to: 0
  5035  002D86  2B89               	incf	___xxtofl@exp& (0+255),f,b
  5036  002D88  90D8               	bcf	status,0,c
  5037  002D8A  338D               	rrcf	(___xxtofl@arg+3)& (0+255),f,b
  5038  002D8C  338C               	rrcf	(___xxtofl@arg+2)& (0+255),f,b
  5039  002D8E  338B               	rrcf	(___xxtofl@arg+1)& (0+255),f,b
  5040  002D90  338A               	rrcf	___xxtofl@arg& (0+255),f,b
  5041  002D92                     l5381:
  5042                           
  5043                           ; BSR set to: 0
  5044  002D92  0E00               	movlw	0
  5045  002D94  158A               	andwf	___xxtofl@arg& (0+255),w,b
  5046  002D96  6F84               	movwf	??___xxtofl& (0+255),b
  5047  002D98  0E00               	movlw	0
  5048  002D9A  158B               	andwf	(___xxtofl@arg+1)& (0+255),w,b
  5049  002D9C  6F85               	movwf	(??___xxtofl+1)& (0+255),b
  5050  002D9E  0E00               	movlw	0
  5051  002DA0  158C               	andwf	(___xxtofl@arg+2)& (0+255),w,b
  5052  002DA2  6F86               	movwf	(??___xxtofl+2)& (0+255),b
  5053  002DA4  0EFE               	movlw	254
  5054  002DA6  158D               	andwf	(___xxtofl@arg+3)& (0+255),w,b
  5055  002DA8  6F87               	movwf	(??___xxtofl+3)& (0+255),b
  5056  002DAA  5184               	movf	??___xxtofl& (0+255),w,b
  5057  002DAC  1185               	iorwf	(??___xxtofl+1)& (0+255),w,b
  5058  002DAE  1186               	iorwf	(??___xxtofl+2)& (0+255),w,b
  5059  002DB0  1187               	iorwf	(??___xxtofl+3)& (0+255),w,b
  5060  002DB2  A4D8               	btfss	status,2,c
  5061  002DB4  EFDE  F016         	goto	u6391
  5062  002DB8  EFE0  F016         	goto	u6390
  5063  002DBC                     u6391:
  5064  002DBC  EFC3  F016         	goto	l5379
  5065  002DC0                     u6390:
  5066  002DC0  EFEE  F016         	goto	l1136
  5067  002DC4                     l5383:
  5068                           
  5069                           ; BSR set to: 0
  5070  002DC4  2B89               	incf	___xxtofl@exp& (0+255),f,b
  5071  002DC6                     
  5072                           ; BSR set to: 0
  5073  002DC6  0E01               	movlw	1
  5074  002DC8  278A               	addwf	___xxtofl@arg& (0+255),f,b
  5075  002DCA  0E00               	movlw	0
  5076  002DCC  238B               	addwfc	(___xxtofl@arg+1)& (0+255),f,b
  5077  002DCE  238C               	addwfc	(___xxtofl@arg+2)& (0+255),f,b
  5078  002DD0  238D               	addwfc	(___xxtofl@arg+3)& (0+255),f,b
  5079  002DD2                     
  5080                           ; BSR set to: 0
  5081  002DD2  90D8               	bcf	status,0,c
  5082  002DD4  338D               	rrcf	(___xxtofl@arg+3)& (0+255),f,b
  5083  002DD6  338C               	rrcf	(___xxtofl@arg+2)& (0+255),f,b
  5084  002DD8  338B               	rrcf	(___xxtofl@arg+1)& (0+255),f,b
  5085  002DDA  338A               	rrcf	___xxtofl@arg& (0+255),f,b
  5086  002DDC                     l1136:
  5087                           
  5088                           ; BSR set to: 0
  5089  002DDC  0E00               	movlw	0
  5090  002DDE  158A               	andwf	___xxtofl@arg& (0+255),w,b
  5091  002DE0  6F84               	movwf	??___xxtofl& (0+255),b
  5092  002DE2  0E00               	movlw	0
  5093  002DE4  158B               	andwf	(___xxtofl@arg+1)& (0+255),w,b
  5094  002DE6  6F85               	movwf	(??___xxtofl+1)& (0+255),b
  5095  002DE8  0E00               	movlw	0
  5096  002DEA  158C               	andwf	(___xxtofl@arg+2)& (0+255),w,b
  5097  002DEC  6F86               	movwf	(??___xxtofl+2)& (0+255),b
  5098  002DEE  0EFF               	movlw	255
  5099  002DF0  158D               	andwf	(___xxtofl@arg+3)& (0+255),w,b
  5100  002DF2  6F87               	movwf	(??___xxtofl+3)& (0+255),b
  5101  002DF4  5184               	movf	??___xxtofl& (0+255),w,b
  5102  002DF6  1185               	iorwf	(??___xxtofl+1)& (0+255),w,b
  5103  002DF8  1186               	iorwf	(??___xxtofl+2)& (0+255),w,b
  5104  002DFA  1187               	iorwf	(??___xxtofl+3)& (0+255),w,b
  5105  002DFC  A4D8               	btfss	status,2,c
  5106  002DFE  EF03  F017         	goto	u6401
  5107  002E02  EF05  F017         	goto	u6400
  5108  002E06                     u6401:
  5109  002E06  EFE2  F016         	goto	l5383
  5110  002E0A                     u6400:
  5111  002E0A  EF0D  F017         	goto	l5391
  5112  002E0E                     l5389:
  5113                           
  5114                           ; BSR set to: 0
  5115  002E0E  0789               	decf	___xxtofl@exp& (0+255),f,b
  5116  002E10  90D8               	bcf	status,0,c
  5117  002E12  378A               	rlcf	___xxtofl@arg& (0+255),f,b
  5118  002E14  378B               	rlcf	(___xxtofl@arg+1)& (0+255),f,b
  5119  002E16  378C               	rlcf	(___xxtofl@arg+2)& (0+255),f,b
  5120  002E18  378D               	rlcf	(___xxtofl@arg+3)& (0+255),f,b
  5121  002E1A                     l5391:
  5122                           
  5123                           ; BSR set to: 0
  5124  002E1A  BF8C               	btfsc	(___xxtofl@arg+2)& (0+255),7,b
  5125  002E1C  EF12  F017         	goto	u6411
  5126  002E20  EF14  F017         	goto	u6410
  5127  002E24                     u6411:
  5128  002E24  EF1C  F017         	goto	l1143
  5129  002E28                     u6410:
  5130  002E28                     
  5131                           ; BSR set to: 0
  5132  002E28  0E02               	movlw	2
  5133  002E2A  6189               	cpfslt	___xxtofl@exp& (0+255),b
  5134  002E2C  EF1A  F017         	goto	u6421
  5135  002E30  EF1C  F017         	goto	u6420
  5136  002E34                     u6421:
  5137  002E34  EF07  F017         	goto	l5389
  5138  002E38                     u6420:
  5139  002E38                     l1143:
  5140                           
  5141                           ; BSR set to: 0
  5142  002E38  B189               	btfsc	___xxtofl@exp& (0+255),0,b
  5143  002E3A  EF21  F017         	goto	u6431
  5144  002E3E  EF23  F017         	goto	u6430
  5145  002E42                     u6431:
  5146  002E42  EF24  F017         	goto	l5397
  5147  002E46                     u6430:
  5148  002E46                     
  5149                           ; BSR set to: 0
  5150  002E46  9F8C               	bcf	(___xxtofl@arg+2)& (0+255),7,b
  5151  002E48                     l5397:
  5152                           
  5153                           ; BSR set to: 0
  5154  002E48  90D8               	bcf	status,0,c
  5155  002E4A  3389               	rrcf	___xxtofl@exp& (0+255),f,b
  5156  002E4C                     
  5157                           ; BSR set to: 0
  5158  002E4C  C089  F084         	movff	___xxtofl@exp,??___xxtofl
  5159  002E50  6B85               	clrf	(??___xxtofl+1)& (0+255),b
  5160  002E52  6B86               	clrf	(??___xxtofl+2)& (0+255),b
  5161  002E54  6B87               	clrf	(??___xxtofl+3)& (0+255),b
  5162  002E56  C084  F087         	movff	??___xxtofl,??___xxtofl+3
  5163  002E5A  6B86               	clrf	(??___xxtofl+2)& (0+255),b
  5164  002E5C  6B85               	clrf	(??___xxtofl+1)& (0+255),b
  5165  002E5E  6B84               	clrf	??___xxtofl& (0+255),b
  5166  002E60  5184               	movf	??___xxtofl& (0+255),w,b
  5167  002E62  138A               	iorwf	___xxtofl@arg& (0+255),f,b
  5168  002E64  5185               	movf	(??___xxtofl+1)& (0+255),w,b
  5169  002E66  138B               	iorwf	(___xxtofl@arg+1)& (0+255),f,b
  5170  002E68  5186               	movf	(??___xxtofl+2)& (0+255),w,b
  5171  002E6A  138C               	iorwf	(___xxtofl@arg+2)& (0+255),f,b
  5172  002E6C  5187               	movf	(??___xxtofl+3)& (0+255),w,b
  5173  002E6E  138D               	iorwf	(___xxtofl@arg+3)& (0+255),f,b
  5174  002E70                     
  5175                           ; BSR set to: 0
  5176  002E70  5188               	movf	___xxtofl@sign& (0+255),w,b
  5177  002E72  B4D8               	btfsc	status,2,c
  5178  002E74  EF3E  F017         	goto	u6441
  5179  002E78  EF40  F017         	goto	u6440
  5180  002E7C                     u6441:
  5181  002E7C  EF48  F017         	goto	l5407
  5182  002E80                     u6440:
  5183  002E80                     
  5184                           ; BSR set to: 0
  5185  002E80  BF83               	btfsc	(___xxtofl@val+3)& (0+255),7,b
  5186  002E82  EF47  F017         	goto	u6450
  5187  002E86  EF45  F017         	goto	u6451
  5188  002E8A                     u6451:
  5189  002E8A  EF48  F017         	goto	l5407
  5190  002E8E                     u6450:
  5191  002E8E                     
  5192                           ; BSR set to: 0
  5193  002E8E  8F8D               	bsf	(___xxtofl@arg+3)& (0+255),7,b
  5194  002E90                     l5407:
  5195                           
  5196                           ; BSR set to: 0
  5197  002E90  C08A  F080         	movff	___xxtofl@arg,?___xxtofl
  5198  002E94  C08B  F081         	movff	___xxtofl@arg+1,?___xxtofl+1
  5199  002E98  C08C  F082         	movff	___xxtofl@arg+2,?___xxtofl+2
  5200  002E9C  C08D  F083         	movff	___xxtofl@arg+3,?___xxtofl+3
  5201  002EA0                     l1132:
  5202                           
  5203                           ; BSR set to: 0
  5204  002EA0  0012               	return		;funcret
  5205  002EA2                     __end_of___xxtofl:
  5206                           	opt callstack 0
  5207                           
  5208 ;; *************** function ___fltol *****************
  5209 ;; Defined at:
  5210 ;;		line 43 in file "C:\Program Files (x86)\Microchip\xc8\v2.10\pic\sources\c99\common\fltol.c"
  5211 ;; Parameters:    Size  Location     Type
  5212 ;;  f1              4   32[BANK0 ] unsigned char 
  5213 ;; Auto vars:     Size  Location     Type
  5214 ;;  exp1            1   41[BANK0 ] unsigned char 
  5215 ;;  sign1           1   40[BANK0 ] unsigned char 
  5216 ;; Return value:  Size  Location     Type
  5217 ;;                  4   32[BANK0 ] long 
  5218 ;; Registers used:
  5219 ;;		wreg, status,2, status,0
  5220 ;; Tracked objects:
  5221 ;;		On entry : 0/0
  5222 ;;		On exit  : 0/0
  5223 ;;		Unchanged: 0/0
  5224 ;; Data sizes:     COMRAM   BANK0   BANK1   BANK2   BANK3   BANK4   BANK5
  5225 ;;      Params:         0       4       0       0       0       0       0
  5226 ;;      Locals:         0       2       0       0       0       0       0
  5227 ;;      Temps:          0       4       0       0       0       0       0
  5228 ;;      Totals:         0      10       0       0       0       0       0
  5229 ;;Total ram usage:       10 bytes
  5230 ;; Hardware stack levels used:    1
  5231 ;; Hardware stack levels required when called:    5
  5232 ;; This function calls:
  5233 ;;		Nothing
  5234 ;; This function is called by:
  5235 ;;		_I2C_timer_prescaler
  5236 ;; This function uses a non-reentrant model
  5237 ;;
  5238                           
  5239                           	psect	text20
  5240  003392                     __ptext20:
  5241                           	opt callstack 0
  5242  003392                     ___fltol:
  5243                           	opt callstack 23
  5244  003392  0100               	movlb	0	; () banked
  5245  003394  3582               	rlcf	(___fltol@f1+2)& (0+255),w,b
  5246  003396  3583               	rlcf	(___fltol@f1+3)& (0+255),w,b
  5247  003398  6F89               	movwf	___fltol@exp1& (0+255),b
  5248  00339A  5189               	movf	___fltol@exp1& (0+255),w,b
  5249  00339C  A4D8               	btfss	status,2,c
  5250  00339E  EFD3  F019         	goto	u6291
  5251  0033A2  EFD5  F019         	goto	u6290
  5252  0033A6                     u6291:
  5253  0033A6  EFDF  F019         	goto	l5327
  5254  0033AA                     u6290:
  5255  0033AA                     l5323:
  5256                           
  5257                           ; BSR set to: 0
  5258  0033AA  0E00               	movlw	0
  5259  0033AC  6F80               	movwf	?___fltol& (0+255),b
  5260  0033AE  0E00               	movlw	0
  5261  0033B0  6F81               	movwf	(?___fltol+1)& (0+255),b
  5262  0033B2  0E00               	movlw	0
  5263  0033B4  6F82               	movwf	(?___fltol+2)& (0+255),b
  5264  0033B6  0E00               	movlw	0
  5265  0033B8  6F83               	movwf	(?___fltol+3)& (0+255),b
  5266  0033BA  EF4C  F01A         	goto	l771
  5267  0033BE                     l5327:
  5268                           
  5269                           ; BSR set to: 0
  5270  0033BE  C080  F084         	movff	___fltol@f1,??___fltol
  5271  0033C2  C081  F085         	movff	___fltol@f1+1,??___fltol+1
  5272  0033C6  C082  F086         	movff	___fltol@f1+2,??___fltol+2
  5273  0033CA  C083  F087         	movff	___fltol@f1+3,??___fltol+3
  5274  0033CE  0E20               	movlw	32
  5275  0033D0  EFEF  F019         	goto	u6300
  5276  0033D4                     u6305:
  5277  0033D4  90D8               	bcf	status,0,c
  5278  0033D6  3387               	rrcf	(??___fltol+3)& (0+255),f,b
  5279  0033D8  3386               	rrcf	(??___fltol+2)& (0+255),f,b
  5280  0033DA  3385               	rrcf	(??___fltol+1)& (0+255),f,b
  5281  0033DC  3384               	rrcf	??___fltol& (0+255),f,b
  5282  0033DE                     u6300:
  5283  0033DE  2EE8               	decfsz	wreg,f,c
  5284  0033E0  EFEA  F019         	goto	u6305
  5285  0033E4  5184               	movf	??___fltol& (0+255),w,b
  5286  0033E6  6F88               	movwf	___fltol@sign1& (0+255),b
  5287  0033E8                     
  5288                           ; BSR set to: 0
  5289  0033E8  8F82               	bsf	(___fltol@f1+2)& (0+255),7,b
  5290  0033EA                     
  5291                           ; BSR set to: 0
  5292  0033EA  0EFF               	movlw	255
  5293  0033EC  1780               	andwf	___fltol@f1& (0+255),f,b
  5294  0033EE  0EFF               	movlw	255
  5295  0033F0  1781               	andwf	(___fltol@f1+1)& (0+255),f,b
  5296  0033F2  0EFF               	movlw	255
  5297  0033F4  1782               	andwf	(___fltol@f1+2)& (0+255),f,b
  5298  0033F6  0E00               	movlw	0
  5299  0033F8  1783               	andwf	(___fltol@f1+3)& (0+255),f,b
  5300  0033FA                     
  5301                           ; BSR set to: 0
  5302  0033FA  0E96               	movlw	150
  5303  0033FC  5F89               	subwf	___fltol@exp1& (0+255),f,b
  5304  0033FE                     
  5305                           ; BSR set to: 0
  5306  0033FE  BF89               	btfsc	___fltol@exp1& (0+255),7,b
  5307  003400  EF06  F01A         	goto	u6310
  5308  003404  EF04  F01A         	goto	u6311
  5309  003408                     u6311:
  5310  003408  EF1C  F01A         	goto	l5347
  5311  00340C                     u6310:
  5312  00340C                     
  5313                           ; BSR set to: 0
  5314  00340C  5189               	movf	___fltol@exp1& (0+255),w,b
  5315  00340E  0A80               	xorlw	128
  5316  003410  0F97               	addlw	151
  5317  003412  B0D8               	btfsc	status,0,c
  5318  003414  EF0E  F01A         	goto	u6321
  5319  003418  EF10  F01A         	goto	u6320
  5320  00341C                     u6321:
  5321  00341C  EF12  F01A         	goto	l5343
  5322  003420                     u6320:
  5323  003420  EFD5  F019         	goto	l5323
  5324  003424                     l5343:
  5325                           
  5326                           ; BSR set to: 0
  5327  003424  90D8               	bcf	status,0,c
  5328  003426  3383               	rrcf	(___fltol@f1+3)& (0+255),f,b
  5329  003428  3382               	rrcf	(___fltol@f1+2)& (0+255),f,b
  5330  00342A  3381               	rrcf	(___fltol@f1+1)& (0+255),f,b
  5331  00342C  3380               	rrcf	___fltol@f1& (0+255),f,b
  5332  00342E                     
  5333                           ; BSR set to: 0
  5334  00342E  3F89               	incfsz	___fltol@exp1& (0+255),f,b
  5335  003430  EF12  F01A         	goto	l5343
  5336  003434  EF34  F01A         	goto	l5357
  5337  003438                     l5347:
  5338                           
  5339                           ; BSR set to: 0
  5340  003438  0E1F               	movlw	31
  5341  00343A  6589               	cpfsgt	___fltol@exp1& (0+255),b
  5342  00343C  EF22  F01A         	goto	u6331
  5343  003440  EF24  F01A         	goto	u6330
  5344  003444                     u6331:
  5345  003444  EF2C  F01A         	goto	l5355
  5346  003448                     u6330:
  5347  003448  EFD5  F019         	goto	l5323
  5348  00344C                     l5353:
  5349                           
  5350                           ; BSR set to: 0
  5351  00344C  90D8               	bcf	status,0,c
  5352  00344E  3780               	rlcf	___fltol@f1& (0+255),f,b
  5353  003450  3781               	rlcf	(___fltol@f1+1)& (0+255),f,b
  5354  003452  3782               	rlcf	(___fltol@f1+2)& (0+255),f,b
  5355  003454  3783               	rlcf	(___fltol@f1+3)& (0+255),f,b
  5356  003456  0789               	decf	___fltol@exp1& (0+255),f,b
  5357  003458                     l5355:
  5358                           
  5359                           ; BSR set to: 0
  5360  003458  5189               	movf	___fltol@exp1& (0+255),w,b
  5361  00345A  A4D8               	btfss	status,2,c
  5362  00345C  EF32  F01A         	goto	u6341
  5363  003460  EF34  F01A         	goto	u6340
  5364  003464                     u6341:
  5365  003464  EF26  F01A         	goto	l5353
  5366  003468                     u6340:
  5367  003468                     l5357:
  5368                           
  5369                           ; BSR set to: 0
  5370  003468  5188               	movf	___fltol@sign1& (0+255),w,b
  5371  00346A  B4D8               	btfsc	status,2,c
  5372  00346C  EF3A  F01A         	goto	u6351
  5373  003470  EF3C  F01A         	goto	u6350
  5374  003474                     u6351:
  5375  003474  EF44  F01A         	goto	l5361
  5376  003478                     u6350:
  5377  003478                     
  5378                           ; BSR set to: 0
  5379  003478  1F83               	comf	(___fltol@f1+3)& (0+255),f,b
  5380  00347A  1F82               	comf	(___fltol@f1+2)& (0+255),f,b
  5381  00347C  1F81               	comf	(___fltol@f1+1)& (0+255),f,b
  5382  00347E  6D80               	negf	___fltol@f1& (0+255),b
  5383  003480  0E00               	movlw	0
  5384  003482  2381               	addwfc	(___fltol@f1+1)& (0+255),f,b
  5385  003484  2382               	addwfc	(___fltol@f1+2)& (0+255),f,b
  5386  003486  2383               	addwfc	(___fltol@f1+3)& (0+255),f,b
  5387  003488                     l5361:
  5388                           
  5389                           ; BSR set to: 0
  5390  003488  C080  F080         	movff	___fltol@f1,?___fltol
  5391  00348C  C081  F081         	movff	___fltol@f1+1,?___fltol+1
  5392  003490  C082  F082         	movff	___fltol@f1+2,?___fltol+2
  5393  003494  C083  F083         	movff	___fltol@f1+3,?___fltol+3
  5394  003498                     l771:
  5395                           
  5396                           ; BSR set to: 0
  5397  003498  0012               	return		;funcret
  5398  00349A                     __end_of___fltol:
  5399                           	opt callstack 0
  5400                           
  5401 ;; *************** function ___flsub *****************
  5402 ;; Defined at:
  5403 ;;		line 245 in file "C:\Program Files (x86)\Microchip\xc8\v2.10\pic\sources\c99\common\sprcadd.c"
  5404 ;; Parameters:    Size  Location     Type
  5405 ;;  b               4   48[BANK0 ] long 
  5406 ;;  a               4   52[BANK0 ] long 
  5407 ;; Auto vars:     Size  Location     Type
  5408 ;;		None
  5409 ;; Return value:  Size  Location     Type
  5410 ;;                  4   48[BANK0 ] long 
  5411 ;; Registers used:
  5412 ;;		wreg, status,2, status,0, cstack
  5413 ;; Tracked objects:
  5414 ;;		On entry : 0/0
  5415 ;;		On exit  : 0/0
  5416 ;;		Unchanged: 0/0
  5417 ;; Data sizes:     COMRAM   BANK0   BANK1   BANK2   BANK3   BANK4   BANK5
  5418 ;;      Params:         0       8       0       0       0       0       0
  5419 ;;      Locals:         0       0       0       0       0       0       0
  5420 ;;      Temps:          0       0       0       0       0       0       0
  5421 ;;      Totals:         0       8       0       0       0       0       0
  5422 ;;Total ram usage:        8 bytes
  5423 ;; Hardware stack levels used:    1
  5424 ;; Hardware stack levels required when called:    6
  5425 ;; This function calls:
  5426 ;;		___fladd
  5427 ;; This function is called by:
  5428 ;;		_I2C_timer_prescaler
  5429 ;; This function uses a non-reentrant model
  5430 ;;
  5431                           
  5432                           	psect	text21
  5433  003980                     __ptext21:
  5434                           	opt callstack 0
  5435  003980                     ___flsub:
  5436                           	opt callstack 22
  5437  003980  0E00               	movlw	0
  5438  003982  0100               	movlb	0	; () banked
  5439  003984  1B94               	xorwf	___flsub@a& (0+255),f,b
  5440  003986  0E00               	movlw	0
  5441  003988  1B95               	xorwf	(___flsub@a+1)& (0+255),f,b
  5442  00398A  0E00               	movlw	0
  5443  00398C  1B96               	xorwf	(___flsub@a+2)& (0+255),f,b
  5444  00398E  0E80               	movlw	128
  5445  003990  1B97               	xorwf	(___flsub@a+3)& (0+255),f,b
  5446  003992                     
  5447                           ; BSR set to: 0
  5448  003992  C090  F080         	movff	___flsub@b,___fladd@b
  5449  003996  C091  F081         	movff	___flsub@b+1,___fladd@b+1
  5450  00399A  C092  F082         	movff	___flsub@b+2,___fladd@b+2
  5451  00399E  C093  F083         	movff	___flsub@b+3,___fladd@b+3
  5452  0039A2  C094  F084         	movff	___flsub@a,___fladd@a
  5453  0039A6  C095  F085         	movff	___flsub@a+1,___fladd@a+1
  5454  0039AA  C096  F086         	movff	___flsub@a+2,___fladd@a+2
  5455  0039AE  C097  F087         	movff	___flsub@a+3,___fladd@a+3
  5456  0039B2  EC70  F008         	call	___fladd	;wreg free
  5457  0039B6  C080  F090         	movff	?___fladd,?___flsub
  5458  0039BA  C081  F091         	movff	?___fladd+1,?___flsub+1
  5459  0039BE  C082  F092         	movff	?___fladd+2,?___flsub+2
  5460  0039C2  C083  F093         	movff	?___fladd+3,?___flsub+3
  5461  0039C6  0012               	return		;funcret
  5462  0039C8                     __end_of___flsub:
  5463                           	opt callstack 0
  5464                           
  5465 ;; *************** function ___fladd *****************
  5466 ;; Defined at:
  5467 ;;		line 10 in file "C:\Program Files (x86)\Microchip\xc8\v2.10\pic\sources\c99\common\sprcadd.c"
  5468 ;; Parameters:    Size  Location     Type
  5469 ;;  b               4   32[BANK0 ] long 
  5470 ;;  a               4   36[BANK0 ] long 
  5471 ;; Auto vars:     Size  Location     Type
  5472 ;;  grs             1   47[BANK0 ] unsigned char 
  5473 ;;  bexp            1   46[BANK0 ] unsigned char 
  5474 ;;  aexp            1   45[BANK0 ] unsigned char 
  5475 ;;  signs           1   44[BANK0 ] unsigned char 
  5476 ;; Return value:  Size  Location     Type
  5477 ;;                  4   32[BANK0 ] unsigned char 
  5478 ;; Registers used:
  5479 ;;		wreg, status,2, status,0
  5480 ;; Tracked objects:
  5481 ;;		On entry : 0/0
  5482 ;;		On exit  : 0/0
  5483 ;;		Unchanged: 0/0
  5484 ;; Data sizes:     COMRAM   BANK0   BANK1   BANK2   BANK3   BANK4   BANK5
  5485 ;;      Params:         0       8       0       0       0       0       0
  5486 ;;      Locals:         0       4       0       0       0       0       0
  5487 ;;      Temps:          0       4       0       0       0       0       0
  5488 ;;      Totals:         0      16       0       0       0       0       0
  5489 ;;Total ram usage:       16 bytes
  5490 ;; Hardware stack levels used:    1
  5491 ;; Hardware stack levels required when called:    5
  5492 ;; This function calls:
  5493 ;;		Nothing
  5494 ;; This function is called by:
  5495 ;;		___flsub
  5496 ;; This function uses a non-reentrant model
  5497 ;;
  5498                           
  5499                           	psect	text22
  5500  0010E0                     __ptext22:
  5501                           	opt callstack 0
  5502  0010E0                     ___fladd:
  5503                           	opt callstack 22
  5504  0010E0  0100               	movlb	0	; () banked
  5505  0010E2  5183               	movf	(___fladd@b+3)& (0+255),w,b
  5506  0010E4  0B80               	andlw	128
  5507  0010E6  6F8C               	movwf	___fladd@signs& (0+255),b
  5508  0010E8  5183               	movf	(___fladd@b+3)& (0+255),w,b
  5509  0010EA  2583               	addwf	(___fladd@b+3)& (0+255),w,b
  5510  0010EC  6F8E               	movwf	___fladd@bexp& (0+255),b
  5511  0010EE                     
  5512                           ; BSR set to: 0
  5513  0010EE  AF82               	btfss	(___fladd@b+2)& (0+255),7,b
  5514  0010F0  EF7C  F008         	goto	u5271
  5515  0010F4  EF7E  F008         	goto	u5270
  5516  0010F8                     u5271:
  5517  0010F8  EF7F  F008         	goto	l4701
  5518  0010FC                     u5270:
  5519  0010FC                     
  5520                           ; BSR set to: 0
  5521  0010FC  818E               	bsf	___fladd@bexp& (0+255),0,b
  5522  0010FE                     l4701:
  5523                           
  5524                           ; BSR set to: 0
  5525  0010FE  518E               	movf	___fladd@bexp& (0+255),w,b
  5526  001100  B4D8               	btfsc	status,2,c
  5527  001102  EF85  F008         	goto	u5281
  5528  001106  EF87  F008         	goto	u5280
  5529  00110A                     u5281:
  5530  00110A  EF9C  F008         	goto	l4711
  5531  00110E                     u5280:
  5532  00110E                     
  5533                           ; BSR set to: 0
  5534  00110E  298E               	incf	___fladd@bexp& (0+255),w,b
  5535  001110  A4D8               	btfss	status,2,c
  5536  001112  EF8D  F008         	goto	u5291
  5537  001116  EF8F  F008         	goto	u5290
  5538  00111A                     u5291:
  5539  00111A  EF97  F008         	goto	l4707
  5540  00111E                     u5290:
  5541  00111E                     
  5542                           ; BSR set to: 0
  5543  00111E  0E00               	movlw	0
  5544  001120  6F80               	movwf	___fladd@b& (0+255),b
  5545  001122  0E00               	movlw	0
  5546  001124  6F81               	movwf	(___fladd@b+1)& (0+255),b
  5547  001126  0E00               	movlw	0
  5548  001128  6F82               	movwf	(___fladd@b+2)& (0+255),b
  5549  00112A  0E00               	movlw	0
  5550  00112C  6F83               	movwf	(___fladd@b+3)& (0+255),b
  5551  00112E                     l4707:
  5552                           
  5553                           ; BSR set to: 0
  5554  00112E  8F82               	bsf	(___fladd@b+2)& (0+255),7,b
  5555  001130                     
  5556                           ; BSR set to: 0
  5557  001130  0E00               	movlw	0
  5558  001132  6F83               	movwf	(___fladd@b+3)& (0+255),b
  5559  001134  EFA4  F008         	goto	l4713
  5560  001138                     l4711:
  5561                           
  5562                           ; BSR set to: 0
  5563  001138  0E00               	movlw	0
  5564  00113A  6F80               	movwf	___fladd@b& (0+255),b
  5565  00113C  0E00               	movlw	0
  5566  00113E  6F81               	movwf	(___fladd@b+1)& (0+255),b
  5567  001140  0E00               	movlw	0
  5568  001142  6F82               	movwf	(___fladd@b+2)& (0+255),b
  5569  001144  0E00               	movlw	0
  5570  001146  6F83               	movwf	(___fladd@b+3)& (0+255),b
  5571  001148                     l4713:
  5572                           
  5573                           ; BSR set to: 0
  5574  001148  5187               	movf	(___fladd@a+3)& (0+255),w,b
  5575  00114A  0B80               	andlw	128
  5576  00114C  6F8D               	movwf	___fladd@aexp& (0+255),b
  5577  00114E                     
  5578                           ; BSR set to: 0
  5579  00114E  518C               	movf	___fladd@signs& (0+255),w,b
  5580  001150  198D               	xorwf	___fladd@aexp& (0+255),w,b
  5581  001152  B4D8               	btfsc	status,2,c
  5582  001154  EFAE  F008         	goto	u5301
  5583  001158  EFB0  F008         	goto	u5300
  5584  00115C                     u5301:
  5585  00115C  EFB1  F008         	goto	l4719
  5586  001160                     u5300:
  5587  001160                     
  5588                           ; BSR set to: 0
  5589  001160  8D8C               	bsf	___fladd@signs& (0+255),6,b
  5590  001162                     l4719:
  5591                           
  5592                           ; BSR set to: 0
  5593  001162  5187               	movf	(___fladd@a+3)& (0+255),w,b
  5594  001164  2587               	addwf	(___fladd@a+3)& (0+255),w,b
  5595  001166  6F8D               	movwf	___fladd@aexp& (0+255),b
  5596  001168                     
  5597                           ; BSR set to: 0
  5598  001168  AF86               	btfss	(___fladd@a+2)& (0+255),7,b
  5599  00116A  EFB9  F008         	goto	u5311
  5600  00116E  EFBB  F008         	goto	u5310
  5601  001172                     u5311:
  5602  001172  EFBC  F008         	goto	l4725
  5603  001176                     u5310:
  5604  001176                     
  5605                           ; BSR set to: 0
  5606  001176  818D               	bsf	___fladd@aexp& (0+255),0,b
  5607  001178                     l4725:
  5608                           
  5609                           ; BSR set to: 0
  5610  001178  518D               	movf	___fladd@aexp& (0+255),w,b
  5611  00117A  B4D8               	btfsc	status,2,c
  5612  00117C  EFC2  F008         	goto	u5321
  5613  001180  EFC4  F008         	goto	u5320
  5614  001184                     u5321:
  5615  001184  EFD9  F008         	goto	l4735
  5616  001188                     u5320:
  5617  001188                     
  5618                           ; BSR set to: 0
  5619  001188  298D               	incf	___fladd@aexp& (0+255),w,b
  5620  00118A  A4D8               	btfss	status,2,c
  5621  00118C  EFCA  F008         	goto	u5331
  5622  001190  EFCC  F008         	goto	u5330
  5623  001194                     u5331:
  5624  001194  EFD4  F008         	goto	l4731
  5625  001198                     u5330:
  5626  001198                     
  5627                           ; BSR set to: 0
  5628  001198  0E00               	movlw	0
  5629  00119A  6F84               	movwf	___fladd@a& (0+255),b
  5630  00119C  0E00               	movlw	0
  5631  00119E  6F85               	movwf	(___fladd@a+1)& (0+255),b
  5632  0011A0  0E00               	movlw	0
  5633  0011A2  6F86               	movwf	(___fladd@a+2)& (0+255),b
  5634  0011A4  0E00               	movlw	0
  5635  0011A6  6F87               	movwf	(___fladd@a+3)& (0+255),b
  5636  0011A8                     l4731:
  5637                           
  5638                           ; BSR set to: 0
  5639  0011A8  8F86               	bsf	(___fladd@a+2)& (0+255),7,b
  5640  0011AA                     
  5641                           ; BSR set to: 0
  5642  0011AA  0E00               	movlw	0
  5643  0011AC  6F87               	movwf	(___fladd@a+3)& (0+255),b
  5644  0011AE  EFE1  F008         	goto	l4737
  5645  0011B2                     l4735:
  5646                           
  5647                           ; BSR set to: 0
  5648  0011B2  0E00               	movlw	0
  5649  0011B4  6F84               	movwf	___fladd@a& (0+255),b
  5650  0011B6  0E00               	movlw	0
  5651  0011B8  6F85               	movwf	(___fladd@a+1)& (0+255),b
  5652  0011BA  0E00               	movlw	0
  5653  0011BC  6F86               	movwf	(___fladd@a+2)& (0+255),b
  5654  0011BE  0E00               	movlw	0
  5655  0011C0  6F87               	movwf	(___fladd@a+3)& (0+255),b
  5656  0011C2                     l4737:
  5657                           
  5658                           ; BSR set to: 0
  5659  0011C2  518E               	movf	___fladd@bexp& (0+255),w,b
  5660  0011C4  5D8D               	subwf	___fladd@aexp& (0+255),w,b
  5661  0011C6  B0D8               	btfsc	status,0,c
  5662  0011C8  EFE8  F008         	goto	u5341
  5663  0011CC  EFEA  F008         	goto	u5340
  5664  0011D0                     u5341:
  5665  0011D0  EF11  F009         	goto	l4773
  5666  0011D4                     u5340:
  5667  0011D4                     
  5668                           ; BSR set to: 0
  5669  0011D4  AD8C               	btfss	___fladd@signs& (0+255),6,b
  5670  0011D6  EFEF  F008         	goto	u5351
  5671  0011DA  EFF1  F008         	goto	u5350
  5672  0011DE                     u5351:
  5673  0011DE  EFF3  F008         	goto	l4743
  5674  0011E2                     u5350:
  5675  0011E2                     
  5676                           ; BSR set to: 0
  5677  0011E2  0E80               	movlw	128
  5678  0011E4  1B8C               	xorwf	___fladd@signs& (0+255),f,b
  5679  0011E6                     l4743:
  5680                           
  5681                           ; BSR set to: 0
  5682  0011E6  C08E  F08F         	movff	___fladd@bexp,___fladd@grs
  5683  0011EA                     
  5684                           ; BSR set to: 0
  5685  0011EA  C08D  F08E         	movff	___fladd@aexp,___fladd@bexp
  5686  0011EE                     
  5687                           ; BSR set to: 0
  5688  0011EE  C08F  F08D         	movff	___fladd@grs,___fladd@aexp
  5689  0011F2                     
  5690                           ; BSR set to: 0
  5691  0011F2  C080  F08F         	movff	___fladd@b,___fladd@grs
  5692  0011F6                     
  5693                           ; BSR set to: 0
  5694  0011F6  C084  F080         	movff	___fladd@a,___fladd@b
  5695  0011FA                     
  5696                           ; BSR set to: 0
  5697  0011FA  C08F  F084         	movff	___fladd@grs,___fladd@a
  5698  0011FE                     
  5699                           ; BSR set to: 0
  5700  0011FE  C081  F08F         	movff	___fladd@b+1,___fladd@grs
  5701  001202                     
  5702                           ; BSR set to: 0
  5703  001202  C085  F081         	movff	___fladd@a+1,___fladd@b+1
  5704  001206                     
  5705                           ; BSR set to: 0
  5706  001206  C08F  F085         	movff	___fladd@grs,___fladd@a+1
  5707  00120A                     
  5708                           ; BSR set to: 0
  5709  00120A  C082  F08F         	movff	___fladd@b+2,___fladd@grs
  5710  00120E                     
  5711                           ; BSR set to: 0
  5712  00120E  C086  F082         	movff	___fladd@a+2,___fladd@b+2
  5713  001212                     
  5714                           ; BSR set to: 0
  5715  001212  C08F  F086         	movff	___fladd@grs,___fladd@a+2
  5716  001216                     
  5717                           ; BSR set to: 0
  5718  001216  C083  F08F         	movff	___fladd@b+3,___fladd@grs
  5719  00121A                     
  5720                           ; BSR set to: 0
  5721  00121A  C087  F083         	movff	___fladd@a+3,___fladd@b+3
  5722  00121E                     
  5723                           ; BSR set to: 0
  5724  00121E  C08F  F087         	movff	___fladd@grs,___fladd@a+3
  5725  001222                     l4773:
  5726                           
  5727                           ; BSR set to: 0
  5728  001222  0E00               	movlw	0
  5729  001224  6F8F               	movwf	___fladd@grs& (0+255),b
  5730  001226                     
  5731                           ; BSR set to: 0
  5732  001226  518E               	movf	___fladd@bexp& (0+255),w,b
  5733  001228  C08D  F088         	movff	___fladd@aexp,??___fladd
  5734  00122C  6B89               	clrf	(??___fladd+1)& (0+255),b
  5735  00122E  5F88               	subwf	??___fladd& (0+255),f,b
  5736  001230  0E00               	movlw	0
  5737  001232  5B89               	subwfb	(??___fladd+1)& (0+255),f,b
  5738  001234  BF89               	btfsc	(??___fladd+1)& (0+255),7,b
  5739  001236  EF26  F009         	goto	u5361
  5740  00123A  5189               	movf	(??___fladd+1)& (0+255),w,b
  5741  00123C  E109               	bnz	u5360
  5742  00123E  0E1A               	movlw	26
  5743  001240  5D88               	subwf	??___fladd& (0+255),w,b
  5744  001242  A0D8               	btfss	status,0,c
  5745  001244  EF26  F009         	goto	u5361
  5746  001248  EF28  F009         	goto	u5360
  5747  00124C                     u5361:
  5748  00124C  EF5F  F009         	goto	l1003
  5749  001250                     u5360:
  5750  001250                     
  5751                           ; BSR set to: 0
  5752  001250  5180               	movf	___fladd@b& (0+255),w,b
  5753  001252  1181               	iorwf	(___fladd@b+1)& (0+255),w,b
  5754  001254  1182               	iorwf	(___fladd@b+2)& (0+255),w,b
  5755  001256  1183               	iorwf	(___fladd@b+3)& (0+255),w,b
  5756  001258  A4D8               	btfss	status,2,c
  5757  00125A  EF31  F009         	goto	u5371
  5758  00125E  EF34  F009         	goto	u5370
  5759  001262                     u5371:
  5760  001262  0E01               	movlw	1
  5761  001264  EF35  F009         	goto	u5380
  5762  001268                     u5370:
  5763  001268  0E00               	movlw	0
  5764  00126A                     u5380:
  5765  00126A  6F8F               	movwf	___fladd@grs& (0+255),b
  5766  00126C                     
  5767                           ; BSR set to: 0
  5768  00126C  0E00               	movlw	0
  5769  00126E  6F80               	movwf	___fladd@b& (0+255),b
  5770  001270  0E00               	movlw	0
  5771  001272  6F81               	movwf	(___fladd@b+1)& (0+255),b
  5772  001274  0E00               	movlw	0
  5773  001276  6F82               	movwf	(___fladd@b+2)& (0+255),b
  5774  001278  0E00               	movlw	0
  5775  00127A  6F83               	movwf	(___fladd@b+3)& (0+255),b
  5776  00127C                     
  5777                           ; BSR set to: 0
  5778  00127C  C08D  F08E         	movff	___fladd@aexp,___fladd@bexp
  5779  001280  EF68  F009         	goto	l1002
  5780  001284                     l1004:
  5781                           
  5782                           ; BSR set to: 0
  5783  001284  A18F               	btfss	___fladd@grs& (0+255),0,b
  5784  001286  EF47  F009         	goto	u5391
  5785  00128A  EF49  F009         	goto	u5390
  5786  00128E                     u5391:
  5787  00128E  EF4F  F009         	goto	l4785
  5788  001292                     u5390:
  5789  001292                     
  5790                           ; BSR set to: 0
  5791  001292  90D8               	bcf	status,0,c
  5792  001294  318F               	rrcf	___fladd@grs& (0+255),w,b
  5793  001296  0901               	iorlw	1
  5794  001298  6F8F               	movwf	___fladd@grs& (0+255),b
  5795  00129A  EF51  F009         	goto	l4787
  5796  00129E                     l4785:
  5797                           
  5798                           ; BSR set to: 0
  5799  00129E  90D8               	bcf	status,0,c
  5800  0012A0  338F               	rrcf	___fladd@grs& (0+255),f,b
  5801  0012A2                     l4787:
  5802                           
  5803                           ; BSR set to: 0
  5804  0012A2  A180               	btfss	___fladd@b& (0+255),0,b
  5805  0012A4  EF56  F009         	goto	u5401
  5806  0012A8  EF58  F009         	goto	u5400
  5807  0012AC                     u5401:
  5808  0012AC  EF59  F009         	goto	l4791
  5809  0012B0                     u5400:
  5810  0012B0                     
  5811                           ; BSR set to: 0
  5812  0012B0  8F8F               	bsf	___fladd@grs& (0+255),7,b
  5813  0012B2                     l4791:
  5814                           
  5815                           ; BSR set to: 0
  5816  0012B2  3583               	rlcf	(___fladd@b+3)& (0+255),w,b
  5817  0012B4  3383               	rrcf	(___fladd@b+3)& (0+255),f,b
  5818  0012B6  3382               	rrcf	(___fladd@b+2)& (0+255),f,b
  5819  0012B8  3381               	rrcf	(___fladd@b+1)& (0+255),f,b
  5820  0012BA  3380               	rrcf	___fladd@b& (0+255),f,b
  5821  0012BC                     
  5822                           ; BSR set to: 0
  5823  0012BC  2B8E               	incf	___fladd@bexp& (0+255),f,b
  5824  0012BE                     l1003:
  5825                           
  5826                           ; BSR set to: 0
  5827  0012BE  518D               	movf	___fladd@aexp& (0+255),w,b
  5828  0012C0  5D8E               	subwf	___fladd@bexp& (0+255),w,b
  5829  0012C2  A0D8               	btfss	status,0,c
  5830  0012C4  EF66  F009         	goto	u5411
  5831  0012C8  EF68  F009         	goto	u5410
  5832  0012CC                     u5411:
  5833  0012CC  EF42  F009         	goto	l1004
  5834  0012D0                     u5410:
  5835  0012D0                     l1002:
  5836                           
  5837                           ; BSR set to: 0
  5838  0012D0  BD8C               	btfsc	___fladd@signs& (0+255),6,b
  5839  0012D2  EF6D  F009         	goto	u5421
  5840  0012D6  EF6F  F009         	goto	u5420
  5841  0012DA                     u5421:
  5842  0012DA  EFAF  F009         	goto	l4819
  5843  0012DE                     u5420:
  5844  0012DE                     
  5845                           ; BSR set to: 0
  5846  0012DE  518E               	movf	___fladd@bexp& (0+255),w,b
  5847  0012E0  A4D8               	btfss	status,2,c
  5848  0012E2  EF75  F009         	goto	u5431
  5849  0012E6  EF77  F009         	goto	u5430
  5850  0012EA                     u5431:
  5851  0012EA  EF81  F009         	goto	l4801
  5852  0012EE                     u5430:
  5853  0012EE                     
  5854                           ; BSR set to: 0
  5855  0012EE  0E00               	movlw	0
  5856  0012F0  6F80               	movwf	?___fladd& (0+255),b
  5857  0012F2  0E00               	movlw	0
  5858  0012F4  6F81               	movwf	(?___fladd+1)& (0+255),b
  5859  0012F6  0E00               	movlw	0
  5860  0012F8  6F82               	movwf	(?___fladd+2)& (0+255),b
  5861  0012FA  0E00               	movlw	0
  5862  0012FC  6F83               	movwf	(?___fladd+3)& (0+255),b
  5863  0012FE  EFD0  F00A         	goto	l1011
  5864  001302                     l4801:
  5865                           
  5866                           ; BSR set to: 0
  5867  001302  5184               	movf	___fladd@a& (0+255),w,b
  5868  001304  2780               	addwf	___fladd@b& (0+255),f,b
  5869  001306  5185               	movf	(___fladd@a+1)& (0+255),w,b
  5870  001308  2381               	addwfc	(___fladd@b+1)& (0+255),f,b
  5871  00130A  5186               	movf	(___fladd@a+2)& (0+255),w,b
  5872  00130C  2382               	addwfc	(___fladd@b+2)& (0+255),f,b
  5873  00130E  5187               	movf	(___fladd@a+3)& (0+255),w,b
  5874  001310  2383               	addwfc	(___fladd@b+3)& (0+255),f,b
  5875  001312                     
  5876                           ; BSR set to: 0
  5877  001312  A183               	btfss	(___fladd@b+3)& (0+255),0,b
  5878  001314  EF8E  F009         	goto	u5441
  5879  001318  EF90  F009         	goto	u5440
  5880  00131C                     u5441:
  5881  00131C  EF3C  F00A         	goto	l4855
  5882  001320                     u5440:
  5883  001320                     
  5884                           ; BSR set to: 0
  5885  001320  A18F               	btfss	___fladd@grs& (0+255),0,b
  5886  001322  EF95  F009         	goto	u5451
  5887  001326  EF97  F009         	goto	u5450
  5888  00132A                     u5451:
  5889  00132A  EF9D  F009         	goto	l4809
  5890  00132E                     u5450:
  5891  00132E                     
  5892                           ; BSR set to: 0
  5893  00132E  90D8               	bcf	status,0,c
  5894  001330  318F               	rrcf	___fladd@grs& (0+255),w,b
  5895  001332  0901               	iorlw	1
  5896  001334  6F8F               	movwf	___fladd@grs& (0+255),b
  5897  001336  EF9F  F009         	goto	l4811
  5898  00133A                     l4809:
  5899                           
  5900                           ; BSR set to: 0
  5901  00133A  90D8               	bcf	status,0,c
  5902  00133C  338F               	rrcf	___fladd@grs& (0+255),f,b
  5903  00133E                     l4811:
  5904                           
  5905                           ; BSR set to: 0
  5906  00133E  A180               	btfss	___fladd@b& (0+255),0,b
  5907  001340  EFA4  F009         	goto	u5461
  5908  001344  EFA6  F009         	goto	u5460
  5909  001348                     u5461:
  5910  001348  EFA7  F009         	goto	l4815
  5911  00134C                     u5460:
  5912  00134C                     
  5913                           ; BSR set to: 0
  5914  00134C  8F8F               	bsf	___fladd@grs& (0+255),7,b
  5915  00134E                     l4815:
  5916                           
  5917                           ; BSR set to: 0
  5918  00134E  3583               	rlcf	(___fladd@b+3)& (0+255),w,b
  5919  001350  3383               	rrcf	(___fladd@b+3)& (0+255),f,b
  5920  001352  3382               	rrcf	(___fladd@b+2)& (0+255),f,b
  5921  001354  3381               	rrcf	(___fladd@b+1)& (0+255),f,b
  5922  001356  3380               	rrcf	___fladd@b& (0+255),f,b
  5923  001358                     
  5924                           ; BSR set to: 0
  5925  001358  2B8E               	incf	___fladd@bexp& (0+255),f,b
  5926  00135A  EF3C  F00A         	goto	l4855
  5927  00135E                     l4819:
  5928                           
  5929                           ; BSR set to: 0
  5930  00135E  5184               	movf	___fladd@a& (0+255),w,b
  5931  001360  5D80               	subwf	___fladd@b& (0+255),w,b
  5932  001362  5185               	movf	(___fladd@a+1)& (0+255),w,b
  5933  001364  5981               	subwfb	(___fladd@b+1)& (0+255),w,b
  5934  001366  5186               	movf	(___fladd@a+2)& (0+255),w,b
  5935  001368  5982               	subwfb	(___fladd@b+2)& (0+255),w,b
  5936  00136A  5183               	movf	(___fladd@b+3)& (0+255),w,b
  5937  00136C  0A80               	xorlw	128
  5938  00136E  6F88               	movwf	??___fladd& (0+255),b
  5939  001370  5187               	movf	(___fladd@a+3)& (0+255),w,b
  5940  001372  0A80               	xorlw	128
  5941  001374  5988               	subwfb	??___fladd& (0+255),w,b
  5942  001376  B0D8               	btfsc	status,0,c
  5943  001378  EFC0  F009         	goto	u5471
  5944  00137C  EFC2  F009         	goto	u5470
  5945  001380                     u5471:
  5946  001380  EFED  F009         	goto	l4829
  5947  001384                     u5470:
  5948  001384                     
  5949                           ; BSR set to: 0
  5950  001384  5180               	movf	___fladd@b& (0+255),w,b
  5951  001386  5D84               	subwf	___fladd@a& (0+255),w,b
  5952  001388  6F88               	movwf	??___fladd& (0+255),b
  5953  00138A  5181               	movf	(___fladd@b+1)& (0+255),w,b
  5954  00138C  5985               	subwfb	(___fladd@a+1)& (0+255),w,b
  5955  00138E  6F89               	movwf	(??___fladd+1)& (0+255),b
  5956  001390  5182               	movf	(___fladd@b+2)& (0+255),w,b
  5957  001392  5986               	subwfb	(___fladd@a+2)& (0+255),w,b
  5958  001394  6F8A               	movwf	(??___fladd+2)& (0+255),b
  5959  001396  5183               	movf	(___fladd@b+3)& (0+255),w,b
  5960  001398  5987               	subwfb	(___fladd@a+3)& (0+255),w,b
  5961  00139A  6F8B               	movwf	(??___fladd+3)& (0+255),b
  5962  00139C  0EFF               	movlw	255
  5963  00139E  2588               	addwf	??___fladd& (0+255),w,b
  5964  0013A0  6F80               	movwf	___fladd@b& (0+255),b
  5965  0013A2  0EFF               	movlw	255
  5966  0013A4  2189               	addwfc	(??___fladd+1)& (0+255),w,b
  5967  0013A6  6F81               	movwf	(___fladd@b+1)& (0+255),b
  5968  0013A8  0EFF               	movlw	255
  5969  0013AA  218A               	addwfc	(??___fladd+2)& (0+255),w,b
  5970  0013AC  6F82               	movwf	(___fladd@b+2)& (0+255),b
  5971  0013AE  0EFF               	movlw	255
  5972  0013B0  218B               	addwfc	(??___fladd+3)& (0+255),w,b
  5973  0013B2  6F83               	movwf	(___fladd@b+3)& (0+255),b
  5974  0013B4  0E80               	movlw	128
  5975  0013B6  1B8C               	xorwf	___fladd@signs& (0+255),f,b
  5976  0013B8                     
  5977                           ; BSR set to: 0
  5978  0013B8  6D8F               	negf	___fladd@grs& (0+255),b
  5979  0013BA                     
  5980                           ; BSR set to: 0
  5981  0013BA  518F               	movf	___fladd@grs& (0+255),w,b
  5982  0013BC  A4D8               	btfss	status,2,c
  5983  0013BE  EFE3  F009         	goto	u5481
  5984  0013C2  EFE5  F009         	goto	u5480
  5985  0013C6                     u5481:
  5986  0013C6  EFF5  F009         	goto	l1019
  5987  0013CA                     u5480:
  5988  0013CA                     
  5989                           ; BSR set to: 0
  5990  0013CA  0E01               	movlw	1
  5991  0013CC  2780               	addwf	___fladd@b& (0+255),f,b
  5992  0013CE  0E00               	movlw	0
  5993  0013D0  2381               	addwfc	(___fladd@b+1)& (0+255),f,b
  5994  0013D2  2382               	addwfc	(___fladd@b+2)& (0+255),f,b
  5995  0013D4  2383               	addwfc	(___fladd@b+3)& (0+255),f,b
  5996  0013D6  EFF5  F009         	goto	l1019
  5997  0013DA                     l4829:
  5998                           
  5999                           ; BSR set to: 0
  6000  0013DA  5184               	movf	___fladd@a& (0+255),w,b
  6001  0013DC  5F80               	subwf	___fladd@b& (0+255),f,b
  6002  0013DE  5185               	movf	(___fladd@a+1)& (0+255),w,b
  6003  0013E0  5B81               	subwfb	(___fladd@b+1)& (0+255),f,b
  6004  0013E2  5186               	movf	(___fladd@a+2)& (0+255),w,b
  6005  0013E4  5B82               	subwfb	(___fladd@b+2)& (0+255),f,b
  6006  0013E6  5187               	movf	(___fladd@a+3)& (0+255),w,b
  6007  0013E8  5B83               	subwfb	(___fladd@b+3)& (0+255),f,b
  6008  0013EA                     l1019:
  6009                           
  6010                           ; BSR set to: 0
  6011  0013EA  5180               	movf	___fladd@b& (0+255),w,b
  6012  0013EC  1181               	iorwf	(___fladd@b+1)& (0+255),w,b
  6013  0013EE  1182               	iorwf	(___fladd@b+2)& (0+255),w,b
  6014  0013F0  1183               	iorwf	(___fladd@b+3)& (0+255),w,b
  6015  0013F2  A4D8               	btfss	status,2,c
  6016  0013F4  EFFE  F009         	goto	u5491
  6017  0013F8  EF00  F00A         	goto	u5490
  6018  0013FC                     u5491:
  6019  0013FC  EF35  F00A         	goto	l4853
  6020  001400                     u5490:
  6021  001400                     
  6022                           ; BSR set to: 0
  6023  001400  518F               	movf	___fladd@grs& (0+255),w,b
  6024  001402  A4D8               	btfss	status,2,c
  6025  001404  EF06  F00A         	goto	u5501
  6026  001408  EF08  F00A         	goto	u5500
  6027  00140C                     u5501:
  6028  00140C  EF35  F00A         	goto	l4853
  6029  001410                     u5500:
  6030  001410                     
  6031                           ; BSR set to: 0
  6032  001410  0E00               	movlw	0
  6033  001412  6F80               	movwf	?___fladd& (0+255),b
  6034  001414  0E00               	movlw	0
  6035  001416  6F81               	movwf	(?___fladd+1)& (0+255),b
  6036  001418  0E00               	movlw	0
  6037  00141A  6F82               	movwf	(?___fladd+2)& (0+255),b
  6038  00141C  0E00               	movlw	0
  6039  00141E  6F83               	movwf	(?___fladd+3)& (0+255),b
  6040  001420  EFD0  F00A         	goto	l1011
  6041  001424                     l4837:
  6042                           
  6043                           ; BSR set to: 0
  6044  001424  90D8               	bcf	status,0,c
  6045  001426  3780               	rlcf	___fladd@b& (0+255),f,b
  6046  001428  3781               	rlcf	(___fladd@b+1)& (0+255),f,b
  6047  00142A  3782               	rlcf	(___fladd@b+2)& (0+255),f,b
  6048  00142C  3783               	rlcf	(___fladd@b+3)& (0+255),f,b
  6049  00142E                     
  6050                           ; BSR set to: 0
  6051  00142E  AF8F               	btfss	___fladd@grs& (0+255),7,b
  6052  001430  EF1C  F00A         	goto	u5511
  6053  001434  EF1E  F00A         	goto	u5510
  6054  001438                     u5511:
  6055  001438  EF1F  F00A         	goto	l4843
  6056  00143C                     u5510:
  6057  00143C                     
  6058                           ; BSR set to: 0
  6059  00143C  8180               	bsf	___fladd@b& (0+255),0,b
  6060  00143E                     l4843:
  6061                           
  6062                           ; BSR set to: 0
  6063  00143E  A18F               	btfss	___fladd@grs& (0+255),0,b
  6064  001440  EF24  F00A         	goto	u5521
  6065  001444  EF26  F00A         	goto	u5520
  6066  001448                     u5521:
  6067  001448  EF2A  F00A         	goto	l4847
  6068  00144C                     u5520:
  6069  00144C                     
  6070                           ; BSR set to: 0
  6071  00144C  80D8               	bsf	status,0,c
  6072  00144E  378F               	rlcf	___fladd@grs& (0+255),f,b
  6073  001450  EF2C  F00A         	goto	l4849
  6074  001454                     l4847:
  6075                           
  6076                           ; BSR set to: 0
  6077  001454  90D8               	bcf	status,0,c
  6078  001456  378F               	rlcf	___fladd@grs& (0+255),f,b
  6079  001458                     l4849:
  6080                           
  6081                           ; BSR set to: 0
  6082  001458  518E               	movf	___fladd@bexp& (0+255),w,b
  6083  00145A  B4D8               	btfsc	status,2,c
  6084  00145C  EF32  F00A         	goto	u5531
  6085  001460  EF34  F00A         	goto	u5530
  6086  001464                     u5531:
  6087  001464  EF35  F00A         	goto	l4853
  6088  001468                     u5530:
  6089  001468                     
  6090                           ; BSR set to: 0
  6091  001468  078E               	decf	___fladd@bexp& (0+255),f,b
  6092  00146A                     l4853:
  6093                           
  6094                           ; BSR set to: 0
  6095  00146A  AF82               	btfss	(___fladd@b+2)& (0+255),7,b
  6096  00146C  EF3A  F00A         	goto	u5541
  6097  001470  EF3C  F00A         	goto	u5540
  6098  001474                     u5541:
  6099  001474  EF12  F00A         	goto	l4837
  6100  001478                     u5540:
  6101  001478                     l4855:
  6102                           
  6103                           ; BSR set to: 0
  6104  001478  0E00               	movlw	0
  6105  00147A  6F8D               	movwf	___fladd@aexp& (0+255),b
  6106  00147C                     
  6107                           ; BSR set to: 0
  6108  00147C  AF8F               	btfss	___fladd@grs& (0+255),7,b
  6109  00147E  EF43  F00A         	goto	u5551
  6110  001482  EF45  F00A         	goto	u5550
  6111  001486                     u5551:
  6112  001486  EF5D  F00A         	goto	l1028
  6113  00148A                     u5550:
  6114  00148A                     
  6115                           ; BSR set to: 0
  6116  00148A  C08F  F088         	movff	___fladd@grs,??___fladd
  6117  00148E  0E7F               	movlw	127
  6118  001490  1788               	andwf	??___fladd& (0+255),f,b
  6119  001492  B4D8               	btfsc	status,2,c
  6120  001494  EF4E  F00A         	goto	u5561
  6121  001498  EF50  F00A         	goto	u5560
  6122  00149C                     u5561:
  6123  00149C  EF54  F00A         	goto	l1029
  6124  0014A0                     u5560:
  6125  0014A0                     l4861:
  6126                           
  6127                           ; BSR set to: 0
  6128  0014A0  0E01               	movlw	1
  6129  0014A2  6F8D               	movwf	___fladd@aexp& (0+255),b
  6130  0014A4  EF5D  F00A         	goto	l1028
  6131  0014A8                     l1029:
  6132                           
  6133                           ; BSR set to: 0
  6134  0014A8  A180               	btfss	___fladd@b& (0+255),0,b
  6135  0014AA  EF59  F00A         	goto	u5571
  6136  0014AE  EF5B  F00A         	goto	u5570
  6137  0014B2                     u5571:
  6138  0014B2  EF5D  F00A         	goto	l1028
  6139  0014B6                     u5570:
  6140  0014B6  EF50  F00A         	goto	l4861
  6141  0014BA                     l1028:
  6142                           
  6143                           ; BSR set to: 0
  6144  0014BA  518D               	movf	___fladd@aexp& (0+255),w,b
  6145  0014BC  B4D8               	btfsc	status,2,c
  6146  0014BE  EF63  F00A         	goto	u5581
  6147  0014C2  EF65  F00A         	goto	u5580
  6148  0014C6                     u5581:
  6149  0014C6  EF90  F00A         	goto	l4873
  6150  0014CA                     u5580:
  6151  0014CA                     
  6152                           ; BSR set to: 0
  6153  0014CA  0E01               	movlw	1
  6154  0014CC  2780               	addwf	___fladd@b& (0+255),f,b
  6155  0014CE  0E00               	movlw	0
  6156  0014D0  2381               	addwfc	(___fladd@b+1)& (0+255),f,b
  6157  0014D2  2382               	addwfc	(___fladd@b+2)& (0+255),f,b
  6158  0014D4  2383               	addwfc	(___fladd@b+3)& (0+255),f,b
  6159  0014D6                     
  6160                           ; BSR set to: 0
  6161  0014D6  A183               	btfss	(___fladd@b+3)& (0+255),0,b
  6162  0014D8  EF70  F00A         	goto	u5591
  6163  0014DC  EF72  F00A         	goto	u5590
  6164  0014E0                     u5591:
  6165  0014E0  EF90  F00A         	goto	l4873
  6166  0014E4                     u5590:
  6167  0014E4                     
  6168                           ; BSR set to: 0
  6169  0014E4  C080  F088         	movff	___fladd@b,??___fladd
  6170  0014E8  C081  F089         	movff	___fladd@b+1,??___fladd+1
  6171  0014EC  C082  F08A         	movff	___fladd@b+2,??___fladd+2
  6172  0014F0  C083  F08B         	movff	___fladd@b+3,??___fladd+3
  6173  0014F4  358B               	rlcf	(??___fladd+3)& (0+255),w,b
  6174  0014F6  338B               	rrcf	(??___fladd+3)& (0+255),f,b
  6175  0014F8  338A               	rrcf	(??___fladd+2)& (0+255),f,b
  6176  0014FA  3389               	rrcf	(??___fladd+1)& (0+255),f,b
  6177  0014FC  3388               	rrcf	??___fladd& (0+255),f,b
  6178  0014FE  C088  F080         	movff	??___fladd,___fladd@b
  6179  001502  C089  F081         	movff	??___fladd+1,___fladd@b+1
  6180  001506  C08A  F082         	movff	??___fladd+2,___fladd@b+2
  6181  00150A  C08B  F083         	movff	??___fladd+3,___fladd@b+3
  6182  00150E  298E               	incf	___fladd@bexp& (0+255),w,b
  6183  001510  B4D8               	btfsc	status,2,c
  6184  001512  EF8D  F00A         	goto	u5601
  6185  001516  EF8F  F00A         	goto	u5600
  6186  00151A                     u5601:
  6187  00151A  EF90  F00A         	goto	l4873
  6188  00151E                     u5600:
  6189  00151E                     
  6190                           ; BSR set to: 0
  6191  00151E  2B8E               	incf	___fladd@bexp& (0+255),f,b
  6192  001520                     l4873:
  6193                           
  6194                           ; BSR set to: 0
  6195  001520  298E               	incf	___fladd@bexp& (0+255),w,b
  6196  001522  B4D8               	btfsc	status,2,c
  6197  001524  EF96  F00A         	goto	u5611
  6198  001528  EF98  F00A         	goto	u5610
  6199  00152C                     u5611:
  6200  00152C  EFA0  F00A         	goto	l4877
  6201  001530                     u5610:
  6202  001530                     
  6203                           ; BSR set to: 0
  6204  001530  518E               	movf	___fladd@bexp& (0+255),w,b
  6205  001532  A4D8               	btfss	status,2,c
  6206  001534  EF9E  F00A         	goto	u5621
  6207  001538  EFA0  F00A         	goto	u5620
  6208  00153C                     u5621:
  6209  00153C  EFB2  F00A         	goto	l4881
  6210  001540                     u5620:
  6211  001540                     l4877:
  6212                           
  6213                           ; BSR set to: 0
  6214  001540  0E00               	movlw	0
  6215  001542  6F80               	movwf	___fladd@b& (0+255),b
  6216  001544  0E00               	movlw	0
  6217  001546  6F81               	movwf	(___fladd@b+1)& (0+255),b
  6218  001548  0E00               	movlw	0
  6219  00154A  6F82               	movwf	(___fladd@b+2)& (0+255),b
  6220  00154C  0E00               	movlw	0
  6221  00154E  6F83               	movwf	(___fladd@b+3)& (0+255),b
  6222  001550  518E               	movf	___fladd@bexp& (0+255),w,b
  6223  001552  A4D8               	btfss	status,2,c
  6224  001554  EFAE  F00A         	goto	u5631
  6225  001558  EFB0  F00A         	goto	u5630
  6226  00155C                     u5631:
  6227  00155C  EFB2  F00A         	goto	l4881
  6228  001560                     u5630:
  6229  001560                     
  6230                           ; BSR set to: 0
  6231  001560  0E00               	movlw	0
  6232  001562  6F8C               	movwf	___fladd@signs& (0+255),b
  6233  001564                     l4881:
  6234                           
  6235                           ; BSR set to: 0
  6236  001564  A18E               	btfss	___fladd@bexp& (0+255),0,b
  6237  001566  EFB7  F00A         	goto	u5641
  6238  00156A  EFB9  F00A         	goto	u5640
  6239  00156E                     u5641:
  6240  00156E  EFBC  F00A         	goto	l4885
  6241  001572                     u5640:
  6242  001572                     
  6243                           ; BSR set to: 0
  6244  001572  8F82               	bsf	(___fladd@b+2)& (0+255),7,b
  6245  001574  EFBD  F00A         	goto	l4887
  6246  001578                     l4885:
  6247                           
  6248                           ; BSR set to: 0
  6249  001578  9F82               	bcf	(___fladd@b+2)& (0+255),7,b
  6250  00157A                     l4887:
  6251                           
  6252                           ; BSR set to: 0
  6253  00157A  90D8               	bcf	status,0,c
  6254  00157C  318E               	rrcf	___fladd@bexp& (0+255),w,b
  6255  00157E  6F83               	movwf	(___fladd@b+3)& (0+255),b
  6256  001580                     
  6257                           ; BSR set to: 0
  6258  001580  AF8C               	btfss	___fladd@signs& (0+255),7,b
  6259  001582  EFC5  F00A         	goto	u5651
  6260  001586  EFC7  F00A         	goto	u5650
  6261  00158A                     u5651:
  6262  00158A  EFC8  F00A         	goto	l4893
  6263  00158E                     u5650:
  6264  00158E                     
  6265                           ; BSR set to: 0
  6266  00158E  8F83               	bsf	(___fladd@b+3)& (0+255),7,b
  6267  001590                     l4893:
  6268                           
  6269                           ; BSR set to: 0
  6270  001590  C080  F080         	movff	___fladd@b,?___fladd
  6271  001594  C081  F081         	movff	___fladd@b+1,?___fladd+1
  6272  001598  C082  F082         	movff	___fladd@b+2,?___fladd+2
  6273  00159C  C083  F083         	movff	___fladd@b+3,?___fladd+3
  6274  0015A0                     l1011:
  6275                           
  6276                           ; BSR set to: 0
  6277  0015A0  0012               	return		;funcret
  6278  0015A2                     __end_of___fladd:
  6279                           	opt callstack 0
  6280                           
  6281 ;; *************** function ___flmul *****************
  6282 ;; Defined at:
  6283 ;;		line 8 in file "C:\Program Files (x86)\Microchip\xc8\v2.10\pic\sources\c99\common\sprcmul.c"
  6284 ;; Parameters:    Size  Location     Type
  6285 ;;  b               4   32[BANK0 ] unsigned char 
  6286 ;;  a               4   36[BANK0 ] unsigned char 
  6287 ;; Auto vars:     Size  Location     Type
  6288 ;;  prod            4   51[BANK0 ] struct .
  6289 ;;  grs             4   46[BANK0 ] unsigned long 
  6290 ;;  temp            2   55[BANK0 ] struct .
  6291 ;;  bexp            1   50[BANK0 ] unsigned char 
  6292 ;;  aexp            1   45[BANK0 ] unsigned char 
  6293 ;;  sign            1   44[BANK0 ] unsigned char 
  6294 ;; Return value:  Size  Location     Type
  6295 ;;                  4   32[BANK0 ] unsigned char 
  6296 ;; Registers used:
  6297 ;;		wreg, status,2, status,0, prodl, prodh
  6298 ;; Tracked objects:
  6299 ;;		On entry : 0/0
  6300 ;;		On exit  : 0/0
  6301 ;;		Unchanged: 0/0
  6302 ;; Data sizes:     COMRAM   BANK0   BANK1   BANK2   BANK3   BANK4   BANK5
  6303 ;;      Params:         0       8       0       0       0       0       0
  6304 ;;      Locals:         0      13       0       0       0       0       0
  6305 ;;      Temps:          0       4       0       0       0       0       0
  6306 ;;      Totals:         0      25       0       0       0       0       0
  6307 ;;Total ram usage:       25 bytes
  6308 ;; Hardware stack levels used:    1
  6309 ;; Hardware stack levels required when called:    5
  6310 ;; This function calls:
  6311 ;;		Nothing
  6312 ;; This function is called by:
  6313 ;;		_I2C_timer_prescaler
  6314 ;; This function uses a non-reentrant model
  6315 ;;
  6316                           
  6317                           	psect	text23
  6318  0015A2                     __ptext23:
  6319                           	opt callstack 0
  6320  0015A2                     ___flmul:
  6321                           	opt callstack 23
  6322  0015A2  0100               	movlb	0	; () banked
  6323  0015A4  5183               	movf	(___flmul@b+3)& (0+255),w,b
  6324  0015A6  0B80               	andlw	128
  6325  0015A8  6F8C               	movwf	___flmul@sign& (0+255),b
  6326  0015AA  5183               	movf	(___flmul@b+3)& (0+255),w,b
  6327  0015AC  2583               	addwf	(___flmul@b+3)& (0+255),w,b
  6328  0015AE  6F92               	movwf	___flmul@bexp& (0+255),b
  6329  0015B0                     
  6330                           ; BSR set to: 0
  6331  0015B0  AF82               	btfss	(___flmul@b+2)& (0+255),7,b
  6332  0015B2  EFDD  F00A         	goto	u6051
  6333  0015B6  EFDF  F00A         	goto	u6050
  6334  0015BA                     u6051:
  6335  0015BA  EFE0  F00A         	goto	l5169
  6336  0015BE                     u6050:
  6337  0015BE                     
  6338                           ; BSR set to: 0
  6339  0015BE  8192               	bsf	___flmul@bexp& (0+255),0,b
  6340  0015C0                     l5169:
  6341                           
  6342                           ; BSR set to: 0
  6343  0015C0  5192               	movf	___flmul@bexp& (0+255),w,b
  6344  0015C2  B4D8               	btfsc	status,2,c
  6345  0015C4  EFE6  F00A         	goto	u6061
  6346  0015C8  EFE8  F00A         	goto	u6060
  6347  0015CC                     u6061:
  6348  0015CC  EFFB  F00A         	goto	l5177
  6349  0015D0                     u6060:
  6350  0015D0                     
  6351                           ; BSR set to: 0
  6352  0015D0  2992               	incf	___flmul@bexp& (0+255),w,b
  6353  0015D2  A4D8               	btfss	status,2,c
  6354  0015D4  EFEE  F00A         	goto	u6071
  6355  0015D8  EFF0  F00A         	goto	u6070
  6356  0015DC                     u6071:
  6357  0015DC  EFF8  F00A         	goto	l5175
  6358  0015E0                     u6070:
  6359  0015E0                     
  6360                           ; BSR set to: 0
  6361  0015E0  0E00               	movlw	0
  6362  0015E2  6F80               	movwf	___flmul@b& (0+255),b
  6363  0015E4  0E00               	movlw	0
  6364  0015E6  6F81               	movwf	(___flmul@b+1)& (0+255),b
  6365  0015E8  0E00               	movlw	0
  6366  0015EA  6F82               	movwf	(___flmul@b+2)& (0+255),b
  6367  0015EC  0E00               	movlw	0
  6368  0015EE  6F83               	movwf	(___flmul@b+3)& (0+255),b
  6369  0015F0                     l5175:
  6370                           
  6371                           ; BSR set to: 0
  6372  0015F0  8F82               	bsf	(___flmul@b+2)& (0+255),7,b
  6373  0015F2  EF03  F00B         	goto	l5179
  6374  0015F6                     l5177:
  6375                           
  6376                           ; BSR set to: 0
  6377  0015F6  0E00               	movlw	0
  6378  0015F8  6F80               	movwf	___flmul@b& (0+255),b
  6379  0015FA  0E00               	movlw	0
  6380  0015FC  6F81               	movwf	(___flmul@b+1)& (0+255),b
  6381  0015FE  0E00               	movlw	0
  6382  001600  6F82               	movwf	(___flmul@b+2)& (0+255),b
  6383  001602  0E00               	movlw	0
  6384  001604  6F83               	movwf	(___flmul@b+3)& (0+255),b
  6385  001606                     l5179:
  6386                           
  6387                           ; BSR set to: 0
  6388  001606  5187               	movf	(___flmul@a+3)& (0+255),w,b
  6389  001608  0B80               	andlw	128
  6390  00160A  1B8C               	xorwf	___flmul@sign& (0+255),f,b
  6391  00160C                     
  6392                           ; BSR set to: 0
  6393  00160C  5187               	movf	(___flmul@a+3)& (0+255),w,b
  6394  00160E  2587               	addwf	(___flmul@a+3)& (0+255),w,b
  6395  001610  6F8D               	movwf	___flmul@aexp& (0+255),b
  6396  001612                     
  6397                           ; BSR set to: 0
  6398  001612  AF86               	btfss	(___flmul@a+2)& (0+255),7,b
  6399  001614  EF0E  F00B         	goto	u6081
  6400  001618  EF10  F00B         	goto	u6080
  6401  00161C                     u6081:
  6402  00161C  EF11  F00B         	goto	l5187
  6403  001620                     u6080:
  6404  001620                     
  6405                           ; BSR set to: 0
  6406  001620  818D               	bsf	___flmul@aexp& (0+255),0,b
  6407  001622                     l5187:
  6408                           
  6409                           ; BSR set to: 0
  6410  001622  518D               	movf	___flmul@aexp& (0+255),w,b
  6411  001624  B4D8               	btfsc	status,2,c
  6412  001626  EF17  F00B         	goto	u6091
  6413  00162A  EF19  F00B         	goto	u6090
  6414  00162E                     u6091:
  6415  00162E  EF2C  F00B         	goto	l5195
  6416  001632                     u6090:
  6417  001632                     
  6418                           ; BSR set to: 0
  6419  001632  298D               	incf	___flmul@aexp& (0+255),w,b
  6420  001634  A4D8               	btfss	status,2,c
  6421  001636  EF1F  F00B         	goto	u6101
  6422  00163A  EF21  F00B         	goto	u6100
  6423  00163E                     u6101:
  6424  00163E  EF29  F00B         	goto	l5193
  6425  001642                     u6100:
  6426  001642                     
  6427                           ; BSR set to: 0
  6428  001642  0E00               	movlw	0
  6429  001644  6F84               	movwf	___flmul@a& (0+255),b
  6430  001646  0E00               	movlw	0
  6431  001648  6F85               	movwf	(___flmul@a+1)& (0+255),b
  6432  00164A  0E00               	movlw	0
  6433  00164C  6F86               	movwf	(___flmul@a+2)& (0+255),b
  6434  00164E  0E00               	movlw	0
  6435  001650  6F87               	movwf	(___flmul@a+3)& (0+255),b
  6436  001652                     l5193:
  6437                           
  6438                           ; BSR set to: 0
  6439  001652  8F86               	bsf	(___flmul@a+2)& (0+255),7,b
  6440  001654  EF34  F00B         	goto	l1088
  6441  001658                     l5195:
  6442                           
  6443                           ; BSR set to: 0
  6444  001658  0E00               	movlw	0
  6445  00165A  6F84               	movwf	___flmul@a& (0+255),b
  6446  00165C  0E00               	movlw	0
  6447  00165E  6F85               	movwf	(___flmul@a+1)& (0+255),b
  6448  001660  0E00               	movlw	0
  6449  001662  6F86               	movwf	(___flmul@a+2)& (0+255),b
  6450  001664  0E00               	movlw	0
  6451  001666  6F87               	movwf	(___flmul@a+3)& (0+255),b
  6452  001668                     l1088:
  6453                           
  6454                           ; BSR set to: 0
  6455  001668  518D               	movf	___flmul@aexp& (0+255),w,b
  6456  00166A  B4D8               	btfsc	status,2,c
  6457  00166C  EF3A  F00B         	goto	u6111
  6458  001670  EF3C  F00B         	goto	u6110
  6459  001674                     u6111:
  6460  001674  EF44  F00B         	goto	l5199
  6461  001678                     u6110:
  6462  001678                     
  6463                           ; BSR set to: 0
  6464  001678  5192               	movf	___flmul@bexp& (0+255),w,b
  6465  00167A  A4D8               	btfss	status,2,c
  6466  00167C  EF42  F00B         	goto	u6121
  6467  001680  EF44  F00B         	goto	u6120
  6468  001684                     u6121:
  6469  001684  EF4E  F00B         	goto	l5203
  6470  001688                     u6120:
  6471  001688                     l5199:
  6472                           
  6473                           ; BSR set to: 0
  6474  001688  0E00               	movlw	0
  6475  00168A  6F80               	movwf	?___flmul& (0+255),b
  6476  00168C  0E00               	movlw	0
  6477  00168E  6F81               	movwf	(?___flmul+1)& (0+255),b
  6478  001690  0E00               	movlw	0
  6479  001692  6F82               	movwf	(?___flmul+2)& (0+255),b
  6480  001694  0E00               	movlw	0
  6481  001696  6F83               	movwf	(?___flmul+3)& (0+255),b
  6482  001698  EFE6  F00C         	goto	l1092
  6483  00169C                     l5203:
  6484                           
  6485                           ; BSR set to: 0
  6486  00169C  5186               	movf	(___flmul@a+2)& (0+255),w,b
  6487  00169E  0380               	mulwf	___flmul@b& (0+255),b
  6488  0016A0  CFF3 F097          	movff	prodl,___flmul@temp
  6489  0016A4  CFF4 F098          	movff	prodh,___flmul@temp+1
  6490  0016A8                     
  6491                           ; BSR set to: 0
  6492  0016A8  5197               	movf	___flmul@temp& (0+255),w,b
  6493  0016AA  6F8E               	movwf	___flmul@grs& (0+255),b
  6494  0016AC  6B8F               	clrf	(___flmul@grs+1)& (0+255),b
  6495  0016AE  6B90               	clrf	(___flmul@grs+2)& (0+255),b
  6496  0016B0  6B91               	clrf	(___flmul@grs+3)& (0+255),b
  6497  0016B2                     
  6498                           ; BSR set to: 0
  6499  0016B2  5198               	movf	(___flmul@temp+1)& (0+255),w,b
  6500  0016B4  6F93               	movwf	___flmul@prod& (0+255),b
  6501  0016B6  6B94               	clrf	(___flmul@prod+1)& (0+255),b
  6502  0016B8  6B95               	clrf	(___flmul@prod+2)& (0+255),b
  6503  0016BA  6B96               	clrf	(___flmul@prod+3)& (0+255),b
  6504  0016BC  5185               	movf	(___flmul@a+1)& (0+255),w,b
  6505  0016BE  0381               	mulwf	(___flmul@b+1)& (0+255),b
  6506  0016C0  CFF3 F097          	movff	prodl,___flmul@temp
  6507  0016C4  CFF4 F098          	movff	prodh,___flmul@temp+1
  6508  0016C8                     
  6509                           ; BSR set to: 0
  6510  0016C8  5197               	movf	___flmul@temp& (0+255),w,b
  6511  0016CA  278E               	addwf	___flmul@grs& (0+255),f,b
  6512  0016CC  0E00               	movlw	0
  6513  0016CE  238F               	addwfc	(___flmul@grs+1)& (0+255),f,b
  6514  0016D0  2390               	addwfc	(___flmul@grs+2)& (0+255),f,b
  6515  0016D2  2391               	addwfc	(___flmul@grs+3)& (0+255),f,b
  6516  0016D4                     
  6517                           ; BSR set to: 0
  6518  0016D4  5198               	movf	(___flmul@temp+1)& (0+255),w,b
  6519  0016D6  2793               	addwf	___flmul@prod& (0+255),f,b
  6520  0016D8  0E00               	movlw	0
  6521  0016DA  2394               	addwfc	(___flmul@prod+1)& (0+255),f,b
  6522  0016DC  2395               	addwfc	(___flmul@prod+2)& (0+255),f,b
  6523  0016DE  2396               	addwfc	(___flmul@prod+3)& (0+255),f,b
  6524  0016E0  5184               	movf	___flmul@a& (0+255),w,b
  6525  0016E2  0382               	mulwf	(___flmul@b+2)& (0+255),b
  6526  0016E4  CFF3 F097          	movff	prodl,___flmul@temp
  6527  0016E8  CFF4 F098          	movff	prodh,___flmul@temp+1
  6528  0016EC                     
  6529                           ; BSR set to: 0
  6530  0016EC  5197               	movf	___flmul@temp& (0+255),w,b
  6531  0016EE  278E               	addwf	___flmul@grs& (0+255),f,b
  6532  0016F0  0E00               	movlw	0
  6533  0016F2  238F               	addwfc	(___flmul@grs+1)& (0+255),f,b
  6534  0016F4  2390               	addwfc	(___flmul@grs+2)& (0+255),f,b
  6535  0016F6  2391               	addwfc	(___flmul@grs+3)& (0+255),f,b
  6536  0016F8                     
  6537                           ; BSR set to: 0
  6538  0016F8  5198               	movf	(___flmul@temp+1)& (0+255),w,b
  6539  0016FA  2793               	addwf	___flmul@prod& (0+255),f,b
  6540  0016FC  0E00               	movlw	0
  6541  0016FE  2394               	addwfc	(___flmul@prod+1)& (0+255),f,b
  6542  001700  2395               	addwfc	(___flmul@prod+2)& (0+255),f,b
  6543  001702  2396               	addwfc	(___flmul@prod+3)& (0+255),f,b
  6544  001704                     
  6545                           ; BSR set to: 0
  6546  001704  C090  F091         	movff	___flmul@grs+2,___flmul@grs+3
  6547  001708  C08F  F090         	movff	___flmul@grs+1,___flmul@grs+2
  6548  00170C  C08E  F08F         	movff	___flmul@grs,___flmul@grs+1
  6549  001710  6B8E               	clrf	___flmul@grs& (0+255),b
  6550  001712                     
  6551                           ; BSR set to: 0
  6552  001712  5184               	movf	___flmul@a& (0+255),w,b
  6553  001714  0381               	mulwf	(___flmul@b+1)& (0+255),b
  6554  001716  CFF3 F097          	movff	prodl,___flmul@temp
  6555  00171A  CFF4 F098          	movff	prodh,___flmul@temp+1
  6556  00171E                     
  6557                           ; BSR set to: 0
  6558  00171E  5197               	movf	___flmul@temp& (0+255),w,b
  6559  001720  278E               	addwf	___flmul@grs& (0+255),f,b
  6560  001722  5198               	movf	(___flmul@temp+1)& (0+255),w,b
  6561  001724  238F               	addwfc	(___flmul@grs+1)& (0+255),f,b
  6562  001726  0E00               	movlw	0
  6563  001728  2390               	addwfc	(___flmul@grs+2)& (0+255),f,b
  6564  00172A  0E00               	movlw	0
  6565  00172C  2391               	addwfc	(___flmul@grs+3)& (0+255),f,b
  6566  00172E                     
  6567                           ; BSR set to: 0
  6568  00172E  5185               	movf	(___flmul@a+1)& (0+255),w,b
  6569  001730  0380               	mulwf	___flmul@b& (0+255),b
  6570  001732  CFF3 F097          	movff	prodl,___flmul@temp
  6571  001736  CFF4 F098          	movff	prodh,___flmul@temp+1
  6572  00173A                     
  6573                           ; BSR set to: 0
  6574  00173A  5197               	movf	___flmul@temp& (0+255),w,b
  6575  00173C  278E               	addwf	___flmul@grs& (0+255),f,b
  6576  00173E  5198               	movf	(___flmul@temp+1)& (0+255),w,b
  6577  001740  238F               	addwfc	(___flmul@grs+1)& (0+255),f,b
  6578  001742  0E00               	movlw	0
  6579  001744  2390               	addwfc	(___flmul@grs+2)& (0+255),f,b
  6580  001746  0E00               	movlw	0
  6581  001748  2391               	addwfc	(___flmul@grs+3)& (0+255),f,b
  6582  00174A                     
  6583                           ; BSR set to: 0
  6584  00174A  C090  F091         	movff	___flmul@grs+2,___flmul@grs+3
  6585  00174E  C08F  F090         	movff	___flmul@grs+1,___flmul@grs+2
  6586  001752  C08E  F08F         	movff	___flmul@grs,___flmul@grs+1
  6587  001756  6B8E               	clrf	___flmul@grs& (0+255),b
  6588  001758  5184               	movf	___flmul@a& (0+255),w,b
  6589  00175A  0380               	mulwf	___flmul@b& (0+255),b
  6590  00175C  CFF3 F097          	movff	prodl,___flmul@temp
  6591  001760  CFF4 F098          	movff	prodh,___flmul@temp+1
  6592  001764                     
  6593                           ; BSR set to: 0
  6594  001764  5197               	movf	___flmul@temp& (0+255),w,b
  6595  001766  278E               	addwf	___flmul@grs& (0+255),f,b
  6596  001768  5198               	movf	(___flmul@temp+1)& (0+255),w,b
  6597  00176A  238F               	addwfc	(___flmul@grs+1)& (0+255),f,b
  6598  00176C  0E00               	movlw	0
  6599  00176E  2390               	addwfc	(___flmul@grs+2)& (0+255),f,b
  6600  001770  0E00               	movlw	0
  6601  001772  2391               	addwfc	(___flmul@grs+3)& (0+255),f,b
  6602  001774                     
  6603                           ; BSR set to: 0
  6604  001774  5186               	movf	(___flmul@a+2)& (0+255),w,b
  6605  001776  0381               	mulwf	(___flmul@b+1)& (0+255),b
  6606  001778  CFF3 F097          	movff	prodl,___flmul@temp
  6607  00177C  CFF4 F098          	movff	prodh,___flmul@temp+1
  6608  001780  5197               	movf	___flmul@temp& (0+255),w,b
  6609  001782  2793               	addwf	___flmul@prod& (0+255),f,b
  6610  001784  5198               	movf	(___flmul@temp+1)& (0+255),w,b
  6611  001786  2394               	addwfc	(___flmul@prod+1)& (0+255),f,b
  6612  001788  0E00               	movlw	0
  6613  00178A  2395               	addwfc	(___flmul@prod+2)& (0+255),f,b
  6614  00178C  0E00               	movlw	0
  6615  00178E  2396               	addwfc	(___flmul@prod+3)& (0+255),f,b
  6616  001790                     
  6617                           ; BSR set to: 0
  6618  001790  5185               	movf	(___flmul@a+1)& (0+255),w,b
  6619  001792  0382               	mulwf	(___flmul@b+2)& (0+255),b
  6620  001794  CFF3 F097          	movff	prodl,___flmul@temp
  6621  001798  CFF4 F098          	movff	prodh,___flmul@temp+1
  6622  00179C                     
  6623                           ; BSR set to: 0
  6624  00179C  5197               	movf	___flmul@temp& (0+255),w,b
  6625  00179E  2793               	addwf	___flmul@prod& (0+255),f,b
  6626  0017A0  5198               	movf	(___flmul@temp+1)& (0+255),w,b
  6627  0017A2  2394               	addwfc	(___flmul@prod+1)& (0+255),f,b
  6628  0017A4  0E00               	movlw	0
  6629  0017A6  2395               	addwfc	(___flmul@prod+2)& (0+255),f,b
  6630  0017A8  0E00               	movlw	0
  6631  0017AA  2396               	addwfc	(___flmul@prod+3)& (0+255),f,b
  6632  0017AC  5186               	movf	(___flmul@a+2)& (0+255),w,b
  6633  0017AE  0382               	mulwf	(___flmul@b+2)& (0+255),b
  6634  0017B0  CFF3 F097          	movff	prodl,___flmul@temp
  6635  0017B4  CFF4 F098          	movff	prodh,___flmul@temp+1
  6636  0017B8                     
  6637                           ; BSR set to: 0
  6638  0017B8  5197               	movf	___flmul@temp& (0+255),w,b
  6639  0017BA  6F88               	movwf	??___flmul& (0+255),b
  6640  0017BC  5198               	movf	(___flmul@temp+1)& (0+255),w,b
  6641  0017BE  6F89               	movwf	(??___flmul+1)& (0+255),b
  6642  0017C0  6B8A               	clrf	(??___flmul+2)& (0+255),b
  6643  0017C2  6B8B               	clrf	(??___flmul+3)& (0+255),b
  6644  0017C4  C08A  F08B         	movff	??___flmul+2,??___flmul+3
  6645  0017C8  C089  F08A         	movff	??___flmul+1,??___flmul+2
  6646  0017CC  C088  F089         	movff	??___flmul,??___flmul+1
  6647  0017D0  6B88               	clrf	??___flmul& (0+255),b
  6648  0017D2  5188               	movf	??___flmul& (0+255),w,b
  6649  0017D4  2793               	addwf	___flmul@prod& (0+255),f,b
  6650  0017D6  5189               	movf	(??___flmul+1)& (0+255),w,b
  6651  0017D8  2394               	addwfc	(___flmul@prod+1)& (0+255),f,b
  6652  0017DA  518A               	movf	(??___flmul+2)& (0+255),w,b
  6653  0017DC  2395               	addwfc	(___flmul@prod+2)& (0+255),f,b
  6654  0017DE  518B               	movf	(??___flmul+3)& (0+255),w,b
  6655  0017E0  2396               	addwfc	(___flmul@prod+3)& (0+255),f,b
  6656  0017E2                     
  6657                           ; BSR set to: 0
  6658  0017E2  C08E  F088         	movff	___flmul@grs,??___flmul
  6659  0017E6  C08F  F089         	movff	___flmul@grs+1,??___flmul+1
  6660  0017EA  C090  F08A         	movff	___flmul@grs+2,??___flmul+2
  6661  0017EE  C091  F08B         	movff	___flmul@grs+3,??___flmul+3
  6662  0017F2  0E19               	movlw	25
  6663  0017F4  EF01  F00C         	goto	u6130
  6664  0017F8                     u6135:
  6665  0017F8  90D8               	bcf	status,0,c
  6666  0017FA  338B               	rrcf	(??___flmul+3)& (0+255),f,b
  6667  0017FC  338A               	rrcf	(??___flmul+2)& (0+255),f,b
  6668  0017FE  3389               	rrcf	(??___flmul+1)& (0+255),f,b
  6669  001800  3388               	rrcf	??___flmul& (0+255),f,b
  6670  001802                     u6130:
  6671  001802  2EE8               	decfsz	wreg,f,c
  6672  001804  EFFC  F00B         	goto	u6135
  6673  001808  5188               	movf	??___flmul& (0+255),w,b
  6674  00180A  2793               	addwf	___flmul@prod& (0+255),f,b
  6675  00180C  5189               	movf	(??___flmul+1)& (0+255),w,b
  6676  00180E  2394               	addwfc	(___flmul@prod+1)& (0+255),f,b
  6677  001810  518A               	movf	(??___flmul+2)& (0+255),w,b
  6678  001812  2395               	addwfc	(___flmul@prod+2)& (0+255),f,b
  6679  001814  518B               	movf	(??___flmul+3)& (0+255),w,b
  6680  001816  2396               	addwfc	(___flmul@prod+3)& (0+255),f,b
  6681  001818                     
  6682                           ; BSR set to: 0
  6683  001818  C090  F091         	movff	___flmul@grs+2,___flmul@grs+3
  6684  00181C  C08F  F090         	movff	___flmul@grs+1,___flmul@grs+2
  6685  001820  C08E  F08F         	movff	___flmul@grs,___flmul@grs+1
  6686  001824  6B8E               	clrf	___flmul@grs& (0+255),b
  6687  001826                     
  6688                           ; BSR set to: 0
  6689  001826  518D               	movf	___flmul@aexp& (0+255),w,b
  6690  001828  C092  F088         	movff	___flmul@bexp,??___flmul
  6691  00182C  6B89               	clrf	(??___flmul+1)& (0+255),b
  6692  00182E  2788               	addwf	??___flmul& (0+255),f,b
  6693  001830  0E00               	movlw	0
  6694  001832  2389               	addwfc	(??___flmul+1)& (0+255),f,b
  6695  001834  0E82               	movlw	130
  6696  001836  2588               	addwf	??___flmul& (0+255),w,b
  6697  001838  6F97               	movwf	___flmul@temp& (0+255),b
  6698  00183A  0EFF               	movlw	255
  6699  00183C  2189               	addwfc	(??___flmul+1)& (0+255),w,b
  6700  00183E  6F98               	movwf	(___flmul@temp+1)& (0+255),b
  6701  001840  EF37  F00C         	goto	l5251
  6702  001844                     l5245:
  6703                           
  6704                           ; BSR set to: 0
  6705  001844  90D8               	bcf	status,0,c
  6706  001846  3793               	rlcf	___flmul@prod& (0+255),f,b
  6707  001848  3794               	rlcf	(___flmul@prod+1)& (0+255),f,b
  6708  00184A  3795               	rlcf	(___flmul@prod+2)& (0+255),f,b
  6709  00184C  3796               	rlcf	(___flmul@prod+3)& (0+255),f,b
  6710  00184E                     
  6711                           ; BSR set to: 0
  6712  00184E  AF91               	btfss	(___flmul@grs+3)& (0+255),7,b
  6713  001850  EF2C  F00C         	goto	u6141
  6714  001854  EF2E  F00C         	goto	u6140
  6715  001858                     u6141:
  6716  001858  EF2F  F00C         	goto	l1095
  6717  00185C                     u6140:
  6718  00185C                     
  6719                           ; BSR set to: 0
  6720  00185C  8193               	bsf	___flmul@prod& (0+255),0,b
  6721  00185E                     l1095:
  6722                           
  6723                           ; BSR set to: 0
  6724  00185E  90D8               	bcf	status,0,c
  6725  001860  378E               	rlcf	___flmul@grs& (0+255),f,b
  6726  001862  378F               	rlcf	(___flmul@grs+1)& (0+255),f,b
  6727  001864  3790               	rlcf	(___flmul@grs+2)& (0+255),f,b
  6728  001866  3791               	rlcf	(___flmul@grs+3)& (0+255),f,b
  6729  001868  0797               	decf	___flmul@temp& (0+255),f,b
  6730  00186A  A0D8               	btfss	status,0,c
  6731  00186C  0798               	decf	(___flmul@temp+1)& (0+255),f,b
  6732  00186E                     l5251:
  6733                           
  6734                           ; BSR set to: 0
  6735  00186E  AF95               	btfss	(___flmul@prod+2)& (0+255),7,b
  6736  001870  EF3C  F00C         	goto	u6151
  6737  001874  EF3E  F00C         	goto	u6150
  6738  001878                     u6151:
  6739  001878  EF22  F00C         	goto	l5245
  6740  00187C                     u6150:
  6741  00187C                     
  6742                           ; BSR set to: 0
  6743  00187C  0E00               	movlw	0
  6744  00187E  6F8D               	movwf	___flmul@aexp& (0+255),b
  6745  001880                     
  6746                           ; BSR set to: 0
  6747  001880  AF91               	btfss	(___flmul@grs+3)& (0+255),7,b
  6748  001882  EF45  F00C         	goto	u6161
  6749  001886  EF47  F00C         	goto	u6160
  6750  00188A                     u6161:
  6751  00188A  EF6B  F00C         	goto	l1097
  6752  00188E                     u6160:
  6753  00188E                     
  6754                           ; BSR set to: 0
  6755  00188E  0EFF               	movlw	255
  6756  001890  158E               	andwf	___flmul@grs& (0+255),w,b
  6757  001892  6F88               	movwf	??___flmul& (0+255),b
  6758  001894  0EFF               	movlw	255
  6759  001896  158F               	andwf	(___flmul@grs+1)& (0+255),w,b
  6760  001898  6F89               	movwf	(??___flmul+1)& (0+255),b
  6761  00189A  0EFF               	movlw	255
  6762  00189C  1590               	andwf	(___flmul@grs+2)& (0+255),w,b
  6763  00189E  6F8A               	movwf	(??___flmul+2)& (0+255),b
  6764  0018A0  0E7F               	movlw	127
  6765  0018A2  1591               	andwf	(___flmul@grs+3)& (0+255),w,b
  6766  0018A4  6F8B               	movwf	(??___flmul+3)& (0+255),b
  6767  0018A6  5188               	movf	??___flmul& (0+255),w,b
  6768  0018A8  1189               	iorwf	(??___flmul+1)& (0+255),w,b
  6769  0018AA  118A               	iorwf	(??___flmul+2)& (0+255),w,b
  6770  0018AC  118B               	iorwf	(??___flmul+3)& (0+255),w,b
  6771  0018AE  B4D8               	btfsc	status,2,c
  6772  0018B0  EF5C  F00C         	goto	u6171
  6773  0018B4  EF5E  F00C         	goto	u6170
  6774  0018B8                     u6171:
  6775  0018B8  EF62  F00C         	goto	l1098
  6776  0018BC                     u6170:
  6777  0018BC                     l5259:
  6778                           
  6779                           ; BSR set to: 0
  6780  0018BC  0E01               	movlw	1
  6781  0018BE  6F8D               	movwf	___flmul@aexp& (0+255),b
  6782  0018C0  EF6B  F00C         	goto	l1097
  6783  0018C4                     l1098:
  6784                           
  6785                           ; BSR set to: 0
  6786  0018C4  A193               	btfss	___flmul@prod& (0+255),0,b
  6787  0018C6  EF67  F00C         	goto	u6181
  6788  0018CA  EF69  F00C         	goto	u6180
  6789  0018CE                     u6181:
  6790  0018CE  EF6B  F00C         	goto	l1097
  6791  0018D2                     u6180:
  6792  0018D2  EF5E  F00C         	goto	l5259
  6793  0018D6                     l1097:
  6794                           
  6795                           ; BSR set to: 0
  6796  0018D6  518D               	movf	___flmul@aexp& (0+255),w,b
  6797  0018D8  B4D8               	btfsc	status,2,c
  6798  0018DA  EF71  F00C         	goto	u6191
  6799  0018DE  EF73  F00C         	goto	u6190
  6800  0018E2                     u6191:
  6801  0018E2  EF97  F00C         	goto	l5271
  6802  0018E6                     u6190:
  6803  0018E6                     
  6804                           ; BSR set to: 0
  6805  0018E6  0E01               	movlw	1
  6806  0018E8  2793               	addwf	___flmul@prod& (0+255),f,b
  6807  0018EA  0E00               	movlw	0
  6808  0018EC  2394               	addwfc	(___flmul@prod+1)& (0+255),f,b
  6809  0018EE  2395               	addwfc	(___flmul@prod+2)& (0+255),f,b
  6810  0018F0  2396               	addwfc	(___flmul@prod+3)& (0+255),f,b
  6811  0018F2                     
  6812                           ; BSR set to: 0
  6813  0018F2  A196               	btfss	(___flmul@prod+3)& (0+255),0,b
  6814  0018F4  EF7E  F00C         	goto	u6201
  6815  0018F8  EF80  F00C         	goto	u6200
  6816  0018FC                     u6201:
  6817  0018FC  EF97  F00C         	goto	l5271
  6818  001900                     u6200:
  6819  001900                     
  6820                           ; BSR set to: 0
  6821  001900  C093  F088         	movff	___flmul@prod,??___flmul
  6822  001904  C094  F089         	movff	___flmul@prod+1,??___flmul+1
  6823  001908  C095  F08A         	movff	___flmul@prod+2,??___flmul+2
  6824  00190C  C096  F08B         	movff	___flmul@prod+3,??___flmul+3
  6825  001910  358B               	rlcf	(??___flmul+3)& (0+255),w,b
  6826  001912  338B               	rrcf	(??___flmul+3)& (0+255),f,b
  6827  001914  338A               	rrcf	(??___flmul+2)& (0+255),f,b
  6828  001916  3389               	rrcf	(??___flmul+1)& (0+255),f,b
  6829  001918  3388               	rrcf	??___flmul& (0+255),f,b
  6830  00191A  C088  F093         	movff	??___flmul,___flmul@prod
  6831  00191E  C089  F094         	movff	??___flmul+1,___flmul@prod+1
  6832  001922  C08A  F095         	movff	??___flmul+2,___flmul@prod+2
  6833  001926  C08B  F096         	movff	??___flmul+3,___flmul@prod+3
  6834  00192A                     
  6835                           ; BSR set to: 0
  6836  00192A  4B97               	infsnz	___flmul@temp& (0+255),f,b
  6837  00192C  2B98               	incf	(___flmul@temp+1)& (0+255),f,b
  6838  00192E                     l5271:
  6839                           
  6840                           ; BSR set to: 0
  6841  00192E  BF98               	btfsc	(___flmul@temp+1)& (0+255),7,b
  6842  001930  EFA2  F00C         	goto	u6211
  6843  001934  5198               	movf	(___flmul@temp+1)& (0+255),w,b
  6844  001936  E108               	bnz	u6210
  6845  001938  2997               	incf	___flmul@temp& (0+255),w,b
  6846  00193A  A0D8               	btfss	status,0,c
  6847  00193C  EFA2  F00C         	goto	u6211
  6848  001940  EFA4  F00C         	goto	u6210
  6849  001944                     u6211:
  6850  001944  EFAE  F00C         	goto	l5275
  6851  001948                     u6210:
  6852  001948                     
  6853                           ; BSR set to: 0
  6854  001948  0E00               	movlw	0
  6855  00194A  6F93               	movwf	___flmul@prod& (0+255),b
  6856  00194C  0E00               	movlw	0
  6857  00194E  6F94               	movwf	(___flmul@prod+1)& (0+255),b
  6858  001950  0E80               	movlw	128
  6859  001952  6F95               	movwf	(___flmul@prod+2)& (0+255),b
  6860  001954  0E7F               	movlw	127
  6861  001956  6F96               	movwf	(___flmul@prod+3)& (0+255),b
  6862  001958  EFDC  F00C         	goto	l5287
  6863  00195C                     l5275:
  6864                           
  6865                           ; BSR set to: 0
  6866  00195C  BF98               	btfsc	(___flmul@temp+1)& (0+255),7,b
  6867  00195E  EFBB  F00C         	goto	u6220
  6868  001962  5198               	movf	(___flmul@temp+1)& (0+255),w,b
  6869  001964  E106               	bnz	u6221
  6870  001966  0597               	decf	___flmul@temp& (0+255),w,b
  6871  001968  B0D8               	btfsc	status,0,c
  6872  00196A  EFB9  F00C         	goto	u6221
  6873  00196E  EFBB  F00C         	goto	u6220
  6874  001972                     u6221:
  6875  001972  EFC7  F00C         	goto	l1105
  6876  001976                     u6220:
  6877  001976                     
  6878                           ; BSR set to: 0
  6879  001976  0E00               	movlw	0
  6880  001978  6F93               	movwf	___flmul@prod& (0+255),b
  6881  00197A  0E00               	movlw	0
  6882  00197C  6F94               	movwf	(___flmul@prod+1)& (0+255),b
  6883  00197E  0E00               	movlw	0
  6884  001980  6F95               	movwf	(___flmul@prod+2)& (0+255),b
  6885  001982  0E00               	movlw	0
  6886  001984  6F96               	movwf	(___flmul@prod+3)& (0+255),b
  6887  001986  0E00               	movlw	0
  6888  001988  6F8C               	movwf	___flmul@sign& (0+255),b
  6889  00198A  EFDC  F00C         	goto	l5287
  6890  00198E                     l1105:
  6891                           
  6892                           ; BSR set to: 0
  6893  00198E  C097  F092         	movff	___flmul@temp,___flmul@bexp
  6894  001992                     
  6895                           ; BSR set to: 0
  6896  001992  0EFF               	movlw	255
  6897  001994  1793               	andwf	___flmul@prod& (0+255),f,b
  6898  001996  0EFF               	movlw	255
  6899  001998  1794               	andwf	(___flmul@prod+1)& (0+255),f,b
  6900  00199A  0E7F               	movlw	127
  6901  00199C  1795               	andwf	(___flmul@prod+2)& (0+255),f,b
  6902  00199E  0E00               	movlw	0
  6903  0019A0  1796               	andwf	(___flmul@prod+3)& (0+255),f,b
  6904  0019A2                     
  6905                           ; BSR set to: 0
  6906  0019A2  A192               	btfss	___flmul@bexp& (0+255),0,b
  6907  0019A4  EFD6  F00C         	goto	u6231
  6908  0019A8  EFD8  F00C         	goto	u6230
  6909  0019AC                     u6231:
  6910  0019AC  EFD9  F00C         	goto	l5285
  6911  0019B0                     u6230:
  6912  0019B0                     
  6913                           ; BSR set to: 0
  6914  0019B0  8F95               	bsf	(___flmul@prod+2)& (0+255),7,b
  6915  0019B2                     l5285:
  6916                           
  6917                           ; BSR set to: 0
  6918  0019B2  90D8               	bcf	status,0,c
  6919  0019B4  3192               	rrcf	___flmul@bexp& (0+255),w,b
  6920  0019B6  6F96               	movwf	(___flmul@prod+3)& (0+255),b
  6921  0019B8                     l5287:
  6922                           
  6923                           ; BSR set to: 0
  6924  0019B8  518C               	movf	___flmul@sign& (0+255),w,b
  6925  0019BA  1396               	iorwf	(___flmul@prod+3)& (0+255),f,b
  6926  0019BC                     
  6927                           ; BSR set to: 0
  6928  0019BC  C093  F080         	movff	___flmul@prod,?___flmul
  6929  0019C0  C094  F081         	movff	___flmul@prod+1,?___flmul+1
  6930  0019C4  C095  F082         	movff	___flmul@prod+2,?___flmul+2
  6931  0019C8  C096  F083         	movff	___flmul@prod+3,?___flmul+3
  6932  0019CC                     l1092:
  6933                           
  6934                           ; BSR set to: 0
  6935  0019CC  0012               	return		;funcret
  6936  0019CE                     __end_of___flmul:
  6937                           	opt callstack 0
  6938                           
  6939 ;; *************** function ___flge *****************
  6940 ;; Defined at:
  6941 ;;		line 4 in file "C:\Program Files (x86)\Microchip\xc8\v2.10\pic\sources\c99\common\flge.c"
  6942 ;; Parameters:    Size  Location     Type
  6943 ;;  ff1             4   57[BANK0 ] unsigned char 
  6944 ;;  ff2             4   61[BANK0 ] unsigned char 
  6945 ;; Auto vars:     Size  Location     Type
  6946 ;;		None
  6947 ;; Return value:  Size  Location     Type
  6948 ;;		None               void
  6949 ;; Registers used:
  6950 ;;		wreg, status,2, status,0
  6951 ;; Tracked objects:
  6952 ;;		On entry : 0/0
  6953 ;;		On exit  : 0/0
  6954 ;;		Unchanged: 0/0
  6955 ;; Data sizes:     COMRAM   BANK0   BANK1   BANK2   BANK3   BANK4   BANK5
  6956 ;;      Params:         0       8       0       0       0       0       0
  6957 ;;      Locals:         0       0       0       0       0       0       0
  6958 ;;      Temps:          0       4       0       0       0       0       0
  6959 ;;      Totals:         0      12       0       0       0       0       0
  6960 ;;Total ram usage:       12 bytes
  6961 ;; Hardware stack levels used:    1
  6962 ;; Hardware stack levels required when called:    5
  6963 ;; This function calls:
  6964 ;;		Nothing
  6965 ;; This function is called by:
  6966 ;;		_I2C_timer_prescaler
  6967 ;; This function uses a non-reentrant model
  6968 ;;
  6969                           
  6970                           	psect	text24
  6971  00349A                     __ptext24:
  6972                           	opt callstack 0
  6973  00349A                     ___flge:
  6974                           	opt callstack 23
  6975  00349A  0E00               	movlw	0
  6976  00349C  0100               	movlb	0	; () banked
  6977  00349E  1599               	andwf	___flge@ff1& (0+255),w,b
  6978  0034A0  6FA1               	movwf	??___flge& (0+255),b
  6979  0034A2  0E00               	movlw	0
  6980  0034A4  159A               	andwf	(___flge@ff1+1)& (0+255),w,b
  6981  0034A6  6FA2               	movwf	(??___flge+1)& (0+255),b
  6982  0034A8  0E80               	movlw	128
  6983  0034AA  159B               	andwf	(___flge@ff1+2)& (0+255),w,b
  6984  0034AC  6FA3               	movwf	(??___flge+2)& (0+255),b
  6985  0034AE  0E7F               	movlw	127
  6986  0034B0  159C               	andwf	(___flge@ff1+3)& (0+255),w,b
  6987  0034B2  6FA4               	movwf	(??___flge+3)& (0+255),b
  6988  0034B4  51A1               	movf	??___flge& (0+255),w,b
  6989  0034B6  11A2               	iorwf	(??___flge+1)& (0+255),w,b
  6990  0034B8  11A3               	iorwf	(??___flge+2)& (0+255),w,b
  6991  0034BA  11A4               	iorwf	(??___flge+3)& (0+255),w,b
  6992  0034BC  A4D8               	btfss	status,2,c
  6993  0034BE  EF63  F01A         	goto	u6241
  6994  0034C2  EF65  F01A         	goto	u6240
  6995  0034C6                     u6241:
  6996  0034C6  EF6D  F01A         	goto	l5303
  6997  0034CA                     u6240:
  6998  0034CA                     
  6999                           ; BSR set to: 0
  7000  0034CA  0E00               	movlw	0
  7001  0034CC  6F99               	movwf	___flge@ff1& (0+255),b
  7002  0034CE  0E00               	movlw	0
  7003  0034D0  6F9A               	movwf	(___flge@ff1+1)& (0+255),b
  7004  0034D2  0E00               	movlw	0
  7005  0034D4  6F9B               	movwf	(___flge@ff1+2)& (0+255),b
  7006  0034D6  0E00               	movlw	0
  7007  0034D8  6F9C               	movwf	(___flge@ff1+3)& (0+255),b
  7008  0034DA                     l5303:
  7009                           
  7010                           ; BSR set to: 0
  7011  0034DA  0E00               	movlw	0
  7012  0034DC  159D               	andwf	___flge@ff2& (0+255),w,b
  7013  0034DE  6FA1               	movwf	??___flge& (0+255),b
  7014  0034E0  0E00               	movlw	0
  7015  0034E2  159E               	andwf	(___flge@ff2+1)& (0+255),w,b
  7016  0034E4  6FA2               	movwf	(??___flge+1)& (0+255),b
  7017  0034E6  0E80               	movlw	128
  7018  0034E8  159F               	andwf	(___flge@ff2+2)& (0+255),w,b
  7019  0034EA  6FA3               	movwf	(??___flge+2)& (0+255),b
  7020  0034EC  0E7F               	movlw	127
  7021  0034EE  15A0               	andwf	(___flge@ff2+3)& (0+255),w,b
  7022  0034F0  6FA4               	movwf	(??___flge+3)& (0+255),b
  7023  0034F2  51A1               	movf	??___flge& (0+255),w,b
  7024  0034F4  11A2               	iorwf	(??___flge+1)& (0+255),w,b
  7025  0034F6  11A3               	iorwf	(??___flge+2)& (0+255),w,b
  7026  0034F8  11A4               	iorwf	(??___flge+3)& (0+255),w,b
  7027  0034FA  A4D8               	btfss	status,2,c
  7028  0034FC  EF82  F01A         	goto	u6251
  7029  003500  EF84  F01A         	goto	u6250
  7030  003504                     u6251:
  7031  003504  EF8C  F01A         	goto	l5307
  7032  003508                     u6250:
  7033  003508                     
  7034                           ; BSR set to: 0
  7035  003508  0E00               	movlw	0
  7036  00350A  6F9D               	movwf	___flge@ff2& (0+255),b
  7037  00350C  0E00               	movlw	0
  7038  00350E  6F9E               	movwf	(___flge@ff2+1)& (0+255),b
  7039  003510  0E00               	movlw	0
  7040  003512  6F9F               	movwf	(___flge@ff2+2)& (0+255),b
  7041  003514  0E00               	movlw	0
  7042  003516  6FA0               	movwf	(___flge@ff2+3)& (0+255),b
  7043  003518                     l5307:
  7044                           
  7045                           ; BSR set to: 0
  7046  003518  AF9C               	btfss	(___flge@ff1+3)& (0+255),7,b
  7047  00351A  EF91  F01A         	goto	u6261
  7048  00351E  EF93  F01A         	goto	u6260
  7049  003522                     u6261:
  7050  003522  EF9C  F01A         	goto	l5311
  7051  003526                     u6260:
  7052  003526                     
  7053                           ; BSR set to: 0
  7054  003526  6D99               	negf	___flge@ff1& (0+255),b
  7055  003528  1F9A               	comf	(___flge@ff1+1)& (0+255),f,b
  7056  00352A  B0D8               	btfsc	status,0,c
  7057  00352C  2B9A               	incf	(___flge@ff1+1)& (0+255),f,b
  7058  00352E  1F9B               	comf	(___flge@ff1+2)& (0+255),f,b
  7059  003530  B0D8               	btfsc	status,0,c
  7060  003532  2B9B               	incf	(___flge@ff1+2)& (0+255),f,b
  7061  003534  0E80               	movlw	128
  7062  003536  579C               	subfwb	(___flge@ff1+3)& (0+255),f,b
  7063  003538                     l5311:
  7064                           
  7065                           ; BSR set to: 0
  7066  003538  AFA0               	btfss	(___flge@ff2+3)& (0+255),7,b
  7067  00353A  EFA1  F01A         	goto	u6271
  7068  00353E  EFA3  F01A         	goto	u6270
  7069  003542                     u6271:
  7070  003542  EFAC  F01A         	goto	l739
  7071  003546                     u6270:
  7072  003546                     
  7073                           ; BSR set to: 0
  7074  003546  6D9D               	negf	___flge@ff2& (0+255),b
  7075  003548  1F9E               	comf	(___flge@ff2+1)& (0+255),f,b
  7076  00354A  B0D8               	btfsc	status,0,c
  7077  00354C  2B9E               	incf	(___flge@ff2+1)& (0+255),f,b
  7078  00354E  1F9F               	comf	(___flge@ff2+2)& (0+255),f,b
  7079  003550  B0D8               	btfsc	status,0,c
  7080  003552  2B9F               	incf	(___flge@ff2+2)& (0+255),f,b
  7081  003554  0E80               	movlw	128
  7082  003556  57A0               	subfwb	(___flge@ff2+3)& (0+255),f,b
  7083  003558                     l739:
  7084                           
  7085                           ; BSR set to: 0
  7086  003558  0E00               	movlw	0
  7087  00355A  1B99               	xorwf	___flge@ff1& (0+255),f,b
  7088  00355C  0E00               	movlw	0
  7089  00355E  1B9A               	xorwf	(___flge@ff1+1)& (0+255),f,b
  7090  003560  0E00               	movlw	0
  7091  003562  1B9B               	xorwf	(___flge@ff1+2)& (0+255),f,b
  7092  003564  0E80               	movlw	128
  7093  003566  1B9C               	xorwf	(___flge@ff1+3)& (0+255),f,b
  7094  003568  0E00               	movlw	0
  7095  00356A  1B9D               	xorwf	___flge@ff2& (0+255),f,b
  7096  00356C  0E00               	movlw	0
  7097  00356E  1B9E               	xorwf	(___flge@ff2+1)& (0+255),f,b
  7098  003570  0E00               	movlw	0
  7099  003572  1B9F               	xorwf	(___flge@ff2+2)& (0+255),f,b
  7100  003574  0E80               	movlw	128
  7101  003576  1BA0               	xorwf	(___flge@ff2+3)& (0+255),f,b
  7102  003578  519D               	movf	___flge@ff2& (0+255),w,b
  7103  00357A  5D99               	subwf	___flge@ff1& (0+255),w,b
  7104  00357C  519E               	movf	(___flge@ff2+1)& (0+255),w,b
  7105  00357E  599A               	subwfb	(___flge@ff1+1)& (0+255),w,b
  7106  003580  519F               	movf	(___flge@ff2+2)& (0+255),w,b
  7107  003582  599B               	subwfb	(___flge@ff1+2)& (0+255),w,b
  7108  003584  51A0               	movf	(___flge@ff2+3)& (0+255),w,b
  7109  003586  599C               	subwfb	(___flge@ff1+3)& (0+255),w,b
  7110  003588  B0D8               	btfsc	status,0,c
  7111  00358A  EFC9  F01A         	goto	u6281
  7112  00358E  EFCB  F01A         	goto	u6280
  7113  003592                     u6281:
  7114  003592  EFCE  F01A         	goto	l5317
  7115  003596                     u6280:
  7116  003596                     
  7117                           ; BSR set to: 0
  7118  003596  90D8               	bcf	status,0,c
  7119  003598  EFCF  F01A         	goto	l744
  7120  00359C                     l5317:
  7121                           
  7122                           ; BSR set to: 0
  7123  00359C  80D8               	bsf	status,0,c
  7124  00359E                     l744:
  7125                           
  7126                           ; BSR set to: 0
  7127  00359E  0012               	return		;funcret
  7128  0035A0                     __end_of___flge:
  7129                           	opt callstack 0
  7130                           
  7131 ;; *************** function ___fldiv *****************
  7132 ;; Defined at:
  7133 ;;		line 11 in file "C:\Program Files (x86)\Microchip\xc8\v2.10\pic\sources\c99\common\sprcdiv.c"
  7134 ;; Parameters:    Size  Location     Type
  7135 ;;  b               4   46[BANK0 ] unsigned char 
  7136 ;;  a               4   50[BANK0 ] unsigned char 
  7137 ;; Auto vars:     Size  Location     Type
  7138 ;;  grs             4   65[BANK0 ] unsigned long 
  7139 ;;  rem             4   58[BANK0 ] unsigned long 
  7140 ;;  new_exp         2   63[BANK0 ] short 
  7141 ;;  aexp            1   70[BANK0 ] unsigned char 
  7142 ;;  bexp            1   69[BANK0 ] unsigned char 
  7143 ;;  sign            1   62[BANK0 ] unsigned char 
  7144 ;; Return value:  Size  Location     Type
  7145 ;;                  4   46[BANK0 ] unsigned char 
  7146 ;; Registers used:
  7147 ;;		wreg, status,2, status,0
  7148 ;; Tracked objects:
  7149 ;;		On entry : 0/0
  7150 ;;		On exit  : 0/0
  7151 ;;		Unchanged: 0/0
  7152 ;; Data sizes:     COMRAM   BANK0   BANK1   BANK2   BANK3   BANK4   BANK5
  7153 ;;      Params:         0       8       0       0       0       0       0
  7154 ;;      Locals:         0      13       0       0       0       0       0
  7155 ;;      Temps:          0       4       0       0       0       0       0
  7156 ;;      Totals:         0      25       0       0       0       0       0
  7157 ;;Total ram usage:       25 bytes
  7158 ;; Hardware stack levels used:    1
  7159 ;; Hardware stack levels required when called:    5
  7160 ;; This function calls:
  7161 ;;		Nothing
  7162 ;; This function is called by:
  7163 ;;		_I2C_timer_prescaler
  7164 ;; This function uses a non-reentrant model
  7165 ;;
  7166                           
  7167                           	psect	text25
  7168  001D80                     __ptext25:
  7169                           	opt callstack 0
  7170  001D80                     ___fldiv:
  7171                           	opt callstack 23
  7172  001D80  0100               	movlb	0	; () banked
  7173  001D82  5191               	movf	(___fldiv@b+3)& (0+255),w,b
  7174  001D84  0B80               	andlw	128
  7175  001D86  6F9E               	movwf	___fldiv@sign& (0+255),b
  7176  001D88  5191               	movf	(___fldiv@b+3)& (0+255),w,b
  7177  001D8A  2591               	addwf	(___fldiv@b+3)& (0+255),w,b
  7178  001D8C  6FA5               	movwf	___fldiv@bexp& (0+255),b
  7179  001D8E                     
  7180                           ; BSR set to: 0
  7181  001D8E  AF90               	btfss	(___fldiv@b+2)& (0+255),7,b
  7182  001D90  EFCC  F00E         	goto	u5821
  7183  001D94  EFCE  F00E         	goto	u5820
  7184  001D98                     u5821:
  7185  001D98  EFCF  F00E         	goto	l5031
  7186  001D9C                     u5820:
  7187  001D9C                     
  7188                           ; BSR set to: 0
  7189  001D9C  81A5               	bsf	___fldiv@bexp& (0+255),0,b
  7190  001D9E                     l5031:
  7191                           
  7192                           ; BSR set to: 0
  7193  001D9E  51A5               	movf	___fldiv@bexp& (0+255),w,b
  7194  001DA0  B4D8               	btfsc	status,2,c
  7195  001DA2  EFD5  F00E         	goto	u5831
  7196  001DA6  EFD7  F00E         	goto	u5830
  7197  001DAA                     u5831:
  7198  001DAA  EFEC  F00E         	goto	l5041
  7199  001DAE                     u5830:
  7200  001DAE                     
  7201                           ; BSR set to: 0
  7202  001DAE  29A5               	incf	___fldiv@bexp& (0+255),w,b
  7203  001DB0  A4D8               	btfss	status,2,c
  7204  001DB2  EFDD  F00E         	goto	u5841
  7205  001DB6  EFDF  F00E         	goto	u5840
  7206  001DBA                     u5841:
  7207  001DBA  EFE7  F00E         	goto	l5037
  7208  001DBE                     u5840:
  7209  001DBE                     
  7210                           ; BSR set to: 0
  7211  001DBE  0E00               	movlw	0
  7212  001DC0  6F8E               	movwf	___fldiv@b& (0+255),b
  7213  001DC2  0E00               	movlw	0
  7214  001DC4  6F8F               	movwf	(___fldiv@b+1)& (0+255),b
  7215  001DC6  0E00               	movlw	0
  7216  001DC8  6F90               	movwf	(___fldiv@b+2)& (0+255),b
  7217  001DCA  0E00               	movlw	0
  7218  001DCC  6F91               	movwf	(___fldiv@b+3)& (0+255),b
  7219  001DCE                     l5037:
  7220                           
  7221                           ; BSR set to: 0
  7222  001DCE  8F90               	bsf	(___fldiv@b+2)& (0+255),7,b
  7223  001DD0                     
  7224                           ; BSR set to: 0
  7225  001DD0  0E00               	movlw	0
  7226  001DD2  6F91               	movwf	(___fldiv@b+3)& (0+255),b
  7227  001DD4  EFF4  F00E         	goto	l5043
  7228  001DD8                     l5041:
  7229                           
  7230                           ; BSR set to: 0
  7231  001DD8  0E00               	movlw	0
  7232  001DDA  6F8E               	movwf	___fldiv@b& (0+255),b
  7233  001DDC  0E00               	movlw	0
  7234  001DDE  6F8F               	movwf	(___fldiv@b+1)& (0+255),b
  7235  001DE0  0E00               	movlw	0
  7236  001DE2  6F90               	movwf	(___fldiv@b+2)& (0+255),b
  7237  001DE4  0E00               	movlw	0
  7238  001DE6  6F91               	movwf	(___fldiv@b+3)& (0+255),b
  7239  001DE8                     l5043:
  7240                           
  7241                           ; BSR set to: 0
  7242  001DE8  5195               	movf	(___fldiv@a+3)& (0+255),w,b
  7243  001DEA  0B80               	andlw	128
  7244  001DEC  1B9E               	xorwf	___fldiv@sign& (0+255),f,b
  7245  001DEE                     
  7246                           ; BSR set to: 0
  7247  001DEE  5195               	movf	(___fldiv@a+3)& (0+255),w,b
  7248  001DF0  2595               	addwf	(___fldiv@a+3)& (0+255),w,b
  7249  001DF2  6FA6               	movwf	___fldiv@aexp& (0+255),b
  7250  001DF4                     
  7251                           ; BSR set to: 0
  7252  001DF4  AF94               	btfss	(___fldiv@a+2)& (0+255),7,b
  7253  001DF6  EFFF  F00E         	goto	u5851
  7254  001DFA  EF01  F00F         	goto	u5850
  7255  001DFE                     u5851:
  7256  001DFE  EF02  F00F         	goto	l5051
  7257  001E02                     u5850:
  7258  001E02                     
  7259                           ; BSR set to: 0
  7260  001E02  81A6               	bsf	___fldiv@aexp& (0+255),0,b
  7261  001E04                     l5051:
  7262                           
  7263                           ; BSR set to: 0
  7264  001E04  51A6               	movf	___fldiv@aexp& (0+255),w,b
  7265  001E06  B4D8               	btfsc	status,2,c
  7266  001E08  EF08  F00F         	goto	u5861
  7267  001E0C  EF0A  F00F         	goto	u5860
  7268  001E10                     u5861:
  7269  001E10  EF1F  F00F         	goto	l5061
  7270  001E14                     u5860:
  7271  001E14                     
  7272                           ; BSR set to: 0
  7273  001E14  29A6               	incf	___fldiv@aexp& (0+255),w,b
  7274  001E16  A4D8               	btfss	status,2,c
  7275  001E18  EF10  F00F         	goto	u5871
  7276  001E1C  EF12  F00F         	goto	u5870
  7277  001E20                     u5871:
  7278  001E20  EF1A  F00F         	goto	l5057
  7279  001E24                     u5870:
  7280  001E24                     
  7281                           ; BSR set to: 0
  7282  001E24  0E00               	movlw	0
  7283  001E26  6F92               	movwf	___fldiv@a& (0+255),b
  7284  001E28  0E00               	movlw	0
  7285  001E2A  6F93               	movwf	(___fldiv@a+1)& (0+255),b
  7286  001E2C  0E00               	movlw	0
  7287  001E2E  6F94               	movwf	(___fldiv@a+2)& (0+255),b
  7288  001E30  0E00               	movlw	0
  7289  001E32  6F95               	movwf	(___fldiv@a+3)& (0+255),b
  7290  001E34                     l5057:
  7291                           
  7292                           ; BSR set to: 0
  7293  001E34  8F94               	bsf	(___fldiv@a+2)& (0+255),7,b
  7294  001E36                     
  7295                           ; BSR set to: 0
  7296  001E36  0E00               	movlw	0
  7297  001E38  6F95               	movwf	(___fldiv@a+3)& (0+255),b
  7298  001E3A  EF27  F00F         	goto	l5063
  7299  001E3E                     l5061:
  7300                           
  7301                           ; BSR set to: 0
  7302  001E3E  0E00               	movlw	0
  7303  001E40  6F92               	movwf	___fldiv@a& (0+255),b
  7304  001E42  0E00               	movlw	0
  7305  001E44  6F93               	movwf	(___fldiv@a+1)& (0+255),b
  7306  001E46  0E00               	movlw	0
  7307  001E48  6F94               	movwf	(___fldiv@a+2)& (0+255),b
  7308  001E4A  0E00               	movlw	0
  7309  001E4C  6F95               	movwf	(___fldiv@a+3)& (0+255),b
  7310  001E4E                     l5063:
  7311                           
  7312                           ; BSR set to: 0
  7313  001E4E  5192               	movf	___fldiv@a& (0+255),w,b
  7314  001E50  1193               	iorwf	(___fldiv@a+1)& (0+255),w,b
  7315  001E52  1194               	iorwf	(___fldiv@a+2)& (0+255),w,b
  7316  001E54  1195               	iorwf	(___fldiv@a+3)& (0+255),w,b
  7317  001E56  A4D8               	btfss	status,2,c
  7318  001E58  EF30  F00F         	goto	u5881
  7319  001E5C  EF32  F00F         	goto	u5880
  7320  001E60                     u5881:
  7321  001E60  EF4A  F00F         	goto	l5075
  7322  001E64                     u5880:
  7323  001E64                     
  7324                           ; BSR set to: 0
  7325  001E64  0E00               	movlw	0
  7326  001E66  6F8E               	movwf	___fldiv@b& (0+255),b
  7327  001E68  0E00               	movlw	0
  7328  001E6A  6F8F               	movwf	(___fldiv@b+1)& (0+255),b
  7329  001E6C  0E00               	movlw	0
  7330  001E6E  6F90               	movwf	(___fldiv@b+2)& (0+255),b
  7331  001E70  0E00               	movlw	0
  7332  001E72  6F91               	movwf	(___fldiv@b+3)& (0+255),b
  7333  001E74                     
  7334                           ; BSR set to: 0
  7335  001E74  0E80               	movlw	128
  7336  001E76  1390               	iorwf	(___fldiv@b+2)& (0+255),f,b
  7337  001E78  0E7F               	movlw	127
  7338  001E7A  1391               	iorwf	(___fldiv@b+3)& (0+255),f,b
  7339  001E7C                     l5069:
  7340                           
  7341                           ; BSR set to: 0
  7342  001E7C  519E               	movf	___fldiv@sign& (0+255),w,b
  7343  001E7E  1391               	iorwf	(___fldiv@b+3)& (0+255),f,b
  7344  001E80                     
  7345                           ; BSR set to: 0
  7346  001E80  C08E  F08E         	movff	___fldiv@b,?___fldiv
  7347  001E84  C08F  F08F         	movff	___fldiv@b+1,?___fldiv+1
  7348  001E88  C090  F090         	movff	___fldiv@b+2,?___fldiv+2
  7349  001E8C  C091  F091         	movff	___fldiv@b+3,?___fldiv+3
  7350  001E90  EF8D  F010         	goto	l1056
  7351  001E94                     l5075:
  7352                           
  7353                           ; BSR set to: 0
  7354  001E94  51A5               	movf	___fldiv@bexp& (0+255),w,b
  7355  001E96  A4D8               	btfss	status,2,c
  7356  001E98  EF50  F00F         	goto	u5891
  7357  001E9C  EF52  F00F         	goto	u5890
  7358  001EA0                     u5891:
  7359  001EA0  EF5C  F00F         	goto	l5083
  7360  001EA4                     u5890:
  7361  001EA4                     
  7362                           ; BSR set to: 0
  7363  001EA4  0E00               	movlw	0
  7364  001EA6  6F8E               	movwf	?___fldiv& (0+255),b
  7365  001EA8  0E00               	movlw	0
  7366  001EAA  6F8F               	movwf	(?___fldiv+1)& (0+255),b
  7367  001EAC  0E00               	movlw	0
  7368  001EAE  6F90               	movwf	(?___fldiv+2)& (0+255),b
  7369  001EB0  0E00               	movlw	0
  7370  001EB2  6F91               	movwf	(?___fldiv+3)& (0+255),b
  7371  001EB4  EF8D  F010         	goto	l1056
  7372  001EB8                     l5083:
  7373                           
  7374                           ; BSR set to: 0
  7375  001EB8  51A6               	movf	___fldiv@aexp& (0+255),w,b
  7376  001EBA  C0A5  F096         	movff	___fldiv@bexp,??___fldiv
  7377  001EBE  6B97               	clrf	(??___fldiv+1)& (0+255),b
  7378  001EC0  5F96               	subwf	??___fldiv& (0+255),f,b
  7379  001EC2  0E00               	movlw	0
  7380  001EC4  5B97               	subwfb	(??___fldiv+1)& (0+255),f,b
  7381  001EC6  0E7F               	movlw	127
  7382  001EC8  2596               	addwf	??___fldiv& (0+255),w,b
  7383  001ECA  6F9F               	movwf	___fldiv@new_exp& (0+255),b
  7384  001ECC  0E00               	movlw	0
  7385  001ECE  2197               	addwfc	(??___fldiv+1)& (0+255),w,b
  7386  001ED0  6FA0               	movwf	(___fldiv@new_exp+1)& (0+255),b
  7387  001ED2                     
  7388                           ; BSR set to: 0
  7389  001ED2  C08E  F09A         	movff	___fldiv@b,___fldiv@rem
  7390  001ED6  C08F  F09B         	movff	___fldiv@b+1,___fldiv@rem+1
  7391  001EDA  C090  F09C         	movff	___fldiv@b+2,___fldiv@rem+2
  7392  001EDE  C091  F09D         	movff	___fldiv@b+3,___fldiv@rem+3
  7393  001EE2                     
  7394                           ; BSR set to: 0
  7395  001EE2  0E00               	movlw	0
  7396  001EE4  6F8E               	movwf	___fldiv@b& (0+255),b
  7397  001EE6  0E00               	movlw	0
  7398  001EE8  6F8F               	movwf	(___fldiv@b+1)& (0+255),b
  7399  001EEA  0E00               	movlw	0
  7400  001EEC  6F90               	movwf	(___fldiv@b+2)& (0+255),b
  7401  001EEE  0E00               	movlw	0
  7402  001EF0  6F91               	movwf	(___fldiv@b+3)& (0+255),b
  7403  001EF2                     
  7404                           ; BSR set to: 0
  7405  001EF2  0E00               	movlw	0
  7406  001EF4  6FA1               	movwf	___fldiv@grs& (0+255),b
  7407  001EF6  0E00               	movlw	0
  7408  001EF8  6FA2               	movwf	(___fldiv@grs+1)& (0+255),b
  7409  001EFA  0E00               	movlw	0
  7410  001EFC  6FA3               	movwf	(___fldiv@grs+2)& (0+255),b
  7411  001EFE  0E00               	movlw	0
  7412  001F00  6FA4               	movwf	(___fldiv@grs+3)& (0+255),b
  7413  001F02                     
  7414                           ; BSR set to: 0
  7415  001F02  0E00               	movlw	0
  7416  001F04  6FA6               	movwf	___fldiv@aexp& (0+255),b
  7417  001F06  EFBD  F00F         	goto	l1058
  7418  001F0A                     l5093:
  7419                           
  7420                           ; BSR set to: 0
  7421  001F0A  51A6               	movf	___fldiv@aexp& (0+255),w,b
  7422  001F0C  B4D8               	btfsc	status,2,c
  7423  001F0E  EF8B  F00F         	goto	u5901
  7424  001F12  EF8D  F00F         	goto	u5900
  7425  001F16                     u5901:
  7426  001F16  EFA4  F00F         	goto	l5101
  7427  001F1A                     u5900:
  7428  001F1A                     
  7429                           ; BSR set to: 0
  7430  001F1A  90D8               	bcf	status,0,c
  7431  001F1C  379A               	rlcf	___fldiv@rem& (0+255),f,b
  7432  001F1E  379B               	rlcf	(___fldiv@rem+1)& (0+255),f,b
  7433  001F20  379C               	rlcf	(___fldiv@rem+2)& (0+255),f,b
  7434  001F22  379D               	rlcf	(___fldiv@rem+3)& (0+255),f,b
  7435  001F24  90D8               	bcf	status,0,c
  7436  001F26  378E               	rlcf	___fldiv@b& (0+255),f,b
  7437  001F28  378F               	rlcf	(___fldiv@b+1)& (0+255),f,b
  7438  001F2A  3790               	rlcf	(___fldiv@b+2)& (0+255),f,b
  7439  001F2C  3791               	rlcf	(___fldiv@b+3)& (0+255),f,b
  7440  001F2E                     
  7441                           ; BSR set to: 0
  7442  001F2E  AFA4               	btfss	(___fldiv@grs+3)& (0+255),7,b
  7443  001F30  EF9C  F00F         	goto	u5911
  7444  001F34  EF9E  F00F         	goto	u5910
  7445  001F38                     u5911:
  7446  001F38  EF9F  F00F         	goto	l1061
  7447  001F3C                     u5910:
  7448  001F3C                     
  7449                           ; BSR set to: 0
  7450  001F3C  818E               	bsf	___fldiv@b& (0+255),0,b
  7451  001F3E                     l1061:
  7452                           
  7453                           ; BSR set to: 0
  7454  001F3E  90D8               	bcf	status,0,c
  7455  001F40  37A1               	rlcf	___fldiv@grs& (0+255),f,b
  7456  001F42  37A2               	rlcf	(___fldiv@grs+1)& (0+255),f,b
  7457  001F44  37A3               	rlcf	(___fldiv@grs+2)& (0+255),f,b
  7458  001F46  37A4               	rlcf	(___fldiv@grs+3)& (0+255),f,b
  7459  001F48                     l5101:
  7460                           
  7461                           ; BSR set to: 0
  7462  001F48  5192               	movf	___fldiv@a& (0+255),w,b
  7463  001F4A  5D9A               	subwf	___fldiv@rem& (0+255),w,b
  7464  001F4C  5193               	movf	(___fldiv@a+1)& (0+255),w,b
  7465  001F4E  599B               	subwfb	(___fldiv@rem+1)& (0+255),w,b
  7466  001F50  5194               	movf	(___fldiv@a+2)& (0+255),w,b
  7467  001F52  599C               	subwfb	(___fldiv@rem+2)& (0+255),w,b
  7468  001F54  5195               	movf	(___fldiv@a+3)& (0+255),w,b
  7469  001F56  599D               	subwfb	(___fldiv@rem+3)& (0+255),w,b
  7470  001F58  A0D8               	btfss	status,0,c
  7471  001F5A  EFB1  F00F         	goto	u5921
  7472  001F5E  EFB3  F00F         	goto	u5920
  7473  001F62                     u5921:
  7474  001F62  EFBC  F00F         	goto	l5107
  7475  001F66                     u5920:
  7476  001F66                     
  7477                           ; BSR set to: 0
  7478  001F66  8DA4               	bsf	(___fldiv@grs+3)& (0+255),6,b
  7479  001F68                     
  7480                           ; BSR set to: 0
  7481  001F68  5192               	movf	___fldiv@a& (0+255),w,b
  7482  001F6A  5F9A               	subwf	___fldiv@rem& (0+255),f,b
  7483  001F6C  5193               	movf	(___fldiv@a+1)& (0+255),w,b
  7484  001F6E  5B9B               	subwfb	(___fldiv@rem+1)& (0+255),f,b
  7485  001F70  5194               	movf	(___fldiv@a+2)& (0+255),w,b
  7486  001F72  5B9C               	subwfb	(___fldiv@rem+2)& (0+255),f,b
  7487  001F74  5195               	movf	(___fldiv@a+3)& (0+255),w,b
  7488  001F76  5B9D               	subwfb	(___fldiv@rem+3)& (0+255),f,b
  7489  001F78                     l5107:
  7490                           
  7491                           ; BSR set to: 0
  7492  001F78  2BA6               	incf	___fldiv@aexp& (0+255),f,b
  7493  001F7A                     l1058:
  7494                           
  7495                           ; BSR set to: 0
  7496  001F7A  0E19               	movlw	25
  7497  001F7C  65A6               	cpfsgt	___fldiv@aexp& (0+255),b
  7498  001F7E  EFC3  F00F         	goto	u5931
  7499  001F82  EFC5  F00F         	goto	u5930
  7500  001F86                     u5931:
  7501  001F86  EF85  F00F         	goto	l5093
  7502  001F8A                     u5930:
  7503  001F8A                     
  7504                           ; BSR set to: 0
  7505  001F8A  519A               	movf	___fldiv@rem& (0+255),w,b
  7506  001F8C  119B               	iorwf	(___fldiv@rem+1)& (0+255),w,b
  7507  001F8E  119C               	iorwf	(___fldiv@rem+2)& (0+255),w,b
  7508  001F90  119D               	iorwf	(___fldiv@rem+3)& (0+255),w,b
  7509  001F92  B4D8               	btfsc	status,2,c
  7510  001F94  EFCE  F00F         	goto	u5941
  7511  001F98  EFD0  F00F         	goto	u5940
  7512  001F9C                     u5941:
  7513  001F9C  EFE8  F00F         	goto	l5119
  7514  001FA0                     u5940:
  7515  001FA0                     
  7516                           ; BSR set to: 0
  7517  001FA0  81A1               	bsf	___fldiv@grs& (0+255),0,b
  7518  001FA2  EFE8  F00F         	goto	l5119
  7519  001FA6                     l5113:
  7520                           
  7521                           ; BSR set to: 0
  7522  001FA6  90D8               	bcf	status,0,c
  7523  001FA8  378E               	rlcf	___fldiv@b& (0+255),f,b
  7524  001FAA  378F               	rlcf	(___fldiv@b+1)& (0+255),f,b
  7525  001FAC  3790               	rlcf	(___fldiv@b+2)& (0+255),f,b
  7526  001FAE  3791               	rlcf	(___fldiv@b+3)& (0+255),f,b
  7527  001FB0                     
  7528                           ; BSR set to: 0
  7529  001FB0  AFA4               	btfss	(___fldiv@grs+3)& (0+255),7,b
  7530  001FB2  EFDD  F00F         	goto	u5951
  7531  001FB6  EFDF  F00F         	goto	u5950
  7532  001FBA                     u5951:
  7533  001FBA  EFE0  F00F         	goto	l1067
  7534  001FBE                     u5950:
  7535  001FBE                     
  7536                           ; BSR set to: 0
  7537  001FBE  818E               	bsf	___fldiv@b& (0+255),0,b
  7538  001FC0                     l1067:
  7539                           
  7540                           ; BSR set to: 0
  7541  001FC0  90D8               	bcf	status,0,c
  7542  001FC2  37A1               	rlcf	___fldiv@grs& (0+255),f,b
  7543  001FC4  37A2               	rlcf	(___fldiv@grs+1)& (0+255),f,b
  7544  001FC6  37A3               	rlcf	(___fldiv@grs+2)& (0+255),f,b
  7545  001FC8  37A4               	rlcf	(___fldiv@grs+3)& (0+255),f,b
  7546  001FCA  079F               	decf	___fldiv@new_exp& (0+255),f,b
  7547  001FCC  A0D8               	btfss	status,0,c
  7548  001FCE  07A0               	decf	(___fldiv@new_exp+1)& (0+255),f,b
  7549  001FD0                     l5119:
  7550                           
  7551                           ; BSR set to: 0
  7552  001FD0  AF90               	btfss	(___fldiv@b+2)& (0+255),7,b
  7553  001FD2  EFED  F00F         	goto	u5961
  7554  001FD6  EFEF  F00F         	goto	u5960
  7555  001FDA                     u5961:
  7556  001FDA  EFD3  F00F         	goto	l5113
  7557  001FDE                     u5960:
  7558  001FDE                     
  7559                           ; BSR set to: 0
  7560  001FDE  0E00               	movlw	0
  7561  001FE0  6FA6               	movwf	___fldiv@aexp& (0+255),b
  7562  001FE2                     
  7563                           ; BSR set to: 0
  7564  001FE2  AFA4               	btfss	(___fldiv@grs+3)& (0+255),7,b
  7565  001FE4  EFF6  F00F         	goto	u5971
  7566  001FE8  EFF8  F00F         	goto	u5970
  7567  001FEC                     u5971:
  7568  001FEC  EF1C  F010         	goto	l1069
  7569  001FF0                     u5970:
  7570  001FF0                     
  7571                           ; BSR set to: 0
  7572  001FF0  0EFF               	movlw	255
  7573  001FF2  15A1               	andwf	___fldiv@grs& (0+255),w,b
  7574  001FF4  6F96               	movwf	??___fldiv& (0+255),b
  7575  001FF6  0EFF               	movlw	255
  7576  001FF8  15A2               	andwf	(___fldiv@grs+1)& (0+255),w,b
  7577  001FFA  6F97               	movwf	(??___fldiv+1)& (0+255),b
  7578  001FFC  0EFF               	movlw	255
  7579  001FFE  15A3               	andwf	(___fldiv@grs+2)& (0+255),w,b
  7580  002000  6F98               	movwf	(??___fldiv+2)& (0+255),b
  7581  002002  0E7F               	movlw	127
  7582  002004  15A4               	andwf	(___fldiv@grs+3)& (0+255),w,b
  7583  002006  6F99               	movwf	(??___fldiv+3)& (0+255),b
  7584  002008  5196               	movf	??___fldiv& (0+255),w,b
  7585  00200A  1197               	iorwf	(??___fldiv+1)& (0+255),w,b
  7586  00200C  1198               	iorwf	(??___fldiv+2)& (0+255),w,b
  7587  00200E  1199               	iorwf	(??___fldiv+3)& (0+255),w,b
  7588  002010  B4D8               	btfsc	status,2,c
  7589  002012  EF0D  F010         	goto	u5981
  7590  002016  EF0F  F010         	goto	u5980
  7591  00201A                     u5981:
  7592  00201A  EF13  F010         	goto	l1070
  7593  00201E                     u5980:
  7594  00201E                     l5127:
  7595                           
  7596                           ; BSR set to: 0
  7597  00201E  0E01               	movlw	1
  7598  002020  6FA6               	movwf	___fldiv@aexp& (0+255),b
  7599  002022  EF1C  F010         	goto	l1069
  7600  002026                     l1070:
  7601                           
  7602                           ; BSR set to: 0
  7603  002026  A18E               	btfss	___fldiv@b& (0+255),0,b
  7604  002028  EF18  F010         	goto	u5991
  7605  00202C  EF1A  F010         	goto	u5990
  7606  002030                     u5991:
  7607  002030  EF1C  F010         	goto	l1069
  7608  002034                     u5990:
  7609  002034  EF0F  F010         	goto	l5127
  7610  002038                     l1069:
  7611                           
  7612                           ; BSR set to: 0
  7613  002038  51A6               	movf	___fldiv@aexp& (0+255),w,b
  7614  00203A  B4D8               	btfsc	status,2,c
  7615  00203C  EF22  F010         	goto	u6001
  7616  002040  EF24  F010         	goto	u6000
  7617  002044                     u6001:
  7618  002044  EF48  F010         	goto	l5139
  7619  002048                     u6000:
  7620  002048                     
  7621                           ; BSR set to: 0
  7622  002048  0E01               	movlw	1
  7623  00204A  278E               	addwf	___fldiv@b& (0+255),f,b
  7624  00204C  0E00               	movlw	0
  7625  00204E  238F               	addwfc	(___fldiv@b+1)& (0+255),f,b
  7626  002050  2390               	addwfc	(___fldiv@b+2)& (0+255),f,b
  7627  002052  2391               	addwfc	(___fldiv@b+3)& (0+255),f,b
  7628  002054                     
  7629                           ; BSR set to: 0
  7630  002054  A191               	btfss	(___fldiv@b+3)& (0+255),0,b
  7631  002056  EF2F  F010         	goto	u6011
  7632  00205A  EF31  F010         	goto	u6010
  7633  00205E                     u6011:
  7634  00205E  EF48  F010         	goto	l5139
  7635  002062                     u6010:
  7636  002062                     
  7637                           ; BSR set to: 0
  7638  002062  C08E  F096         	movff	___fldiv@b,??___fldiv
  7639  002066  C08F  F097         	movff	___fldiv@b+1,??___fldiv+1
  7640  00206A  C090  F098         	movff	___fldiv@b+2,??___fldiv+2
  7641  00206E  C091  F099         	movff	___fldiv@b+3,??___fldiv+3
  7642  002072  3599               	rlcf	(??___fldiv+3)& (0+255),w,b
  7643  002074  3399               	rrcf	(??___fldiv+3)& (0+255),f,b
  7644  002076  3398               	rrcf	(??___fldiv+2)& (0+255),f,b
  7645  002078  3397               	rrcf	(??___fldiv+1)& (0+255),f,b
  7646  00207A  3396               	rrcf	??___fldiv& (0+255),f,b
  7647  00207C  C096  F08E         	movff	??___fldiv,___fldiv@b
  7648  002080  C097  F08F         	movff	??___fldiv+1,___fldiv@b+1
  7649  002084  C098  F090         	movff	??___fldiv+2,___fldiv@b+2
  7650  002088  C099  F091         	movff	??___fldiv+3,___fldiv@b+3
  7651  00208C                     
  7652                           ; BSR set to: 0
  7653  00208C  4B9F               	infsnz	___fldiv@new_exp& (0+255),f,b
  7654  00208E  2BA0               	incf	(___fldiv@new_exp+1)& (0+255),f,b
  7655  002090                     l5139:
  7656                           
  7657                           ; BSR set to: 0
  7658  002090  BFA0               	btfsc	(___fldiv@new_exp+1)& (0+255),7,b
  7659  002092  EF53  F010         	goto	u6021
  7660  002096  51A0               	movf	(___fldiv@new_exp+1)& (0+255),w,b
  7661  002098  E108               	bnz	u6020
  7662  00209A  299F               	incf	___fldiv@new_exp& (0+255),w,b
  7663  00209C  A0D8               	btfss	status,0,c
  7664  00209E  EF53  F010         	goto	u6021
  7665  0020A2  EF55  F010         	goto	u6020
  7666  0020A6                     u6021:
  7667  0020A6  EF60  F010         	goto	l5143
  7668  0020AA                     u6020:
  7669  0020AA                     
  7670                           ; BSR set to: 0
  7671  0020AA  0E00               	movlw	0
  7672  0020AC  6FA0               	movwf	(___fldiv@new_exp+1)& (0+255),b
  7673  0020AE  699F               	setf	___fldiv@new_exp& (0+255),b
  7674  0020B0  0E00               	movlw	0
  7675  0020B2  6F8E               	movwf	___fldiv@b& (0+255),b
  7676  0020B4  0E00               	movlw	0
  7677  0020B6  6F8F               	movwf	(___fldiv@b+1)& (0+255),b
  7678  0020B8  0E00               	movlw	0
  7679  0020BA  6F90               	movwf	(___fldiv@b+2)& (0+255),b
  7680  0020BC  0E00               	movlw	0
  7681  0020BE  6F91               	movwf	(___fldiv@b+3)& (0+255),b
  7682  0020C0                     l5143:
  7683                           
  7684                           ; BSR set to: 0
  7685  0020C0  BFA0               	btfsc	(___fldiv@new_exp+1)& (0+255),7,b
  7686  0020C2  EF6D  F010         	goto	u6030
  7687  0020C6  51A0               	movf	(___fldiv@new_exp+1)& (0+255),w,b
  7688  0020C8  E106               	bnz	u6031
  7689  0020CA  059F               	decf	___fldiv@new_exp& (0+255),w,b
  7690  0020CC  B0D8               	btfsc	status,0,c
  7691  0020CE  EF6B  F010         	goto	u6031
  7692  0020D2  EF6D  F010         	goto	u6030
  7693  0020D6                     u6031:
  7694  0020D6  EF7B  F010         	goto	l5147
  7695  0020DA                     u6030:
  7696  0020DA                     
  7697                           ; BSR set to: 0
  7698  0020DA  0E00               	movlw	0
  7699  0020DC  6FA0               	movwf	(___fldiv@new_exp+1)& (0+255),b
  7700  0020DE  0E00               	movlw	0
  7701  0020E0  6F9F               	movwf	___fldiv@new_exp& (0+255),b
  7702  0020E2  0E00               	movlw	0
  7703  0020E4  6F8E               	movwf	___fldiv@b& (0+255),b
  7704  0020E6  0E00               	movlw	0
  7705  0020E8  6F8F               	movwf	(___fldiv@b+1)& (0+255),b
  7706  0020EA  0E00               	movlw	0
  7707  0020EC  6F90               	movwf	(___fldiv@b+2)& (0+255),b
  7708  0020EE  0E00               	movlw	0
  7709  0020F0  6F91               	movwf	(___fldiv@b+3)& (0+255),b
  7710  0020F2  0E00               	movlw	0
  7711  0020F4  6F9E               	movwf	___fldiv@sign& (0+255),b
  7712  0020F6                     l5147:
  7713                           
  7714                           ; BSR set to: 0
  7715  0020F6  C09F  F0A5         	movff	___fldiv@new_exp,___fldiv@bexp
  7716  0020FA                     
  7717                           ; BSR set to: 0
  7718  0020FA  A1A5               	btfss	___fldiv@bexp& (0+255),0,b
  7719  0020FC  EF82  F010         	goto	u6041
  7720  002100  EF84  F010         	goto	u6040
  7721  002104                     u6041:
  7722  002104  EF87  F010         	goto	l5153
  7723  002108                     u6040:
  7724  002108                     
  7725                           ; BSR set to: 0
  7726  002108  8F90               	bsf	(___fldiv@b+2)& (0+255),7,b
  7727  00210A  EF88  F010         	goto	l5155
  7728  00210E                     l5153:
  7729                           
  7730                           ; BSR set to: 0
  7731  00210E  9F90               	bcf	(___fldiv@b+2)& (0+255),7,b
  7732  002110                     l5155:
  7733                           
  7734                           ; BSR set to: 0
  7735  002110  90D8               	bcf	status,0,c
  7736  002112  31A5               	rrcf	___fldiv@bexp& (0+255),w,b
  7737  002114  6F91               	movwf	(___fldiv@b+3)& (0+255),b
  7738  002116  EF3E  F00F         	goto	l5069
  7739  00211A                     l1056:
  7740                           
  7741                           ; BSR set to: 0
  7742  00211A  0012               	return		;funcret
  7743  00211C                     __end_of___fldiv:
  7744                           	opt callstack 0
  7745                           
  7746 ;; *************** function _I2C_Free *****************
  7747 ;; Defined at:
  7748 ;;		line 1177 in file "I2C.c"
  7749 ;; Parameters:    Size  Location     Type
  7750 ;;		None
  7751 ;; Auto vars:     Size  Location     Type
  7752 ;;  Pointer         2   57[BANK0 ] PTR PTR unsigned char 
  7753 ;;		 -> array.Tab.Pointer(2), array.Tab(60), nulPointer(2), 
  7754 ;;  i               1   59[BANK0 ] unsigned char 
  7755 ;; Return value:  Size  Location     Type
  7756 ;;                  2   69[None  ] int 
  7757 ;; Registers used:
  7758 ;;		wreg, fsr1l, fsr1h, fsr2l, fsr2h, status,2, status,0, prodl, prodh, cstack
  7759 ;; Tracked objects:
  7760 ;;		On entry : 0/0
  7761 ;;		On exit  : 0/0
  7762 ;;		Unchanged: 0/0
  7763 ;; Data sizes:     COMRAM   BANK0   BANK1   BANK2   BANK3   BANK4   BANK5
  7764 ;;      Params:         0       0       0       0       0       0       0
  7765 ;;      Locals:         0       3       0       0       0       0       0
  7766 ;;      Temps:          0       0       0       0       0       0       0
  7767 ;;      Totals:         0       3       0       0       0       0       0
  7768 ;;Total ram usage:        3 bytes
  7769 ;; Hardware stack levels used:    1
  7770 ;; Hardware stack levels required when called:    7
  7771 ;; This function calls:
  7772 ;;		_getFree
  7773 ;;		_getMemoryFromID
  7774 ;; This function is called by:
  7775 ;;		_main
  7776 ;; This function uses a non-reentrant model
  7777 ;;
  7778                           
  7779                           	psect	text26
  7780  0037E8                     __ptext26:
  7781                           	opt callstack 0
  7782  0037E8                     _I2C_Free:
  7783                           	opt callstack 23
  7784  0037E8                     
  7785                           ;I2C.c: 1179:     u8 i;;I2C.c: 1184:     for (i = 0; i < I2CMemory.sizePoint; i++)
  7786  0037E8  0E00               	movlw	0
  7787  0037EA  0100               	movlb	0	; () banked
  7788  0037EC  6F9B               	movwf	I2C_Free@i& (0+255),b
  7789  0037EE  EF13  F01C         	goto	l6221
  7790  0037F2                     l6215:
  7791                           
  7792                           ; BSR set to: 0
  7793                           ;I2C.c: 1185:     {;I2C.c: 1186:         t_mem Pointer = getMemoryFromID(I2CMemory.Point
      +                          Tab[i], 1);
  7794  0037F2  0E01               	movlw	1
  7795  0037F4  6F80               	movwf	getMemoryFromID@memoryNumber& (0+255),b
  7796  0037F6  0E00               	movlw	low _I2CMemory
  7797  0037F8  259B               	addwf	I2C_Free@i& (0+255),w,b
  7798  0037FA  6ED9               	movwf	fsr2l,c
  7799  0037FC  6ADA               	clrf	fsr2h,c
  7800  0037FE  0E01               	movlw	high _I2CMemory
  7801  003800  22DA               	addwfc	fsr2h,f,c
  7802  003802  50DF               	movf	indf2,w,c
  7803  003804  EC40  F019         	call	_getMemoryFromID
  7804  003808  C080  F099         	movff	?_getMemoryFromID,I2C_Free@Pointer
  7805  00380C  C081  F09A         	movff	?_getMemoryFromID+1,I2C_Free@Pointer+1
  7806  003810                     
  7807                           ;I2C.c: 1187:         getFree(Pointer, 1);
  7808  003810  C099  F08B         	movff	I2C_Free@Pointer,getFree@Pointer
  7809  003814  C09A  F08C         	movff	I2C_Free@Pointer+1,getFree@Pointer+1
  7810  003818  0E01               	movlw	1
  7811  00381A  0100               	movlb	0	; () banked
  7812  00381C  6F8D               	movwf	getFree@memoryNumber& (0+255),b
  7813  00381E  EC7C  F003         	call	_getFree	;wreg free
  7814  003822                     
  7815                           ;I2C.c: 1188:     }
  7816  003822  0100               	movlb	0	; () banked
  7817  003824  2B9B               	incf	I2C_Free@i& (0+255),f,b
  7818  003826                     l6221:
  7819                           
  7820                           ; BSR set to: 0
  7821  003826  0101               	movlb	1	; () banked
  7822  003828  510A               	movf	(_I2CMemory+10)& (0+255),w,b
  7823  00382A  0100               	movlb	0	; () banked
  7824  00382C  5D9B               	subwf	I2C_Free@i& (0+255),w,b
  7825  00382E  A0D8               	btfss	status,0,c
  7826  003830  EF1C  F01C         	goto	u7621
  7827  003834  EF1E  F01C         	goto	u7620
  7828  003838                     u7621:
  7829  003838  EFF9  F01B         	goto	l6215
  7830  00383C                     u7620:
  7831  00383C                     
  7832                           ; BSR set to: 0
  7833                           ;I2C.c: 1190:     I2CMemory.sizePoint = 0;
  7834  00383C  0E00               	movlw	0
  7835  00383E  0101               	movlb	1	; () banked
  7836  003840  6F0A               	movwf	(_I2CMemory+10)& (0+255),b
  7837  003842                     
  7838                           ; BSR set to: 1
  7839  003842  0012               	return		;funcret
  7840  003844                     __end_of_I2C_Free:
  7841                           	opt callstack 0
  7842                           
  7843 ;; *************** function _getMemoryFromID *****************
  7844 ;; Defined at:
  7845 ;;		line 316 in file "I2C_conf/memory/memory.c"
  7846 ;; Parameters:    Size  Location     Type
  7847 ;;  ID              1    wreg     unsigned char 
  7848 ;;  memoryNumber    1   32[BANK0 ] unsigned char 
  7849 ;; Auto vars:     Size  Location     Type
  7850 ;;  ID              1   39[BANK0 ] unsigned char 
  7851 ;;  dP              2   41[BANK0 ] PTR PTR unsigned char 
  7852 ;;		 -> array.Tab.Pointer(2), array.Tab(60), nulPointer(2), 
  7853 ;;  i               1   43[BANK0 ] unsigned char 
  7854 ;;  indice          1   40[BANK0 ] unsigned char 
  7855 ;; Return value:  Size  Location     Type
  7856 ;;                  2   32[BANK0 ] PTR PTR unsigned char 
  7857 ;; Registers used:
  7858 ;;		wreg, fsr2l, fsr2h, status,2, status,0, prodl, prodh
  7859 ;; Tracked objects:
  7860 ;;		On entry : 0/0
  7861 ;;		On exit  : 0/0
  7862 ;;		Unchanged: 0/0
  7863 ;; Data sizes:     COMRAM   BANK0   BANK1   BANK2   BANK3   BANK4   BANK5
  7864 ;;      Params:         0       2       0       0       0       0       0
  7865 ;;      Locals:         0       5       0       0       0       0       0
  7866 ;;      Temps:          0       5       0       0       0       0       0
  7867 ;;      Totals:         0      12       0       0       0       0       0
  7868 ;;Total ram usage:       12 bytes
  7869 ;; Hardware stack levels used:    1
  7870 ;; Hardware stack levels required when called:    5
  7871 ;; This function calls:
  7872 ;;		Nothing
  7873 ;; This function is called by:
  7874 ;;		_I2C_TabRefresh
  7875 ;;		_I2C_Free
  7876 ;; This function uses a non-reentrant model
  7877 ;;
  7878                           
  7879                           	psect	text27
  7880  003280                     __ptext27:
  7881                           	opt callstack 0
  7882  003280                     _getMemoryFromID:
  7883                           	opt callstack 23
  7884                           
  7885                           ; BSR set to: 1
  7886                           ;incstack = 0
  7887                           ;getMemoryFromID@ID stored from wreg
  7888  003280  0100               	movlb	0	; () banked
  7889  003282  6F87               	movwf	getMemoryFromID@ID& (0+255),b
  7890  003284                     
  7891                           ;I2C_conf/memory/memory.c: 316: t_mem getMemoryFromID(u8 ID, u8 memoryNumber);I2C_conf/m
      +                          emory/memory.c: 317: {;I2C_conf/memory/memory.c: 318:     u8 i;;I2C_conf/memory/memory.c
      +                          : 319:     t_mem dP;;I2C_conf/memory/memory.c: 320:     u8 indice = 10 + 1;
  7892  003284  0E0B               	movlw	11
  7893  003286  0100               	movlb	0	; () banked
  7894  003288  6F88               	movwf	getMemoryFromID@indice& (0+255),b
  7895                           
  7896                           ;I2C_conf/memory/memory.c: 321:     for(i = 0; i < 10 ; i++)
  7897  00328A  0E00               	movlw	0
  7898  00328C  6F8B               	movwf	getMemoryFromID@i& (0+255),b
  7899  00328E                     l4973:
  7900                           
  7901                           ; BSR set to: 0
  7902                           ;I2C_conf/memory/memory.c: 322:     {;I2C_conf/memory/memory.c: 323:         if(ID == ar
      +                          ray[memoryNumber].Tab[i].ID)
  7903  00328E  518B               	movf	getMemoryFromID@i& (0+255),w,b
  7904  003290  0D06               	mullw	6
  7905  003292  CFF3 F082          	movff	prodl,??_getMemoryFromID
  7906  003296  CFF4 F083          	movff	prodh,??_getMemoryFromID+1
  7907  00329A  5180               	movf	getMemoryFromID@memoryNumber& (0+255),w,b
  7908  00329C  0D3D               	mullw	61
  7909  00329E  0E00               	movlw	low _array
  7910  0032A0  6F84               	movwf	(??_getMemoryFromID+2)& (0+255),b
  7911  0032A2  0E02               	movlw	high _array
  7912  0032A4  6F85               	movwf	(??_getMemoryFromID+3)& (0+255),b
  7913  0032A6  0E04               	movlw	4
  7914  0032A8  2784               	addwf	(??_getMemoryFromID+2)& (0+255),f,b
  7915  0032AA  0E00               	movlw	0
  7916  0032AC  2385               	addwfc	(??_getMemoryFromID+3)& (0+255),f,b
  7917  0032AE  50F3               	movf	243,w,c
  7918  0032B0  2784               	addwf	(??_getMemoryFromID+2)& (0+255),f,b
  7919  0032B2  50F4               	movf	244,w,c
  7920  0032B4  2385               	addwfc	(??_getMemoryFromID+3)& (0+255),f,b
  7921  0032B6  5182               	movf	??_getMemoryFromID& (0+255),w,b
  7922  0032B8  2584               	addwf	(??_getMemoryFromID+2)& (0+255),w,b
  7923  0032BA  6ED9               	movwf	fsr2l,c
  7924  0032BC  5183               	movf	(??_getMemoryFromID+1)& (0+255),w,b
  7925  0032BE  2185               	addwfc	(??_getMemoryFromID+3)& (0+255),w,b
  7926  0032C0  6EDA               	movwf	fsr2h,c
  7927  0032C2  5187               	movf	getMemoryFromID@ID& (0+255),w,b
  7928  0032C4  18DE               	xorwf	postinc2,w,c
  7929  0032C6  A4D8               	btfss	status,2,c
  7930  0032C8  EF68  F019         	goto	u5761
  7931  0032CC  EF6A  F019         	goto	u5760
  7932  0032D0                     u5761:
  7933  0032D0  EF6E  F019         	goto	l4977
  7934  0032D4                     u5760:
  7935  0032D4                     
  7936                           ; BSR set to: 0
  7937                           ;I2C_conf/memory/memory.c: 324:         {;I2C_conf/memory/memory.c: 325:             ind
      +                          ice = i;
  7938  0032D4  C08B  F088         	movff	getMemoryFromID@i,getMemoryFromID@indice
  7939                           
  7940                           ;I2C_conf/memory/memory.c: 326:             break;
  7941  0032D8  EF77  F019         	goto	l4981
  7942  0032DC                     l4977:
  7943                           
  7944                           ; BSR set to: 0
  7945                           ;I2C_conf/memory/memory.c: 328:     }
  7946  0032DC  2B8B               	incf	getMemoryFromID@i& (0+255),f,b
  7947  0032DE                     
  7948                           ; BSR set to: 0
  7949  0032DE  0E09               	movlw	9
  7950  0032E0  658B               	cpfsgt	getMemoryFromID@i& (0+255),b
  7951  0032E2  EF75  F019         	goto	u5771
  7952  0032E6  EF77  F019         	goto	u5770
  7953  0032EA                     u5771:
  7954  0032EA  EF47  F019         	goto	l4973
  7955  0032EE                     u5770:
  7956  0032EE                     l4981:
  7957                           
  7958                           ; BSR set to: 0
  7959                           ;I2C_conf/memory/memory.c: 329:     if(indice == (10 + 1))
  7960  0032EE  0E0B               	movlw	11
  7961  0032F0  1988               	xorwf	getMemoryFromID@indice& (0+255),w,b
  7962  0032F2  A4D8               	btfss	status,2,c
  7963  0032F4  EF7E  F019         	goto	u5781
  7964  0032F8  EF80  F019         	goto	u5780
  7965  0032FC                     u5781:
  7966  0032FC  EF8A  F019         	goto	l4987
  7967  003300                     u5780:
  7968  003300                     l4983:
  7969                           
  7970                           ; BSR set to: 0
  7971                           ;I2C_conf/memory/memory.c: 330:     {;I2C_conf/memory/memory.c: 331:         dP = &nulPo
      +                          inter;
  7972  003300  0EB2               	movlw	low _nulPointer
  7973  003302  6F89               	movwf	getMemoryFromID@dP& (0+255),b
  7974  003304  0E01               	movlw	high _nulPointer
  7975  003306  6F8A               	movwf	(getMemoryFromID@dP+1)& (0+255),b
  7976                           
  7977                           ;I2C_conf/memory/memory.c: 332:         return dP;
  7978  003308  C089  F080         	movff	getMemoryFromID@dP,?_getMemoryFromID
  7979  00330C  C08A  F081         	movff	getMemoryFromID@dP+1,?_getMemoryFromID+1
  7980  003310  EFC8  F019         	goto	l401
  7981  003314                     l4987:
  7982                           
  7983                           ; BSR set to: 0
  7984                           ;I2C_conf/memory/memory.c: 334:     if(array[memoryNumber].Tab[indice].State == 0)
  7985  003314  5188               	movf	getMemoryFromID@indice& (0+255),w,b
  7986  003316  0D06               	mullw	6
  7987  003318  CFF3 F082          	movff	prodl,??_getMemoryFromID
  7988  00331C  CFF4 F083          	movff	prodh,??_getMemoryFromID+1
  7989  003320  5180               	movf	getMemoryFromID@memoryNumber& (0+255),w,b
  7990  003322  0D3D               	mullw	61
  7991  003324  0E00               	movlw	low _array
  7992  003326  6F84               	movwf	(??_getMemoryFromID+2)& (0+255),b
  7993  003328  0E02               	movlw	high _array
  7994  00332A  6F85               	movwf	(??_getMemoryFromID+3)& (0+255),b
  7995  00332C  0E03               	movlw	3
  7996  00332E  2784               	addwf	(??_getMemoryFromID+2)& (0+255),f,b
  7997  003330  0E00               	movlw	0
  7998  003332  2385               	addwfc	(??_getMemoryFromID+3)& (0+255),f,b
  7999  003334  50F3               	movf	243,w,c
  8000  003336  2784               	addwf	(??_getMemoryFromID+2)& (0+255),f,b
  8001  003338  50F4               	movf	244,w,c
  8002  00333A  2385               	addwfc	(??_getMemoryFromID+3)& (0+255),f,b
  8003  00333C  5182               	movf	??_getMemoryFromID& (0+255),w,b
  8004  00333E  2584               	addwf	(??_getMemoryFromID+2)& (0+255),w,b
  8005  003340  6ED9               	movwf	fsr2l,c
  8006  003342  5183               	movf	(??_getMemoryFromID+1)& (0+255),w,b
  8007  003344  2185               	addwfc	(??_getMemoryFromID+3)& (0+255),w,b
  8008  003346  6EDA               	movwf	fsr2h,c
  8009  003348  50DF               	movf	indf2,w,c
  8010  00334A  A4D8               	btfss	status,2,c
  8011  00334C  EFAA  F019         	goto	u5791
  8012  003350  EFAC  F019         	goto	u5790
  8013  003354                     u5791:
  8014  003354  EFAE  F019         	goto	l4995
  8015  003358                     u5790:
  8016  003358  EF80  F019         	goto	l4983
  8017  00335C                     l4995:
  8018                           
  8019                           ; BSR set to: 0
  8020                           ;I2C_conf/memory/memory.c: 340:     {;I2C_conf/memory/memory.c: 341:         dP = &array
      +                          [memoryNumber].Tab[indice].Pointer;
  8021  00335C  5188               	movf	getMemoryFromID@indice& (0+255),w,b
  8022  00335E  0D06               	mullw	6
  8023  003360  CFF3 F082          	movff	prodl,??_getMemoryFromID
  8024  003364  CFF4 F083          	movff	prodh,??_getMemoryFromID+1
  8025  003368  5180               	movf	getMemoryFromID@memoryNumber& (0+255),w,b
  8026  00336A  0D3D               	mullw	61
  8027  00336C  0E00               	movlw	low _array
  8028  00336E  6F84               	movwf	(??_getMemoryFromID+2)& (0+255),b
  8029  003370  0E02               	movlw	high _array
  8030  003372  6F85               	movwf	(??_getMemoryFromID+3)& (0+255),b
  8031  003374  50F3               	movf	243,w,c
  8032  003376  2784               	addwf	(??_getMemoryFromID+2)& (0+255),f,b
  8033  003378  50F4               	movf	244,w,c
  8034  00337A  2385               	addwfc	(??_getMemoryFromID+3)& (0+255),f,b
  8035  00337C  5182               	movf	??_getMemoryFromID& (0+255),w,b
  8036  00337E  2584               	addwf	(??_getMemoryFromID+2)& (0+255),w,b
  8037  003380  6F89               	movwf	getMemoryFromID@dP& (0+255),b
  8038  003382  5183               	movf	(??_getMemoryFromID+1)& (0+255),w,b
  8039  003384  2185               	addwfc	(??_getMemoryFromID+3)& (0+255),w,b
  8040  003386  6F8A               	movwf	(getMemoryFromID@dP+1)& (0+255),b
  8041  003388                     
  8042                           ; BSR set to: 0
  8043                           ;I2C_conf/memory/memory.c: 342:         return dP;
  8044  003388  C089  F080         	movff	getMemoryFromID@dP,?_getMemoryFromID
  8045  00338C  C08A  F081         	movff	getMemoryFromID@dP+1,?_getMemoryFromID+1
  8046  003390                     l401:
  8047                           
  8048                           ; BSR set to: 0
  8049  003390  0012               	return		;funcret
  8050  003392                     __end_of_getMemoryFromID:
  8051                           	opt callstack 0
  8052                           
  8053 ;; *************** function _getFree *****************
  8054 ;; Defined at:
  8055 ;;		line 152 in file "I2C_conf/memory/memory.c"
  8056 ;; Parameters:    Size  Location     Type
  8057 ;;  Pointer         2   43[BANK0 ] PTR PTR unsigned char 
  8058 ;;		 -> array.Tab.Pointer(2), array.Tab(60), nulPointer(2), 
  8059 ;;  memoryNumber    1   45[BANK0 ] unsigned char 
  8060 ;; Auto vars:     Size  Location     Type
  8061 ;;  tab            64    0[BANK1 ] unsigned char [64]
  8062 ;;  tabPoint        2   64[BANK1 ] PTR unsigned char 
  8063 ;;		 -> getFree@tab(64), 
  8064 ;;  i               1   67[BANK1 ] unsigned char 
  8065 ;;  indice          1   66[BANK1 ] unsigned char 
  8066 ;; Return value:  Size  Location     Type
  8067 ;;                  1    wreg      void 
  8068 ;; Registers used:
  8069 ;;		wreg, fsr1l, fsr1h, fsr2l, fsr2h, status,2, status,0, prodl, prodh, cstack
  8070 ;; Tracked objects:
  8071 ;;		On entry : 0/0
  8072 ;;		On exit  : 0/0
  8073 ;;		Unchanged: 0/0
  8074 ;; Data sizes:     COMRAM   BANK0   BANK1   BANK2   BANK3   BANK4   BANK5
  8075 ;;      Params:         0       3       0       0       0       0       0
  8076 ;;      Locals:         0       0      68       0       0       0       0
  8077 ;;      Temps:          0      11       0       0       0       0       0
  8078 ;;      Totals:         0      14      68       0       0       0       0
  8079 ;;Total ram usage:       82 bytes
  8080 ;; Hardware stack levels used:    1
  8081 ;; Hardware stack levels required when called:    6
  8082 ;; This function calls:
  8083 ;;		_memcpy
  8084 ;; This function is called by:
  8085 ;;		_I2C_TabRefresh
  8086 ;;		_I2C_Free
  8087 ;; This function uses a non-reentrant model
  8088 ;;
  8089                           
  8090                           	psect	text28
  8091  0006F8                     __ptext28:
  8092                           	opt callstack 0
  8093  0006F8                     _getFree:
  8094                           	opt callstack 22
  8095  0006F8                     
  8096                           ;I2C_conf/memory/memory.c: 152: void getFree(t_mem Pointer, u8 memoryNumber);I2C_conf/me
      +                          mory/memory.c: 153: {;I2C_conf/memory/memory.c: 154:     if(*Pointer != ((void*)0))
  8097  0006F8  C08B  FFD9         	movff	getFree@Pointer,fsr2l
  8098  0006FC  C08C  FFDA         	movff	getFree@Pointer+1,fsr2h
  8099  000700  50DE               	movf	postinc2,w,c
  8100  000702  10DE               	iorwf	postinc2,w,c
  8101  000704  B4D8               	btfsc	status,2,c
  8102  000706  EF87  F003         	goto	u5671
  8103  00070A  EF89  F003         	goto	u5670
  8104  00070E                     u5671:
  8105  00070E  EF09  F006         	goto	l369
  8106  000712                     u5670:
  8107  000712                     
  8108                           ;I2C_conf/memory/memory.c: 155:     {;I2C_conf/memory/memory.c: 156:         u8 i;;I2C_c
      +                          onf/memory/memory.c: 157:         u8 *tabPoint;;I2C_conf/memory/memory.c: 158:         u
      +                          8 tab[64];;I2C_conf/memory/memory.c: 159:         memcpy(tab , memory[memoryNumber].pile
      +                          , 64);
  8109  000712  0EB4               	movlw	low getFree@tab
  8110  000714  0100               	movlb	0	; () banked
  8111  000716  6F80               	movwf	memcpy@d1& (0+255),b
  8112  000718  0E01               	movlw	high getFree@tab
  8113  00071A  6F81               	movwf	(memcpy@d1+1)& (0+255),b
  8114  00071C  518D               	movf	getFree@memoryNumber& (0+255),w,b
  8115  00071E  0D41               	mullw	65
  8116  000720  0E7A               	movlw	low _memory
  8117  000722  24F3               	addwf	243,w,c
  8118  000724  6F82               	movwf	memcpy@s1& (0+255),b
  8119  000726  0E02               	movlw	high _memory
  8120  000728  20F4               	addwfc	prodh,w,c
  8121  00072A  6F83               	movwf	(memcpy@s1+1)& (0+255),b
  8122  00072C  0E00               	movlw	0
  8123  00072E  6F85               	movwf	(memcpy@n+1)& (0+255),b
  8124  000730  0E40               	movlw	64
  8125  000732  6F84               	movwf	memcpy@n& (0+255),b
  8126  000734  EC22  F01C         	call	_memcpy	;wreg free
  8127  000738                     
  8128                           ;I2C_conf/memory/memory.c: 160:         u8 indice = 0;
  8129  000738  0E00               	movlw	0
  8130  00073A  0101               	movlb	1	; () banked
  8131  00073C  6FF6               	movwf	getFree@indice& (0+255),b
  8132  00073E                     
  8133                           ; BSR set to: 1
  8134                           ;I2C_conf/memory/memory.c: 161:         for(i = 0; i < 10 ; i++)
  8135  00073E  0E00               	movlw	0
  8136  000740  6FF7               	movwf	getFree@i& (0+255),b
  8137  000742                     l4921:
  8138                           
  8139                           ; BSR set to: 1
  8140                           ;I2C_conf/memory/memory.c: 162:         {;I2C_conf/memory/memory.c: 163:             if(
      +                          Pointer == &array[memoryNumber].Tab[i].Pointer)
  8141  000742  0100               	movlb	0	; () banked
  8142  000744  518D               	movf	getFree@memoryNumber& (0+255),w,b
  8143  000746  0D3D               	mullw	61
  8144  000748  0E00               	movlw	low _array
  8145  00074A  6F8E               	movwf	??_getFree& (0+255),b
  8146  00074C  0E02               	movlw	high _array
  8147  00074E  6F8F               	movwf	(??_getFree+1)& (0+255),b
  8148  000750  50F3               	movf	243,w,c
  8149  000752  278E               	addwf	??_getFree& (0+255),f,b
  8150  000754  50F4               	movf	244,w,c
  8151  000756  238F               	addwfc	(??_getFree+1)& (0+255),f,b
  8152  000758  0101               	movlb	1	; () banked
  8153  00075A  51F7               	movf	getFree@i& (0+255),w,b
  8154  00075C  0D06               	mullw	6
  8155  00075E  50F3               	movf	243,w,c
  8156  000760  0100               	movlb	0	; () banked
  8157  000762  278E               	addwf	??_getFree& (0+255),f,b
  8158  000764  50F4               	movf	244,w,c
  8159  000766  238F               	addwfc	(??_getFree+1)& (0+255),f,b
  8160  000768  518E               	movf	??_getFree& (0+255),w,b
  8161  00076A  198B               	xorwf	getFree@Pointer& (0+255),w,b
  8162  00076C  E107               	bnz	u5681
  8163  00076E  518F               	movf	(??_getFree+1)& (0+255),w,b
  8164  000770  198C               	xorwf	(getFree@Pointer+1)& (0+255),w,b
  8165  000772  A4D8               	btfss	status,2,c
  8166  000774  EFBE  F003         	goto	u5681
  8167  000778  EFC0  F003         	goto	u5680
  8168  00077C                     u5681:
  8169  00077C  EFC4  F003         	goto	l4925
  8170  000780                     u5680:
  8171  000780                     
  8172                           ; BSR set to: 0
  8173                           ;I2C_conf/memory/memory.c: 164:             {;I2C_conf/memory/memory.c: 165:            
      +                               indice = i;
  8174  000780  C1F7  F1F6         	movff	getFree@i,getFree@indice
  8175                           
  8176                           ;I2C_conf/memory/memory.c: 166:                 break;
  8177  000784  EFCE  F003         	goto	l4929
  8178  000788                     l4925:
  8179                           
  8180                           ; BSR set to: 0
  8181                           ;I2C_conf/memory/memory.c: 168:         }
  8182  000788  0101               	movlb	1	; () banked
  8183  00078A  2BF7               	incf	getFree@i& (0+255),f,b
  8184  00078C                     
  8185                           ; BSR set to: 1
  8186  00078C  0E09               	movlw	9
  8187  00078E  65F7               	cpfsgt	getFree@i& (0+255),b
  8188  000790  EFCC  F003         	goto	u5691
  8189  000794  EFCE  F003         	goto	u5690
  8190  000798                     u5691:
  8191  000798  EFA1  F003         	goto	l4921
  8192  00079C                     u5690:
  8193  00079C                     l4929:
  8194                           
  8195                           ;I2C_conf/memory/memory.c: 169:         for(i = 0; i < 10 ; i++)
  8196  00079C  0E00               	movlw	0
  8197  00079E  0101               	movlb	1	; () banked
  8198  0007A0  6FF7               	movwf	getFree@i& (0+255),b
  8199  0007A2                     l4935:
  8200                           
  8201                           ; BSR set to: 1
  8202                           ;I2C_conf/memory/memory.c: 170:         {;I2C_conf/memory/memory.c: 171:             if(
      +                          (array[memoryNumber].Tab[i].indice > array[memoryNumber].Tab[indice].indice) && (array[m
      +                          emoryNumber].Tab[i].State == 1))
  8203  0007A2  51F7               	movf	getFree@i& (0+255),w,b
  8204  0007A4  0D06               	mullw	6
  8205  0007A6  CFF3 F08E          	movff	prodl,??_getFree
  8206  0007AA  CFF4 F08F          	movff	prodh,??_getFree+1
  8207  0007AE  0100               	movlb	0	; () banked
  8208  0007B0  518D               	movf	getFree@memoryNumber& (0+255),w,b
  8209  0007B2  0D3D               	mullw	61
  8210  0007B4  0E00               	movlw	low _array
  8211  0007B6  6F90               	movwf	(??_getFree+2)& (0+255),b
  8212  0007B8  0E02               	movlw	high _array
  8213  0007BA  6F91               	movwf	(??_getFree+3)& (0+255),b
  8214  0007BC  0E05               	movlw	5
  8215  0007BE  2790               	addwf	(??_getFree+2)& (0+255),f,b
  8216  0007C0  0E00               	movlw	0
  8217  0007C2  2391               	addwfc	(??_getFree+3)& (0+255),f,b
  8218  0007C4  50F3               	movf	243,w,c
  8219  0007C6  2790               	addwf	(??_getFree+2)& (0+255),f,b
  8220  0007C8  50F4               	movf	244,w,c
  8221  0007CA  2391               	addwfc	(??_getFree+3)& (0+255),f,b
  8222  0007CC  518E               	movf	??_getFree& (0+255),w,b
  8223  0007CE  2590               	addwf	(??_getFree+2)& (0+255),w,b
  8224  0007D0  6ED9               	movwf	fsr2l,c
  8225  0007D2  518F               	movf	(??_getFree+1)& (0+255),w,b
  8226  0007D4  2191               	addwfc	(??_getFree+3)& (0+255),w,b
  8227  0007D6  6EDA               	movwf	fsr2h,c
  8228  0007D8  0101               	movlb	1	; () banked
  8229  0007DA  51F6               	movf	getFree@indice& (0+255),w,b
  8230  0007DC  0D06               	mullw	6
  8231  0007DE  CFF3 F093          	movff	prodl,??_getFree+5
  8232  0007E2  CFF4 F094          	movff	prodh,??_getFree+6
  8233  0007E6  0100               	movlb	0	; () banked
  8234  0007E8  518D               	movf	getFree@memoryNumber& (0+255),w,b
  8235  0007EA  0D3D               	mullw	61
  8236  0007EC  0E00               	movlw	low _array
  8237  0007EE  6F95               	movwf	(??_getFree+7)& (0+255),b
  8238  0007F0  0E02               	movlw	high _array
  8239  0007F2  6F96               	movwf	(??_getFree+8)& (0+255),b
  8240  0007F4  0E05               	movlw	5
  8241  0007F6  2795               	addwf	(??_getFree+7)& (0+255),f,b
  8242  0007F8  0E00               	movlw	0
  8243  0007FA  2396               	addwfc	(??_getFree+8)& (0+255),f,b
  8244  0007FC  50F3               	movf	243,w,c
  8245  0007FE  2795               	addwf	(??_getFree+7)& (0+255),f,b
  8246  000800  50F4               	movf	244,w,c
  8247  000802  2396               	addwfc	(??_getFree+8)& (0+255),f,b
  8248  000804  5193               	movf	(??_getFree+5)& (0+255),w,b
  8249  000806  2595               	addwf	(??_getFree+7)& (0+255),w,b
  8250  000808  6EE1               	movwf	fsr1l,c
  8251  00080A  5194               	movf	(??_getFree+6)& (0+255),w,b
  8252  00080C  2196               	addwfc	(??_getFree+8)& (0+255),w,b
  8253  00080E  6EE2               	movwf	fsr1h,c
  8254  000810  50DE               	movf	postinc2,w,c
  8255  000812  5CE6               	subwf	postinc1,w,c
  8256  000814  B0D8               	btfsc	status,0,c
  8257  000816  EF0F  F004         	goto	u5701
  8258  00081A  EF11  F004         	goto	u5700
  8259  00081E                     u5701:
  8260  00081E  EFBC  F004         	goto	l4945
  8261  000822                     u5700:
  8262  000822                     
  8263                           ; BSR set to: 0
  8264  000822  0101               	movlb	1	; () banked
  8265  000824  51F7               	movf	getFree@i& (0+255),w,b
  8266  000826  0D06               	mullw	6
  8267  000828  CFF3 F08E          	movff	prodl,??_getFree
  8268  00082C  CFF4 F08F          	movff	prodh,??_getFree+1
  8269  000830  0100               	movlb	0	; () banked
  8270  000832  518D               	movf	getFree@memoryNumber& (0+255),w,b
  8271  000834  0D3D               	mullw	61
  8272  000836  0E00               	movlw	low _array
  8273  000838  6F90               	movwf	(??_getFree+2)& (0+255),b
  8274  00083A  0E02               	movlw	high _array
  8275  00083C  6F91               	movwf	(??_getFree+3)& (0+255),b
  8276  00083E  0E03               	movlw	3
  8277  000840  2790               	addwf	(??_getFree+2)& (0+255),f,b
  8278  000842  0E00               	movlw	0
  8279  000844  2391               	addwfc	(??_getFree+3)& (0+255),f,b
  8280  000846  50F3               	movf	243,w,c
  8281  000848  2790               	addwf	(??_getFree+2)& (0+255),f,b
  8282  00084A  50F4               	movf	244,w,c
  8283  00084C  2391               	addwfc	(??_getFree+3)& (0+255),f,b
  8284  00084E  518E               	movf	??_getFree& (0+255),w,b
  8285  000850  2590               	addwf	(??_getFree+2)& (0+255),w,b
  8286  000852  6ED9               	movwf	fsr2l,c
  8287  000854  518F               	movf	(??_getFree+1)& (0+255),w,b
  8288  000856  2191               	addwfc	(??_getFree+3)& (0+255),w,b
  8289  000858  6EDA               	movwf	fsr2h,c
  8290  00085A  04DE               	decf	postinc2,w,c
  8291  00085C  A4D8               	btfss	status,2,c
  8292  00085E  EF33  F004         	goto	u5711
  8293  000862  EF35  F004         	goto	u5710
  8294  000866                     u5711:
  8295  000866  EFBC  F004         	goto	l4945
  8296  00086A                     u5710:
  8297  00086A                     
  8298                           ; BSR set to: 0
  8299                           ;I2C_conf/memory/memory.c: 172:             {;I2C_conf/memory/memory.c: 173:            
      +                               tabPoint = &tab[array[memoryNumber].Tab[indice].indice];
  8300  00086A  0101               	movlb	1	; () banked
  8301  00086C  51F6               	movf	getFree@indice& (0+255),w,b
  8302  00086E  0D06               	mullw	6
  8303  000870  CFF3 F08E          	movff	prodl,??_getFree
  8304  000874  CFF4 F08F          	movff	prodh,??_getFree+1
  8305  000878  0100               	movlb	0	; () banked
  8306  00087A  518D               	movf	getFree@memoryNumber& (0+255),w,b
  8307  00087C  0D3D               	mullw	61
  8308  00087E  0E00               	movlw	low _array
  8309  000880  6F90               	movwf	(??_getFree+2)& (0+255),b
  8310  000882  0E02               	movlw	high _array
  8311  000884  6F91               	movwf	(??_getFree+3)& (0+255),b
  8312  000886  0E05               	movlw	5
  8313  000888  2790               	addwf	(??_getFree+2)& (0+255),f,b
  8314  00088A  0E00               	movlw	0
  8315  00088C  2391               	addwfc	(??_getFree+3)& (0+255),f,b
  8316  00088E  50F3               	movf	243,w,c
  8317  000890  2790               	addwf	(??_getFree+2)& (0+255),f,b
  8318  000892  50F4               	movf	244,w,c
  8319  000894  2391               	addwfc	(??_getFree+3)& (0+255),f,b
  8320  000896  518E               	movf	??_getFree& (0+255),w,b
  8321  000898  2590               	addwf	(??_getFree+2)& (0+255),w,b
  8322  00089A  6ED9               	movwf	fsr2l,c
  8323  00089C  518F               	movf	(??_getFree+1)& (0+255),w,b
  8324  00089E  2191               	addwfc	(??_getFree+3)& (0+255),w,b
  8325  0008A0  6EDA               	movwf	fsr2h,c
  8326  0008A2  50DF               	movf	indf2,w,c
  8327  0008A4  6F92               	movwf	(??_getFree+4)& (0+255),b
  8328  0008A6  6B93               	clrf	(??_getFree+5)& (0+255),b
  8329  0008A8  0EB4               	movlw	low getFree@tab
  8330  0008AA  2592               	addwf	(??_getFree+4)& (0+255),w,b
  8331  0008AC  0101               	movlb	1	; () banked
  8332  0008AE  6FF4               	movwf	getFree@tabPoint& (0+255),b
  8333  0008B0  0E01               	movlw	high getFree@tab
  8334  0008B2  0100               	movlb	0	; () banked
  8335  0008B4  2193               	addwfc	(??_getFree+5)& (0+255),w,b
  8336  0008B6  0101               	movlb	1	; () banked
  8337  0008B8  6FF5               	movwf	(getFree@tabPoint+1)& (0+255),b
  8338  0008BA                     
  8339                           ; BSR set to: 1
  8340                           ;I2C_conf/memory/memory.c: 174:                 memcpy(tabPoint , array[memoryNumber].Ta
      +                          b[i].Pointer, 64 - array[memoryNumber].Tab[i].indice);
  8341  0008BA  C1F4  F080         	movff	getFree@tabPoint,memcpy@d1
  8342  0008BE  C1F5  F081         	movff	getFree@tabPoint+1,memcpy@d1+1
  8343  0008C2  51F7               	movf	getFree@i& (0+255),w,b
  8344  0008C4  0D06               	mullw	6
  8345  0008C6  CFF3 F08E          	movff	prodl,??_getFree
  8346  0008CA  CFF4 F08F          	movff	prodh,??_getFree+1
  8347  0008CE  0100               	movlb	0	; () banked
  8348  0008D0  518D               	movf	getFree@memoryNumber& (0+255),w,b
  8349  0008D2  0D3D               	mullw	61
  8350  0008D4  0E00               	movlw	low _array
  8351  0008D6  6F90               	movwf	(??_getFree+2)& (0+255),b
  8352  0008D8  0E02               	movlw	high _array
  8353  0008DA  6F91               	movwf	(??_getFree+3)& (0+255),b
  8354  0008DC  50F3               	movf	243,w,c
  8355  0008DE  2790               	addwf	(??_getFree+2)& (0+255),f,b
  8356  0008E0  50F4               	movf	244,w,c
  8357  0008E2  2391               	addwfc	(??_getFree+3)& (0+255),f,b
  8358  0008E4  518E               	movf	??_getFree& (0+255),w,b
  8359  0008E6  2590               	addwf	(??_getFree+2)& (0+255),w,b
  8360  0008E8  6ED9               	movwf	fsr2l,c
  8361  0008EA  518F               	movf	(??_getFree+1)& (0+255),w,b
  8362  0008EC  2191               	addwfc	(??_getFree+3)& (0+255),w,b
  8363  0008EE  6EDA               	movwf	fsr2h,c
  8364  0008F0  CFDE F082          	movff	postinc2,memcpy@s1
  8365  0008F4  CFDD F083          	movff	postdec2,memcpy@s1+1
  8366  0008F8  0E40               	movlw	64
  8367  0008FA  6F92               	movwf	(??_getFree+4)& (0+255),b
  8368  0008FC  0E00               	movlw	0
  8369  0008FE  6F93               	movwf	(??_getFree+5)& (0+255),b
  8370  000900  0101               	movlb	1	; () banked
  8371  000902  51F7               	movf	getFree@i& (0+255),w,b
  8372  000904  0D06               	mullw	6
  8373  000906  CFF3 F094          	movff	prodl,??_getFree+6
  8374  00090A  CFF4 F095          	movff	prodh,??_getFree+7
  8375  00090E  0100               	movlb	0	; () banked
  8376  000910  518D               	movf	getFree@memoryNumber& (0+255),w,b
  8377  000912  0D3D               	mullw	61
  8378  000914  0E00               	movlw	low _array
  8379  000916  6F96               	movwf	(??_getFree+8)& (0+255),b
  8380  000918  0E02               	movlw	high _array
  8381  00091A  6F97               	movwf	(??_getFree+9)& (0+255),b
  8382  00091C  0E05               	movlw	5
  8383  00091E  2796               	addwf	(??_getFree+8)& (0+255),f,b
  8384  000920  0E00               	movlw	0
  8385  000922  2397               	addwfc	(??_getFree+9)& (0+255),f,b
  8386  000924  50F3               	movf	243,w,c
  8387  000926  2796               	addwf	(??_getFree+8)& (0+255),f,b
  8388  000928  50F4               	movf	244,w,c
  8389  00092A  2397               	addwfc	(??_getFree+9)& (0+255),f,b
  8390  00092C  5194               	movf	(??_getFree+6)& (0+255),w,b
  8391  00092E  2596               	addwf	(??_getFree+8)& (0+255),w,b
  8392  000930  6ED9               	movwf	fsr2l,c
  8393  000932  5195               	movf	(??_getFree+7)& (0+255),w,b
  8394  000934  2197               	addwfc	(??_getFree+9)& (0+255),w,b
  8395  000936  6EDA               	movwf	fsr2h,c
  8396  000938  50DF               	movf	indf2,w,c
  8397  00093A  6F98               	movwf	(??_getFree+10)& (0+255),b
  8398  00093C  5198               	movf	(??_getFree+10)& (0+255),w,b
  8399  00093E  5D92               	subwf	(??_getFree+4)& (0+255),w,b
  8400  000940  6F84               	movwf	memcpy@n& (0+255),b
  8401  000942  5193               	movf	(??_getFree+5)& (0+255),w,b
  8402  000944  A0D8               	btfss	status,0,c
  8403  000946  0593               	decf	(??_getFree+5)& (0+255),w,b
  8404  000948  6F85               	movwf	(memcpy@n+1)& (0+255),b
  8405  00094A  EC22  F01C         	call	_memcpy	;wreg free
  8406  00094E                     
  8407                           ;I2C_conf/memory/memory.c: 175:                 memcpy(memory[memoryNumber].pile , tab, 
      +                          64);
  8408  00094E  0100               	movlb	0	; () banked
  8409  000950  518D               	movf	getFree@memoryNumber& (0+255),w,b
  8410  000952  0D41               	mullw	65
  8411  000954  0E7A               	movlw	low _memory
  8412  000956  24F3               	addwf	243,w,c
  8413  000958  6F80               	movwf	memcpy@d1& (0+255),b
  8414  00095A  0E02               	movlw	high _memory
  8415  00095C  20F4               	addwfc	prodh,w,c
  8416  00095E  6F81               	movwf	(memcpy@d1+1)& (0+255),b
  8417  000960  0EB4               	movlw	low getFree@tab
  8418  000962  6F82               	movwf	memcpy@s1& (0+255),b
  8419  000964  0E01               	movlw	high getFree@tab
  8420  000966  6F83               	movwf	(memcpy@s1+1)& (0+255),b
  8421  000968  0E00               	movlw	0
  8422  00096A  6F85               	movwf	(memcpy@n+1)& (0+255),b
  8423  00096C  0E40               	movlw	64
  8424  00096E  6F84               	movwf	memcpy@n& (0+255),b
  8425  000970  EC22  F01C         	call	_memcpy	;wreg free
  8426                           
  8427                           ;I2C_conf/memory/memory.c: 176:                 break;
  8428  000974  EFC6  F004         	goto	l4949
  8429  000978                     l4945:
  8430                           
  8431                           ; BSR set to: 0
  8432                           ;I2C_conf/memory/memory.c: 178:         }
  8433  000978  0101               	movlb	1	; () banked
  8434  00097A  2BF7               	incf	getFree@i& (0+255),f,b
  8435  00097C                     
  8436                           ; BSR set to: 1
  8437  00097C  0E09               	movlw	9
  8438  00097E  65F7               	cpfsgt	getFree@i& (0+255),b
  8439  000980  EFC4  F004         	goto	u5721
  8440  000984  EFC6  F004         	goto	u5720
  8441  000988                     u5721:
  8442  000988  EFD1  F003         	goto	l4935
  8443  00098C                     u5720:
  8444  00098C                     l4949:
  8445                           
  8446                           ;I2C_conf/memory/memory.c: 179:         for(i = 0; i < 10 ; i++)
  8447  00098C  0E00               	movlw	0
  8448  00098E  0101               	movlb	1	; () banked
  8449  000990  6FF7               	movwf	getFree@i& (0+255),b
  8450  000992                     l4955:
  8451                           
  8452                           ; BSR set to: 1
  8453                           ;I2C_conf/memory/memory.c: 180:         {;I2C_conf/memory/memory.c: 181:             if(
      +                          (array[memoryNumber].Tab[i].indice > array[memoryNumber].Tab[indice].indice ) && (array[
      +                          memoryNumber].Tab[i].State == 1))
  8454  000992  51F7               	movf	getFree@i& (0+255),w,b
  8455  000994  0D06               	mullw	6
  8456  000996  CFF3 F08E          	movff	prodl,??_getFree
  8457  00099A  CFF4 F08F          	movff	prodh,??_getFree+1
  8458  00099E  0100               	movlb	0	; () banked
  8459  0009A0  518D               	movf	getFree@memoryNumber& (0+255),w,b
  8460  0009A2  0D3D               	mullw	61
  8461  0009A4  0E00               	movlw	low _array
  8462  0009A6  6F90               	movwf	(??_getFree+2)& (0+255),b
  8463  0009A8  0E02               	movlw	high _array
  8464  0009AA  6F91               	movwf	(??_getFree+3)& (0+255),b
  8465  0009AC  0E05               	movlw	5
  8466  0009AE  2790               	addwf	(??_getFree+2)& (0+255),f,b
  8467  0009B0  0E00               	movlw	0
  8468  0009B2  2391               	addwfc	(??_getFree+3)& (0+255),f,b
  8469  0009B4  50F3               	movf	243,w,c
  8470  0009B6  2790               	addwf	(??_getFree+2)& (0+255),f,b
  8471  0009B8  50F4               	movf	244,w,c
  8472  0009BA  2391               	addwfc	(??_getFree+3)& (0+255),f,b
  8473  0009BC  518E               	movf	??_getFree& (0+255),w,b
  8474  0009BE  2590               	addwf	(??_getFree+2)& (0+255),w,b
  8475  0009C0  6ED9               	movwf	fsr2l,c
  8476  0009C2  518F               	movf	(??_getFree+1)& (0+255),w,b
  8477  0009C4  2191               	addwfc	(??_getFree+3)& (0+255),w,b
  8478  0009C6  6EDA               	movwf	fsr2h,c
  8479  0009C8  0101               	movlb	1	; () banked
  8480  0009CA  51F6               	movf	getFree@indice& (0+255),w,b
  8481  0009CC  0D06               	mullw	6
  8482  0009CE  CFF3 F093          	movff	prodl,??_getFree+5
  8483  0009D2  CFF4 F094          	movff	prodh,??_getFree+6
  8484  0009D6  0100               	movlb	0	; () banked
  8485  0009D8  518D               	movf	getFree@memoryNumber& (0+255),w,b
  8486  0009DA  0D3D               	mullw	61
  8487  0009DC  0E00               	movlw	low _array
  8488  0009DE  6F95               	movwf	(??_getFree+7)& (0+255),b
  8489  0009E0  0E02               	movlw	high _array
  8490  0009E2  6F96               	movwf	(??_getFree+8)& (0+255),b
  8491  0009E4  0E05               	movlw	5
  8492  0009E6  2795               	addwf	(??_getFree+7)& (0+255),f,b
  8493  0009E8  0E00               	movlw	0
  8494  0009EA  2396               	addwfc	(??_getFree+8)& (0+255),f,b
  8495  0009EC  50F3               	movf	243,w,c
  8496  0009EE  2795               	addwf	(??_getFree+7)& (0+255),f,b
  8497  0009F0  50F4               	movf	244,w,c
  8498  0009F2  2396               	addwfc	(??_getFree+8)& (0+255),f,b
  8499  0009F4  5193               	movf	(??_getFree+5)& (0+255),w,b
  8500  0009F6  2595               	addwf	(??_getFree+7)& (0+255),w,b
  8501  0009F8  6EE1               	movwf	fsr1l,c
  8502  0009FA  5194               	movf	(??_getFree+6)& (0+255),w,b
  8503  0009FC  2196               	addwfc	(??_getFree+8)& (0+255),w,b
  8504  0009FE  6EE2               	movwf	fsr1h,c
  8505  000A00  50DE               	movf	postinc2,w,c
  8506  000A02  5CE6               	subwf	postinc1,w,c
  8507  000A04  B0D8               	btfsc	status,0,c
  8508  000A06  EF07  F005         	goto	u5731
  8509  000A0A  EF09  F005         	goto	u5730
  8510  000A0E                     u5731:
  8511  000A0E  EFB1  F005         	goto	l4961
  8512  000A12                     u5730:
  8513  000A12                     
  8514                           ; BSR set to: 0
  8515  000A12  0101               	movlb	1	; () banked
  8516  000A14  51F7               	movf	getFree@i& (0+255),w,b
  8517  000A16  0D06               	mullw	6
  8518  000A18  CFF3 F08E          	movff	prodl,??_getFree
  8519  000A1C  CFF4 F08F          	movff	prodh,??_getFree+1
  8520  000A20  0100               	movlb	0	; () banked
  8521  000A22  518D               	movf	getFree@memoryNumber& (0+255),w,b
  8522  000A24  0D3D               	mullw	61
  8523  000A26  0E00               	movlw	low _array
  8524  000A28  6F90               	movwf	(??_getFree+2)& (0+255),b
  8525  000A2A  0E02               	movlw	high _array
  8526  000A2C  6F91               	movwf	(??_getFree+3)& (0+255),b
  8527  000A2E  0E03               	movlw	3
  8528  000A30  2790               	addwf	(??_getFree+2)& (0+255),f,b
  8529  000A32  0E00               	movlw	0
  8530  000A34  2391               	addwfc	(??_getFree+3)& (0+255),f,b
  8531  000A36  50F3               	movf	243,w,c
  8532  000A38  2790               	addwf	(??_getFree+2)& (0+255),f,b
  8533  000A3A  50F4               	movf	244,w,c
  8534  000A3C  2391               	addwfc	(??_getFree+3)& (0+255),f,b
  8535  000A3E  518E               	movf	??_getFree& (0+255),w,b
  8536  000A40  2590               	addwf	(??_getFree+2)& (0+255),w,b
  8537  000A42  6ED9               	movwf	fsr2l,c
  8538  000A44  518F               	movf	(??_getFree+1)& (0+255),w,b
  8539  000A46  2191               	addwfc	(??_getFree+3)& (0+255),w,b
  8540  000A48  6EDA               	movwf	fsr2h,c
  8541  000A4A  04DE               	decf	postinc2,w,c
  8542  000A4C  A4D8               	btfss	status,2,c
  8543  000A4E  EF2B  F005         	goto	u5741
  8544  000A52  EF2D  F005         	goto	u5740
  8545  000A56                     u5741:
  8546  000A56  EFB1  F005         	goto	l4961
  8547  000A5A                     u5740:
  8548  000A5A                     
  8549                           ; BSR set to: 0
  8550                           ;I2C_conf/memory/memory.c: 182:             {;I2C_conf/memory/memory.c: 183:            
      +                               array[memoryNumber].Tab[i].indice -= array[memoryNumber].Tab[indice].PointerSize;
  8551  000A5A  0101               	movlb	1	; () banked
  8552  000A5C  51F6               	movf	getFree@indice& (0+255),w,b
  8553  000A5E  0D06               	mullw	6
  8554  000A60  CFF3 F08E          	movff	prodl,??_getFree
  8555  000A64  CFF4 F08F          	movff	prodh,??_getFree+1
  8556  000A68  0100               	movlb	0	; () banked
  8557  000A6A  518D               	movf	getFree@memoryNumber& (0+255),w,b
  8558  000A6C  0D3D               	mullw	61
  8559  000A6E  0E00               	movlw	low _array
  8560  000A70  6F90               	movwf	(??_getFree+2)& (0+255),b
  8561  000A72  0E02               	movlw	high _array
  8562  000A74  6F91               	movwf	(??_getFree+3)& (0+255),b
  8563  000A76  0E02               	movlw	2
  8564  000A78  2790               	addwf	(??_getFree+2)& (0+255),f,b
  8565  000A7A  0E00               	movlw	0
  8566  000A7C  2391               	addwfc	(??_getFree+3)& (0+255),f,b
  8567  000A7E  50F3               	movf	243,w,c
  8568  000A80  2790               	addwf	(??_getFree+2)& (0+255),f,b
  8569  000A82  50F4               	movf	244,w,c
  8570  000A84  2391               	addwfc	(??_getFree+3)& (0+255),f,b
  8571  000A86  518E               	movf	??_getFree& (0+255),w,b
  8572  000A88  2590               	addwf	(??_getFree+2)& (0+255),w,b
  8573  000A8A  6ED9               	movwf	fsr2l,c
  8574  000A8C  518F               	movf	(??_getFree+1)& (0+255),w,b
  8575  000A8E  2191               	addwfc	(??_getFree+3)& (0+255),w,b
  8576  000A90  6EDA               	movwf	fsr2h,c
  8577  000A92  50DF               	movf	indf2,w,c
  8578  000A94  6F92               	movwf	(??_getFree+4)& (0+255),b
  8579  000A96  0101               	movlb	1	; () banked
  8580  000A98  51F7               	movf	getFree@i& (0+255),w,b
  8581  000A9A  0D06               	mullw	6
  8582  000A9C  CFF3 F093          	movff	prodl,??_getFree+5
  8583  000AA0  CFF4 F094          	movff	prodh,??_getFree+6
  8584  000AA4  0100               	movlb	0	; () banked
  8585  000AA6  518D               	movf	getFree@memoryNumber& (0+255),w,b
  8586  000AA8  0D3D               	mullw	61
  8587  000AAA  0E00               	movlw	low _array
  8588  000AAC  6F95               	movwf	(??_getFree+7)& (0+255),b
  8589  000AAE  0E02               	movlw	high _array
  8590  000AB0  6F96               	movwf	(??_getFree+8)& (0+255),b
  8591  000AB2  0E05               	movlw	5
  8592  000AB4  2795               	addwf	(??_getFree+7)& (0+255),f,b
  8593  000AB6  0E00               	movlw	0
  8594  000AB8  2396               	addwfc	(??_getFree+8)& (0+255),f,b
  8595  000ABA  50F3               	movf	243,w,c
  8596  000ABC  2795               	addwf	(??_getFree+7)& (0+255),f,b
  8597  000ABE  50F4               	movf	244,w,c
  8598  000AC0  2396               	addwfc	(??_getFree+8)& (0+255),f,b
  8599  000AC2  5193               	movf	(??_getFree+5)& (0+255),w,b
  8600  000AC4  2595               	addwf	(??_getFree+7)& (0+255),w,b
  8601  000AC6  6ED9               	movwf	fsr2l,c
  8602  000AC8  5194               	movf	(??_getFree+6)& (0+255),w,b
  8603  000ACA  2196               	addwfc	(??_getFree+8)& (0+255),w,b
  8604  000ACC  6EDA               	movwf	fsr2h,c
  8605  000ACE  5192               	movf	(??_getFree+4)& (0+255),w,b
  8606  000AD0  5EDF               	subwf	indf2,f,c
  8607                           
  8608                           ;I2C_conf/memory/memory.c: 184:                 array[memoryNumber].Tab[i].Pointer = &me
      +                          mory[memoryNumber].pile[array[memoryNumber].Tab[i].indice];
  8609  000AD2  518D               	movf	getFree@memoryNumber& (0+255),w,b
  8610  000AD4  0D41               	mullw	65
  8611  000AD6  0E7A               	movlw	low _memory
  8612  000AD8  6F8E               	movwf	??_getFree& (0+255),b
  8613  000ADA  0E02               	movlw	high _memory
  8614  000ADC  6F8F               	movwf	(??_getFree+1)& (0+255),b
  8615  000ADE  50F3               	movf	243,w,c
  8616  000AE0  278E               	addwf	??_getFree& (0+255),f,b
  8617  000AE2  50F4               	movf	244,w,c
  8618  000AE4  238F               	addwfc	(??_getFree+1)& (0+255),f,b
  8619  000AE6  0101               	movlb	1	; () banked
  8620  000AE8  51F7               	movf	getFree@i& (0+255),w,b
  8621  000AEA  0D06               	mullw	6
  8622  000AEC  CFF3 F090          	movff	prodl,??_getFree+2
  8623  000AF0  CFF4 F091          	movff	prodh,??_getFree+3
  8624  000AF4  0100               	movlb	0	; () banked
  8625  000AF6  518D               	movf	getFree@memoryNumber& (0+255),w,b
  8626  000AF8  0D3D               	mullw	61
  8627  000AFA  0E00               	movlw	low _array
  8628  000AFC  6F92               	movwf	(??_getFree+4)& (0+255),b
  8629  000AFE  0E02               	movlw	high _array
  8630  000B00  6F93               	movwf	(??_getFree+5)& (0+255),b
  8631  000B02  0E05               	movlw	5
  8632  000B04  2792               	addwf	(??_getFree+4)& (0+255),f,b
  8633  000B06  0E00               	movlw	0
  8634  000B08  2393               	addwfc	(??_getFree+5)& (0+255),f,b
  8635  000B0A  50F3               	movf	243,w,c
  8636  000B0C  2792               	addwf	(??_getFree+4)& (0+255),f,b
  8637  000B0E  50F4               	movf	244,w,c
  8638  000B10  2393               	addwfc	(??_getFree+5)& (0+255),f,b
  8639  000B12  5190               	movf	(??_getFree+2)& (0+255),w,b
  8640  000B14  2592               	addwf	(??_getFree+4)& (0+255),w,b
  8641  000B16  6ED9               	movwf	fsr2l,c
  8642  000B18  5191               	movf	(??_getFree+3)& (0+255),w,b
  8643  000B1A  2193               	addwfc	(??_getFree+5)& (0+255),w,b
  8644  000B1C  6EDA               	movwf	fsr2h,c
  8645  000B1E  50DF               	movf	indf2,w,c
  8646  000B20  6F94               	movwf	(??_getFree+6)& (0+255),b
  8647  000B22  5194               	movf	(??_getFree+6)& (0+255),w,b
  8648  000B24  278E               	addwf	??_getFree& (0+255),f,b
  8649  000B26  0E00               	movlw	0
  8650  000B28  238F               	addwfc	(??_getFree+1)& (0+255),f,b
  8651  000B2A  0101               	movlb	1	; () banked
  8652  000B2C  51F7               	movf	getFree@i& (0+255),w,b
  8653  000B2E  0D06               	mullw	6
  8654  000B30  CFF3 F095          	movff	prodl,??_getFree+7
  8655  000B34  CFF4 F096          	movff	prodh,??_getFree+8
  8656  000B38  0100               	movlb	0	; () banked
  8657  000B3A  518D               	movf	getFree@memoryNumber& (0+255),w,b
  8658  000B3C  0D3D               	mullw	61
  8659  000B3E  0E00               	movlw	low _array
  8660  000B40  6F97               	movwf	(??_getFree+9)& (0+255),b
  8661  000B42  0E02               	movlw	high _array
  8662  000B44  6F98               	movwf	(??_getFree+10)& (0+255),b
  8663  000B46  50F3               	movf	243,w,c
  8664  000B48  2797               	addwf	(??_getFree+9)& (0+255),f,b
  8665  000B4A  50F4               	movf	244,w,c
  8666  000B4C  2398               	addwfc	(??_getFree+10)& (0+255),f,b
  8667  000B4E  5195               	movf	(??_getFree+7)& (0+255),w,b
  8668  000B50  2597               	addwf	(??_getFree+9)& (0+255),w,b
  8669  000B52  6ED9               	movwf	fsr2l,c
  8670  000B54  5196               	movf	(??_getFree+8)& (0+255),w,b
  8671  000B56  2198               	addwfc	(??_getFree+10)& (0+255),w,b
  8672  000B58  6EDA               	movwf	fsr2h,c
  8673  000B5A  C08E  FFDE         	movff	??_getFree,postinc2
  8674  000B5E  C08F  FFDD         	movff	??_getFree+1,postdec2
  8675  000B62                     l4961:
  8676                           
  8677                           ; BSR set to: 0
  8678                           ;I2C_conf/memory/memory.c: 186:         }
  8679  000B62  0101               	movlb	1	; () banked
  8680  000B64  2BF7               	incf	getFree@i& (0+255),f,b
  8681  000B66                     
  8682                           ; BSR set to: 1
  8683  000B66  0E09               	movlw	9
  8684  000B68  65F7               	cpfsgt	getFree@i& (0+255),b
  8685  000B6A  EFB9  F005         	goto	u5751
  8686  000B6E  EFBB  F005         	goto	u5750
  8687  000B72                     u5751:
  8688  000B72  EFC9  F004         	goto	l4955
  8689  000B76                     u5750:
  8690  000B76                     
  8691                           ; BSR set to: 1
  8692                           ;I2C_conf/memory/memory.c: 187:         array[memoryNumber].Tab[indice].State = 0;
  8693  000B76  51F6               	movf	getFree@indice& (0+255),w,b
  8694  000B78  0D06               	mullw	6
  8695  000B7A  CFF3 F08E          	movff	prodl,??_getFree
  8696  000B7E  CFF4 F08F          	movff	prodh,??_getFree+1
  8697  000B82  0100               	movlb	0	; () banked
  8698  000B84  518D               	movf	getFree@memoryNumber& (0+255),w,b
  8699  000B86  0D3D               	mullw	61
  8700  000B88  0E00               	movlw	low _array
  8701  000B8A  6F90               	movwf	(??_getFree+2)& (0+255),b
  8702  000B8C  0E02               	movlw	high _array
  8703  000B8E  6F91               	movwf	(??_getFree+3)& (0+255),b
  8704  000B90  0E03               	movlw	3
  8705  000B92  2790               	addwf	(??_getFree+2)& (0+255),f,b
  8706  000B94  0E00               	movlw	0
  8707  000B96  2391               	addwfc	(??_getFree+3)& (0+255),f,b
  8708  000B98  50F3               	movf	243,w,c
  8709  000B9A  2790               	addwf	(??_getFree+2)& (0+255),f,b
  8710  000B9C  50F4               	movf	244,w,c
  8711  000B9E  2391               	addwfc	(??_getFree+3)& (0+255),f,b
  8712  000BA0  518E               	movf	??_getFree& (0+255),w,b
  8713  000BA2  2590               	addwf	(??_getFree+2)& (0+255),w,b
  8714  000BA4  6ED9               	movwf	fsr2l,c
  8715  000BA6  518F               	movf	(??_getFree+1)& (0+255),w,b
  8716  000BA8  2191               	addwfc	(??_getFree+3)& (0+255),w,b
  8717  000BAA  6EDA               	movwf	fsr2h,c
  8718  000BAC  0E00               	movlw	0
  8719  000BAE  6EDF               	movwf	indf2,c
  8720                           
  8721                           ;I2C_conf/memory/memory.c: 188:         array[memoryNumber].indice--;
  8722  000BB0  518D               	movf	getFree@memoryNumber& (0+255),w,b
  8723  000BB2  0D3D               	mullw	61
  8724  000BB4  0E3C               	movlw	low (_array+60)
  8725  000BB6  24F3               	addwf	243,w,c
  8726  000BB8  6ED9               	movwf	fsr2l,c
  8727  000BBA  0E02               	movlw	high (_array+60)
  8728  000BBC  20F4               	addwfc	prodh,w,c
  8729  000BBE  6EDA               	movwf	fsr2h,c
  8730  000BC0  06DF               	decf	indf2,f,c
  8731                           
  8732                           ;I2C_conf/memory/memory.c: 189:         memory[memoryNumber].use -= array[memoryNumber].
      +                          Tab[indice].PointerSize;
  8733  000BC2  0101               	movlb	1	; () banked
  8734  000BC4  51F6               	movf	getFree@indice& (0+255),w,b
  8735  000BC6  0D06               	mullw	6
  8736  000BC8  CFF3 F08E          	movff	prodl,??_getFree
  8737  000BCC  CFF4 F08F          	movff	prodh,??_getFree+1
  8738  000BD0  0100               	movlb	0	; () banked
  8739  000BD2  518D               	movf	getFree@memoryNumber& (0+255),w,b
  8740  000BD4  0D3D               	mullw	61
  8741  000BD6  0E00               	movlw	low _array
  8742  000BD8  6F90               	movwf	(??_getFree+2)& (0+255),b
  8743  000BDA  0E02               	movlw	high _array
  8744  000BDC  6F91               	movwf	(??_getFree+3)& (0+255),b
  8745  000BDE  0E02               	movlw	2
  8746  000BE0  2790               	addwf	(??_getFree+2)& (0+255),f,b
  8747  000BE2  0E00               	movlw	0
  8748  000BE4  2391               	addwfc	(??_getFree+3)& (0+255),f,b
  8749  000BE6  50F3               	movf	243,w,c
  8750  000BE8  2790               	addwf	(??_getFree+2)& (0+255),f,b
  8751  000BEA  50F4               	movf	244,w,c
  8752  000BEC  2391               	addwfc	(??_getFree+3)& (0+255),f,b
  8753  000BEE  518E               	movf	??_getFree& (0+255),w,b
  8754  000BF0  2590               	addwf	(??_getFree+2)& (0+255),w,b
  8755  000BF2  6ED9               	movwf	fsr2l,c
  8756  000BF4  518F               	movf	(??_getFree+1)& (0+255),w,b
  8757  000BF6  2191               	addwfc	(??_getFree+3)& (0+255),w,b
  8758  000BF8  6EDA               	movwf	fsr2h,c
  8759  000BFA  50DF               	movf	indf2,w,c
  8760  000BFC  6F92               	movwf	(??_getFree+4)& (0+255),b
  8761  000BFE  518D               	movf	getFree@memoryNumber& (0+255),w,b
  8762  000C00  0D41               	mullw	65
  8763  000C02  0EBA               	movlw	low (_memory+64)
  8764  000C04  24F3               	addwf	243,w,c
  8765  000C06  6ED9               	movwf	fsr2l,c
  8766  000C08  0E02               	movlw	high (_memory+64)
  8767  000C0A  20F4               	addwfc	prodh,w,c
  8768  000C0C  6EDA               	movwf	fsr2h,c
  8769  000C0E  5192               	movf	(??_getFree+4)& (0+255),w,b
  8770  000C10  5EDF               	subwf	indf2,f,c
  8771  000C12                     l369:
  8772  000C12  0012               	return		;funcret
  8773  000C14                     __end_of_getFree:
  8774                           	opt callstack 0
  8775                           
  8776 ;; *************** function _memcpy *****************
  8777 ;; Defined at:
  8778 ;;		line 4 in file "C:\Program Files (x86)\Microchip\xc8\v2.10\pic\sources\c99\common\memcpy.c"
  8779 ;; Parameters:    Size  Location     Type
  8780 ;;  d1              2   32[BANK0 ] PTR void 
  8781 ;;		 -> getFree@tab(64), memory(130), NULL(0), 
  8782 ;;  s1              2   34[BANK0 ] PTR const void 
  8783 ;;		 -> getFree@tab(64), memory.pile(64), memory(130), NULL(0), 
  8784 ;;		 -> main@data(3), 
  8785 ;;  n               2   36[BANK0 ] unsigned int 
  8786 ;; Auto vars:     Size  Location     Type
  8787 ;;  s               2   41[BANK0 ] PTR const unsigned char 
  8788 ;;		 -> getFree@tab(64), memory.pile(64), memory(130), NULL(0), 
  8789 ;;		 -> main@data(3), 
  8790 ;;  d               2   39[BANK0 ] PTR unsigned char 
  8791 ;;		 -> getFree@tab(64), memory(130), NULL(0), 
  8792 ;;  tmp             1   38[BANK0 ] unsigned char 
  8793 ;; Return value:  Size  Location     Type
  8794 ;;                  2   32[BANK0 ] PTR void 
  8795 ;; Registers used:
  8796 ;;		wreg, fsr2l, fsr2h, status,2, status,0
  8797 ;; Tracked objects:
  8798 ;;		On entry : 0/0
  8799 ;;		On exit  : 0/0
  8800 ;;		Unchanged: 0/0
  8801 ;; Data sizes:     COMRAM   BANK0   BANK1   BANK2   BANK3   BANK4   BANK5
  8802 ;;      Params:         0       6       0       0       0       0       0
  8803 ;;      Locals:         0       5       0       0       0       0       0
  8804 ;;      Temps:          0       0       0       0       0       0       0
  8805 ;;      Totals:         0      11       0       0       0       0       0
  8806 ;;Total ram usage:       11 bytes
  8807 ;; Hardware stack levels used:    1
  8808 ;; Hardware stack levels required when called:    5
  8809 ;; This function calls:
  8810 ;;		Nothing
  8811 ;; This function is called by:
  8812 ;;		_I2C_Write
  8813 ;;		_I2C_Read_Register_Request
  8814 ;;		_I2C_Read_Buffer
  8815 ;;		_getFree
  8816 ;; This function uses a non-reentrant model
  8817 ;;
  8818                           
  8819                           	psect	text29
  8820  003844                     __ptext29:
  8821                           	opt callstack 0
  8822  003844                     _memcpy:
  8823                           	opt callstack 24
  8824  003844  C082  F089         	movff	memcpy@s1,memcpy@s
  8825  003848  C083  F08A         	movff	memcpy@s1+1,memcpy@s+1
  8826  00384C  C080  F087         	movff	memcpy@d1,memcpy@d
  8827  003850  C081  F088         	movff	memcpy@d1+1,memcpy@d+1
  8828  003854  EF3C  F01C         	goto	l4693
  8829  003858                     l4685:
  8830                           
  8831                           ; BSR set to: 0
  8832  003858  C089  FFD9         	movff	memcpy@s,fsr2l
  8833  00385C  C08A  FFDA         	movff	memcpy@s+1,fsr2h
  8834  003860  50DF               	movf	indf2,w,c
  8835  003862  6F86               	movwf	memcpy@tmp& (0+255),b
  8836  003864                     
  8837                           ; BSR set to: 0
  8838  003864  4B89               	infsnz	memcpy@s& (0+255),f,b
  8839  003866  2B8A               	incf	(memcpy@s+1)& (0+255),f,b
  8840  003868                     
  8841                           ; BSR set to: 0
  8842  003868  C087  FFD9         	movff	memcpy@d,fsr2l
  8843  00386C  C088  FFDA         	movff	memcpy@d+1,fsr2h
  8844  003870  C086  FFDF         	movff	memcpy@tmp,indf2
  8845  003874                     
  8846                           ; BSR set to: 0
  8847  003874  4B87               	infsnz	memcpy@d& (0+255),f,b
  8848  003876  2B88               	incf	(memcpy@d+1)& (0+255),f,b
  8849  003878                     l4693:
  8850  003878  0100               	movlb	0	; () banked
  8851  00387A  0784               	decf	memcpy@n& (0+255),f,b
  8852  00387C  A0D8               	btfss	status,0,c
  8853  00387E  0785               	decf	(memcpy@n+1)& (0+255),f,b
  8854  003880  2984               	incf	memcpy@n& (0+255),w,b
  8855  003882  E106               	bnz	u5261
  8856  003884  2985               	incf	(memcpy@n+1)& (0+255),w,b
  8857  003886  A4D8               	btfss	status,2,c
  8858  003888  EF48  F01C         	goto	u5261
  8859  00388C  EF4A  F01C         	goto	u5260
  8860  003890                     u5261:
  8861  003890  EF2C  F01C         	goto	l4685
  8862  003894                     u5260:
  8863  003894                     
  8864                           ; BSR set to: 0
  8865  003894  0012               	return		;funcret
  8866  003896                     __end_of_memcpy:
  8867                           	opt callstack 0
  8868                           
  8869 ;; *************** function _ISR_Routine *****************
  8870 ;; Defined at:
  8871 ;;		line 40 in file "interrupt.c"
  8872 ;; Parameters:    Size  Location     Type
  8873 ;;		None
  8874 ;; Auto vars:     Size  Location     Type
  8875 ;;		None
  8876 ;; Return value:  Size  Location     Type
  8877 ;;                  1    wreg      void 
  8878 ;; Registers used:
  8879 ;;		wreg, fsr1l, fsr1h, fsr2l, fsr2h, status,2, status,0, pclath, tosl, prodl, prodh, cstack
  8880 ;; Tracked objects:
  8881 ;;		On entry : 0/0
  8882 ;;		On exit  : 0/0
  8883 ;;		Unchanged: 0/0
  8884 ;; Data sizes:     COMRAM   BANK0   BANK1   BANK2   BANK3   BANK4   BANK5
  8885 ;;      Params:         0       0       0       0       0       0       0
  8886 ;;      Locals:         0       0       0       0       0       0       0
  8887 ;;      Temps:          0       8       0       0       0       0       0
  8888 ;;      Totals:         0       8       0       0       0       0       0
  8889 ;;Total ram usage:        8 bytes
  8890 ;; Hardware stack levels used:    1
  8891 ;; Hardware stack levels required when called:    4
  8892 ;; This function calls:
  8893 ;;		_ISR_Tasks
  8894 ;; This function is called by:
  8895 ;;		Interrupt level 2
  8896 ;; This function uses a non-reentrant model
  8897 ;;
  8898                           
  8899                           	psect	intcode
  8900  000008                     __pintcode:
  8901                           	opt callstack 0
  8902  000008                     _ISR_Routine:
  8903                           	opt callstack 22
  8904                           
  8905                           ; BSR set to: 0
  8906                           ;incstack = 0
  8907  000008  825F               	bsf	int$flags,1,c	;set compiler interrupt flag (level 2)
  8908  00000A  CFFA F078          	movff	pclath,??_ISR_Routine
  8909  00000E  CFFB F079          	movff	pclatu,??_ISR_Routine+1
  8910  000012  CFE1 F07A          	movff	fsr1l,??_ISR_Routine+2
  8911  000016  CFE2 F07B          	movff	fsr1h,??_ISR_Routine+3
  8912  00001A  CFD9 F07C          	movff	fsr2l,??_ISR_Routine+4
  8913  00001E  CFDA F07D          	movff	fsr2h,??_ISR_Routine+5
  8914  000022  CFF3 F07E          	movff	prodl,??_ISR_Routine+6
  8915  000026  CFF4 F07F          	movff	prodh,??_ISR_Routine+7
  8916  00002A                     
  8917                           ;interrupt.c: 42:     ISR_Tasks();
  8918  00002A  EC9B  F01C         	call	_ISR_Tasks	;wreg free
  8919  00002E  C07F  FFF4         	movff	??_ISR_Routine+7,prodh
  8920  000032  C07E  FFF3         	movff	??_ISR_Routine+6,prodl
  8921  000036  C07D  FFDA         	movff	??_ISR_Routine+5,fsr2h
  8922  00003A  C07C  FFD9         	movff	??_ISR_Routine+4,fsr2l
  8923  00003E  C07B  FFE2         	movff	??_ISR_Routine+3,fsr1h
  8924  000042  C07A  FFE1         	movff	??_ISR_Routine+2,fsr1l
  8925  000046  C079  FFFB         	movff	??_ISR_Routine+1,pclatu
  8926  00004A  C078  FFFA         	movff	??_ISR_Routine,pclath
  8927  00004E  925F               	bcf	int$flags,1,c	;clear compiler interrupt flag (level 2)
  8928  000050  0011               	retfie		f
  8929  000052                     __end_of_ISR_Routine:
  8930                           	opt callstack 0
  8931                           
  8932 ;; *************** function _ISR_Tasks *****************
  8933 ;; Defined at:
  8934 ;;		line 103 in file "interrupt.c"
  8935 ;; Parameters:    Size  Location     Type
  8936 ;;		None
  8937 ;; Auto vars:     Size  Location     Type
  8938 ;;  i               1   93[COMRAM] unsigned char 
  8939 ;; Return value:  Size  Location     Type
  8940 ;;                  1    wreg      void 
  8941 ;; Registers used:
  8942 ;;		wreg, fsr1l, fsr1h, fsr2l, fsr2h, status,2, status,0, pclath, tosl, prodl, prodh, cstack
  8943 ;; Tracked objects:
  8944 ;;		On entry : 0/0
  8945 ;;		On exit  : 0/0
  8946 ;;		Unchanged: 0/0
  8947 ;; Data sizes:     COMRAM   BANK0   BANK1   BANK2   BANK3   BANK4   BANK5
  8948 ;;      Params:         0       0       0       0       0       0       0
  8949 ;;      Locals:         1       0       0       0       0       0       0
  8950 ;;      Temps:          0       0       0       0       0       0       0
  8951 ;;      Totals:         1       0       0       0       0       0       0
  8952 ;;Total ram usage:        1 bytes
  8953 ;; Hardware stack levels used:    1
  8954 ;; Hardware stack levels required when called:    3
  8955 ;; This function calls:
  8956 ;;		_I2C_ISR
  8957 ;; This function is called by:
  8958 ;;		_ISR_Routine
  8959 ;; This function uses a non-reentrant model
  8960 ;;
  8961                           
  8962                           	psect	text31
  8963  003936                     __ptext31:
  8964                           	opt callstack 0
  8965  003936                     _ISR_Tasks:
  8966                           	opt callstack 22
  8967  003936                     
  8968                           ;interrupt.c: 105:     u8 i;;interrupt.c: 106:     for(i=0;i<ISRConfig.ISRnbr;i++)
  8969  003936  0E00               	movlw	0
  8970  003938  6E5E               	movwf	ISR_Tasks@i^0,c
  8971  00393A  EFB5  F01C         	goto	i2l5901
  8972  00393E                     i2l5897:
  8973                           
  8974                           ; BSR set to: 0
  8975                           ;interrupt.c: 107:         ISRConfig.FunctTab[i]();
  8976  00393E  505E               	movf	ISR_Tasks@i^0,w,c
  8977  003940  0D02               	mullw	2
  8978  003942  0EC1               	movlw	low (_ISRConfig+1)
  8979  003944  24F3               	addwf	243,w,c
  8980  003946  6ED9               	movwf	fsr2l,c
  8981  003948  0E00               	movlw	high (_ISRConfig+1)
  8982  00394A  20F4               	addwfc	prodh,w,c
  8983  00394C  6EDA               	movwf	fsr2h,c
  8984  00394E  D802               	call	i2u729_48
  8985  003950  EFB4  F01C         	goto	i2u729_49
  8986  003954                     i2u729_48:
  8987  003954  0005               	push	
  8988  003956  6EFA               	movwf	pclath,c
  8989  003958  50DE               	movf	postinc2,w,c
  8990  00395A  6EFD               	movwf	tosl,c
  8991  00395C  50DE               	movf	postinc2,w,c
  8992  00395E  6EFE               	movwf	tosh,c
  8993  003960  50F8               	movf	tblptru,w,c
  8994  003962  6EFF               	movwf	tosu,c
  8995  003964  50FA               	movf	pclath,w,c
  8996  003966  0012               	return		;indir
  8997  003968                     i2u729_49:
  8998  003968  2A5E               	incf	ISR_Tasks@i^0,f,c
  8999  00396A                     i2l5901:
  9000  00396A  0100               	movlb	0	; () banked
  9001  00396C  51C0               	movf	_ISRConfig& (0+255),w,b
  9002  00396E  5C5E               	subwf	ISR_Tasks@i^0,w,c
  9003  003970  A0D8               	btfss	status,0,c
  9004  003972  EFBD  F01C         	goto	i2u730_41
  9005  003976  EFBF  F01C         	goto	i2u730_40
  9006  00397A                     i2u730_41:
  9007  00397A  EF9F  F01C         	goto	i2l5897
  9008  00397E                     i2u730_40:
  9009  00397E                     
  9010                           ; BSR set to: 0
  9011  00397E  0012               	return		;funcret
  9012  003980                     __end_of_ISR_Tasks:
  9013                           	opt callstack 0
  9014                           
  9015 ;; *************** function _I2C_ISR *****************
  9016 ;; Defined at:
  9017 ;;		line 50 in file "I2C.c"
  9018 ;; Parameters:    Size  Location     Type
  9019 ;;		None
  9020 ;; Auto vars:     Size  Location     Type
  9021 ;;  point           2   13[BANK0 ] PTR unsigned char 
  9022 ;;		 -> NULL(0), 
  9023 ;;  Pointeur        2   11[BANK0 ] PTR PTR unsigned char 
  9024 ;;		 -> array.Tab.Pointer(2), array.Tab(60), nulPointer(2), 
  9025 ;;  point           2    9[BANK0 ] PTR unsigned char 
  9026 ;;		 -> NULL(0), 
  9027 ;;  Pointeur        2    7[BANK0 ] PTR PTR unsigned char 
  9028 ;;		 -> array.Tab.Pointer(2), array.Tab(60), nulPointer(2), 
  9029 ;;  point           2   21[BANK0 ] PTR unsigned char 
  9030 ;;		 -> NULL(0), 
  9031 ;;  Pointeur        2   19[BANK0 ] PTR PTR unsigned char 
  9032 ;;		 -> array.Tab.Pointer(2), array.Tab(60), nulPointer(2), 
  9033 ;;  point           2   17[BANK0 ] PTR unsigned char 
  9034 ;;		 -> NULL(0), 
  9035 ;;  Pointeur        2   15[BANK0 ] PTR PTR unsigned char 
  9036 ;;		 -> array.Tab.Pointer(2), array.Tab(60), nulPointer(2), 
  9037 ;;  type            1   23[BANK0 ] unsigned char 
  9038 ;; Return value:  Size  Location     Type
  9039 ;;                  1    wreg      void 
  9040 ;; Registers used:
  9041 ;;		wreg, fsr1l, fsr1h, fsr2l, fsr2h, status,2, status,0, prodl, prodh, cstack
  9042 ;; Tracked objects:
  9043 ;;		On entry : 0/0
  9044 ;;		On exit  : 0/0
  9045 ;;		Unchanged: 0/0
  9046 ;; Data sizes:     COMRAM   BANK0   BANK1   BANK2   BANK3   BANK4   BANK5
  9047 ;;      Params:         0       0       0       0       0       0       0
  9048 ;;      Locals:         0      17       0       0       0       0       0
  9049 ;;      Temps:          0       7       0       0       0       0       0
  9050 ;;      Totals:         0      24       0       0       0       0       0
  9051 ;;Total ram usage:       24 bytes
  9052 ;; Hardware stack levels used:    1
  9053 ;; Hardware stack levels required when called:    2
  9054 ;; This function calls:
  9055 ;;		i2_getFree
  9056 ;; This function is called by:
  9057 ;;		_main
  9058 ;;		_ISR_Tasks
  9059 ;; This function uses a non-reentrant model
  9060 ;;
  9061                           
  9062                           	psect	text32
  9063  000056                     __ptext32:
  9064                           	opt callstack 0
  9065  000056                     _I2C_ISR:
  9066                           	opt callstack 22
  9067  000056                     
  9068                           ;I2C.c: 52:     static u8 i = 0;;I2C.c: 53:     static u8 ack = 0;;I2C.c: 54:     u8 typ
      +                          e;;I2C.c: 60:     if((SSP1IF == 1) || ((TMR2IF == 1) && ((I2CConfig.State == DELAY_DA) |
      +                          | (I2CConfig.State == DELAY_INTER) || (I2CConfig.State == DELAY_TIMEOUT))))
  9069  000056  B69E               	btfsc	3998,3,c	;volatile
  9070  000058  EF30  F000         	goto	i2u655_41
  9071  00005C  EF32  F000         	goto	i2u655_40
  9072  000060                     i2u655_41:
  9073  000060  EF20  F003         	goto	i2l5685
  9074  000064                     i2u655_40:
  9075  000064  A29E               	btfss	3998,1,c	;volatile
  9076  000066  EF37  F000         	goto	i2u656_41
  9077  00006A  EF39  F000         	goto	i2u656_40
  9078  00006E                     i2u656_41:
  9079  00006E  EF54  F003         	goto	i2l164
  9080  000072                     i2u656_40:
  9081  000072  0E0E               	movlw	14
  9082  000074  0101               	movlb	1	; () banked
  9083  000076  190B               	xorwf	_I2CConfig& (0+255),w,b
  9084  000078  B4D8               	btfsc	status,2,c
  9085  00007A  EF41  F000         	goto	i2u657_41
  9086  00007E  EF43  F000         	goto	i2u657_40
  9087  000082                     i2u657_41:
  9088  000082  EF57  F000         	goto	i2l169
  9089  000086                     i2u657_40:
  9090  000086                     
  9091                           ; BSR set to: 1
  9092  000086  0E0D               	movlw	13
  9093  000088  190B               	xorwf	_I2CConfig& (0+255),w,b
  9094  00008A  B4D8               	btfsc	status,2,c
  9095  00008C  EF4A  F000         	goto	i2u658_41
  9096  000090  EF4C  F000         	goto	i2u658_40
  9097  000094                     i2u658_41:
  9098  000094  EF57  F000         	goto	i2l169
  9099  000098                     i2u658_40:
  9100  000098                     
  9101                           ; BSR set to: 1
  9102  000098  0E0C               	movlw	12
  9103  00009A  190B               	xorwf	_I2CConfig& (0+255),w,b
  9104  00009C  A4D8               	btfss	status,2,c
  9105  00009E  EF53  F000         	goto	i2u659_41
  9106  0000A2  EF55  F000         	goto	i2u659_40
  9107  0000A6                     i2u659_41:
  9108  0000A6  EF54  F003         	goto	i2l164
  9109  0000AA                     i2u659_40:
  9110  0000AA  EF20  F003         	goto	i2l5685
  9111  0000AE                     i2l169:
  9112                           
  9113                           ; BSR set to: 1
  9114                           ;I2C.c: 64:         switch(I2CConfig.State)
  9115  0000AE  EF20  F003         	goto	i2l5685
  9116  0000B2                     i2l5479:
  9117                           
  9118                           ; BSR set to: 0
  9119                           ;I2C.c: 68:                 i = 0;
  9120  0000B2  0E00               	movlw	0
  9121  0000B4  6FDE               	movwf	I2C_ISR@i& (0+255),b
  9122                           
  9123                           ;I2C.c: 69:                 ack = 0;
  9124  0000B6  0E00               	movlw	0
  9125  0000B8  6FDD               	movwf	I2C_ISR@ack& (0+255),b
  9126                           
  9127                           ;I2C.c: 70:                 if(I2CConfig.Buffer[0].delay > 0)
  9128  0000BA  0101               	movlb	1	; () banked
  9129  0000BC  5112               	movf	(_I2CConfig+7)& (0+255),w,b
  9130  0000BE  B4D8               	btfsc	status,2,c
  9131  0000C0  EF64  F000         	goto	i2u660_41
  9132  0000C4  EF66  F000         	goto	i2u660_40
  9133  0000C8                     i2u660_41:
  9134  0000C8  EF6F  F000         	goto	i2l5485
  9135  0000CC                     i2u660_40:
  9136  0000CC                     
  9137                           ; BSR set to: 1
  9138                           ;I2C.c: 71:                 {;I2C.c: 72:                     timer = I2CConfig.Buffer[0]
      +                          .delay;
  9139  0000CC  C112  F0D7         	movff	_I2CConfig+7,_timer
  9140  0000D0  0100               	movlb	0	; () banked
  9141  0000D2  6BD8               	clrf	(_timer+1)& (0+255),b
  9142  0000D4                     
  9143                           ; BSR set to: 0
  9144                           ;I2C.c: 73:                     I2CConfig.State = DELAY_DA;
  9145  0000D4  0E0E               	movlw	14
  9146  0000D6  0101               	movlb	1	; () banked
  9147  0000D8  6F0B               	movwf	_I2CConfig& (0+255),b
  9148                           
  9149                           ;I2C.c: 74:                 }
  9150  0000DA  EF77  F000         	goto	i2l5487
  9151  0000DE                     i2l5485:
  9152                           
  9153                           ; BSR set to: 1
  9154                           ;I2C.c: 76:                 {;I2C.c: 77:                     timer = 10;
  9155  0000DE  0E00               	movlw	0
  9156  0000E0  0100               	movlb	0	; () banked
  9157  0000E2  6FD8               	movwf	(_timer+1)& (0+255),b
  9158  0000E4  0E0A               	movlw	10
  9159  0000E6  6FD7               	movwf	_timer& (0+255),b
  9160                           
  9161                           ;I2C.c: 78:                     I2CConfig.State = DELAY_TIMEOUT;
  9162  0000E8  0E0C               	movlw	12
  9163  0000EA  0101               	movlb	1	; () banked
  9164  0000EC  6F0B               	movwf	_I2CConfig& (0+255),b
  9165  0000EE                     i2l5487:
  9166                           
  9167                           ; BSR set to: 1
  9168                           ;I2C.c: 83:                 SSP1BUF = I2CConfig.Buffer[0].adress;
  9169  0000EE  C10D  FFC9         	movff	_I2CConfig+2,4041	;volatile
  9170                           
  9171                           ;I2C.c: 85:                 break;
  9172  0000F2  EF53  F003         	goto	i2l174
  9173  0000F6                     i2l175:
  9174                           
  9175                           ; BSR set to: 0
  9176                           ;I2C.c: 91:                 if(SSP1CON2bits.ACKSTAT==0)
  9177  0000F6  BCC5               	btfsc	197,6,c	;volatile
  9178  0000F8  EF80  F000         	goto	i2u661_41
  9179  0000FC  EF82  F000         	goto	i2u661_40
  9180  000100                     i2u661_41:
  9181  000100  EFE0  F000         	goto	i2l5519
  9182  000104                     i2u661_40:
  9183  000104                     
  9184                           ; BSR set to: 0
  9185                           ;I2C.c: 92:                 {;I2C.c: 94:                     if(I2CConfig.Buffer[0].size
      +                          Data > 1)
  9186  000104  0E01               	movlw	1
  9187  000106  0101               	movlb	1	; () banked
  9188  000108  6511               	cpfsgt	(_I2CConfig+6)& (0+255),b
  9189  00010A  EF89  F000         	goto	i2u662_41
  9190  00010E  EF8B  F000         	goto	i2u662_40
  9191  000112                     i2u662_41:
  9192  000112  EFB7  F000         	goto	i2l5505
  9193  000116                     i2u662_40:
  9194  000116                     
  9195                           ; BSR set to: 1
  9196                           ;I2C.c: 95:                     {;I2C.c: 99:                         t_mem Pointeur = I2
      +                          CConfig.Buffer[0].data;
  9197  000116  C10E  F067         	movff	_I2CConfig+3,I2C_ISR@Pointeur
  9198  00011A  C10F  F068         	movff	_I2CConfig+4,I2C_ISR@Pointeur+1
  9199  00011E                     
  9200                           ; BSR set to: 1
  9201                           ;I2C.c: 100:                         u8 *point;;I2C.c: 101:                         poin
      +                          t = *Pointeur;
  9202  00011E  C067  FFD9         	movff	I2C_ISR@Pointeur,fsr2l
  9203  000122  C068  FFDA         	movff	I2C_ISR@Pointeur+1,fsr2h
  9204  000126  CFDE F069          	movff	postinc2,I2C_ISR@point
  9205  00012A  CFDD F06A          	movff	postdec2,I2C_ISR@point+1
  9206                           
  9207                           ;I2C.c: 102:                         SSP1BUF = point[i];
  9208  00012E  0100               	movlb	0	; () banked
  9209  000130  51DE               	movf	I2C_ISR@i& (0+255),w,b
  9210  000132  2569               	addwf	I2C_ISR@point& (0+255),w,b
  9211  000134  6ED9               	movwf	fsr2l,c
  9212  000136  0E00               	movlw	0
  9213  000138  216A               	addwfc	(I2C_ISR@point+1)& (0+255),w,b
  9214  00013A  6EDA               	movwf	fsr2h,c
  9215  00013C  50DF               	movf	indf2,w,c
  9216  00013E  6EC9               	movwf	201,c	;volatile
  9217  000140                     
  9218                           ; BSR set to: 0
  9219                           ;I2C.c: 104:                         i++;
  9220  000140  2BDE               	incf	I2C_ISR@i& (0+255),f,b
  9221  000142                     
  9222                           ; BSR set to: 0
  9223                           ;I2C.c: 105:                         I2CConfig.Buffer[0].sizeData--;
  9224  000142  0101               	movlb	1	; () banked
  9225  000144  0711               	decf	(_I2CConfig+6)& (0+255),f,b
  9226  000146                     
  9227                           ; BSR set to: 1
  9228                           ;I2C.c: 106:                         if(I2CConfig.Buffer[0].delay > 0)
  9229  000146  5112               	movf	(_I2CConfig+7)& (0+255),w,b
  9230  000148  B4D8               	btfsc	status,2,c
  9231  00014A  EFA9  F000         	goto	i2u663_41
  9232  00014E  EFAB  F000         	goto	i2u663_40
  9233  000152                     i2u663_41:
  9234  000152  EF53  F003         	goto	i2l174
  9235  000156                     i2u663_40:
  9236  000156                     
  9237                           ; BSR set to: 1
  9238                           ;I2C.c: 107:                         {;I2C.c: 108:                             ack = 0;
  9239  000156  0E00               	movlw	0
  9240  000158  0100               	movlb	0	; () banked
  9241  00015A  6FDD               	movwf	I2C_ISR@ack& (0+255),b
  9242                           
  9243                           ;I2C.c: 109:                             I2CConfig.State = DELAY_DA;
  9244  00015C  0E0E               	movlw	14
  9245  00015E  0101               	movlb	1	; () banked
  9246  000160  6F0B               	movwf	_I2CConfig& (0+255),b
  9247  000162                     i2l5503:
  9248                           
  9249                           ; BSR set to: 1
  9250                           ;I2C.c: 110:                             timer = I2CConfig.Buffer[0].delay;
  9251  000162  C112  F0D7         	movff	_I2CConfig+7,_timer
  9252  000166  0100               	movlb	0	; () banked
  9253  000168  6BD8               	clrf	(_timer+1)& (0+255),b
  9254  00016A  EF53  F003         	goto	i2l174
  9255  00016E                     i2l5505:
  9256                           
  9257                           ; BSR set to: 1
  9258                           ;I2C.c: 114:                     {;I2C.c: 118:                         t_mem Pointeur = 
      +                          I2CConfig.Buffer[0].data;
  9259  00016E  C10E  F06B         	movff	_I2CConfig+3,I2C_ISR@Pointeur_727
  9260  000172  C10F  F06C         	movff	_I2CConfig+4,I2C_ISR@Pointeur_727+1
  9261  000176                     
  9262                           ; BSR set to: 1
  9263                           ;I2C.c: 119:                         u8 *point;;I2C.c: 120:                         poin
      +                          t = *Pointeur;
  9264  000176  C06B  FFD9         	movff	I2C_ISR@Pointeur_727,fsr2l
  9265  00017A  C06C  FFDA         	movff	I2C_ISR@Pointeur_727+1,fsr2h
  9266  00017E  CFDE F06D          	movff	postinc2,I2C_ISR@point_728
  9267  000182  CFDD F06E          	movff	postdec2,I2C_ISR@point_728+1
  9268                           
  9269                           ;I2C.c: 121:                         SSP1BUF = point[i];
  9270  000186  0100               	movlb	0	; () banked
  9271  000188  51DE               	movf	I2C_ISR@i& (0+255),w,b
  9272  00018A  256D               	addwf	I2C_ISR@point_728& (0+255),w,b
  9273  00018C  6ED9               	movwf	fsr2l,c
  9274  00018E  0E00               	movlw	0
  9275  000190  216E               	addwfc	(I2C_ISR@point_728+1)& (0+255),w,b
  9276  000192  6EDA               	movwf	fsr2h,c
  9277  000194  50DF               	movf	indf2,w,c
  9278  000196  6EC9               	movwf	201,c	;volatile
  9279  000198                     
  9280                           ; BSR set to: 0
  9281                           ;I2C.c: 123:                         i++;
  9282  000198  2BDE               	incf	I2C_ISR@i& (0+255),f,b
  9283  00019A                     
  9284                           ; BSR set to: 0
  9285                           ;I2C.c: 124:                         I2CConfig.Buffer[0].sizeData--;
  9286  00019A  0101               	movlb	1	; () banked
  9287  00019C  0711               	decf	(_I2CConfig+6)& (0+255),f,b
  9288  00019E                     
  9289                           ; BSR set to: 1
  9290                           ;I2C.c: 125:                         if(I2CConfig.Buffer[0].type == I2C_MASTER_WRITE_WIT
      +                          H_RESTART)
  9291  00019E  0E02               	movlw	2
  9292  0001A0  190C               	xorwf	(_I2CConfig+1)& (0+255),w,b
  9293  0001A2  A4D8               	btfss	status,2,c
  9294  0001A4  EFD6  F000         	goto	i2u664_41
  9295  0001A8  EFD8  F000         	goto	i2u664_40
  9296  0001AC                     i2u664_41:
  9297  0001AC  EFDC  F000         	goto	i2l5517
  9298  0001B0                     i2u664_40:
  9299  0001B0                     i2l5515:
  9300                           
  9301                           ; BSR set to: 1
  9302                           ;I2C.c: 126:                         {;I2C.c: 127:                             I2CConfig
      +                          .State = MASTER_STOP;
  9303  0001B0  0E09               	movlw	9
  9304  0001B2  6F0B               	movwf	_I2CConfig& (0+255),b
  9305                           
  9306                           ;I2C.c: 128:                         }
  9307  0001B4  EF53  F003         	goto	i2l174
  9308  0001B8                     i2l5517:
  9309                           
  9310                           ; BSR set to: 1
  9311                           ;I2C.c: 130:                             I2CConfig.State = MASTER_ACK_DA;
  9312  0001B8  0E05               	movlw	5
  9313  0001BA  6F0B               	movwf	_I2CConfig& (0+255),b
  9314  0001BC  EF53  F003         	goto	i2l174
  9315  0001C0                     i2l5519:
  9316                           
  9317                           ; BSR set to: 0
  9318                           ;I2C.c: 136:                 {;I2C.c: 137:                     ack = 0;
  9319  0001C0  0E00               	movlw	0
  9320  0001C2  6FDD               	movwf	I2C_ISR@ack& (0+255),b
  9321  0001C4                     
  9322                           ; BSR set to: 0
  9323                           ;I2C.c: 138:                     LATD|=1;
  9324  0001C4  808C               	bsf	140,0,c	;volatile
  9325  0001C6                     
  9326                           ; BSR set to: 0
  9327                           ;I2C.c: 142:                     SSP1CON2bits.SEN = 1;
  9328  0001C6  80C5               	bsf	197,0,c	;volatile
  9329  0001C8                     
  9330                           ; BSR set to: 0
  9331                           ;I2C.c: 144:                     if(I2CConfig.Buffer[0].delay > 0)
  9332  0001C8  0101               	movlb	1	; () banked
  9333  0001CA  5112               	movf	(_I2CConfig+7)& (0+255),w,b
  9334  0001CC  B4D8               	btfsc	status,2,c
  9335  0001CE  EFEB  F000         	goto	i2u665_41
  9336  0001D2  EFED  F000         	goto	i2u665_40
  9337  0001D6                     i2u665_41:
  9338  0001D6  EFD8  F000         	goto	i2l5515
  9339  0001DA                     i2u665_40:
  9340  0001DA                     i2l5527:
  9341                           
  9342                           ; BSR set to: 1
  9343                           ;I2C.c: 145:                     {;I2C.c: 146:                         I2CConfig.State =
      +                           DELAY_INTER;
  9344  0001DA  0E0D               	movlw	13
  9345  0001DC  6F0B               	movwf	_I2CConfig& (0+255),b
  9346  0001DE  EFB1  F000         	goto	i2l5503
  9347  0001E2                     i2l185:
  9348                           
  9349                           ; BSR set to: 0
  9350                           ;I2C.c: 159:                 SSP1CON2bits.RCEN = 1;
  9351  0001E2  86C5               	bsf	197,3,c	;volatile
  9352  0001E4                     
  9353                           ; BSR set to: 0
  9354                           ;I2C.c: 161:                 I2CConfig.State = MASTER_READ_NOACK;
  9355  0001E4  0E07               	movlw	7
  9356  0001E6  0101               	movlb	1	; () banked
  9357  0001E8  6F0B               	movwf	_I2CConfig& (0+255),b
  9358                           
  9359                           ;I2C.c: 162:                 break;
  9360  0001EA  EF53  F003         	goto	i2l174
  9361  0001EE                     i2l5535:
  9362                           
  9363                           ; BSR set to: 0
  9364                           ;I2C.c: 164:                 if(i < (I2CConfig.Buffer[0].sizeData - 1))
  9365  0001EE  0EFF               	movlw	255
  9366  0001F0  6F60               	movwf	??_I2C_ISR& (0+255),b
  9367  0001F2  0EFF               	movlw	255
  9368  0001F4  6F61               	movwf	(??_I2C_ISR+1)& (0+255),b
  9369  0001F6  0101               	movlb	1	; () banked
  9370  0001F8  5111               	movf	(_I2CConfig+6)& (0+255),w,b
  9371  0001FA  0100               	movlb	0	; () banked
  9372  0001FC  6F62               	movwf	(??_I2C_ISR+2)& (0+255),b
  9373  0001FE  6B63               	clrf	(??_I2C_ISR+3)& (0+255),b
  9374  000200  5160               	movf	??_I2C_ISR& (0+255),w,b
  9375  000202  2762               	addwf	(??_I2C_ISR+2)& (0+255),f,b
  9376  000204  5161               	movf	(??_I2C_ISR+1)& (0+255),w,b
  9377  000206  2363               	addwfc	(??_I2C_ISR+3)& (0+255),f,b
  9378  000208  51DE               	movf	I2C_ISR@i& (0+255),w,b
  9379  00020A  6F64               	movwf	(??_I2C_ISR+4)& (0+255),b
  9380  00020C  6B65               	clrf	(??_I2C_ISR+5)& (0+255),b
  9381  00020E  5162               	movf	(??_I2C_ISR+2)& (0+255),w,b
  9382  000210  5D64               	subwf	(??_I2C_ISR+4)& (0+255),w,b
  9383  000212  5165               	movf	(??_I2C_ISR+5)& (0+255),w,b
  9384  000214  0A80               	xorlw	128
  9385  000216  6F66               	movwf	(??_I2C_ISR+6)& (0+255),b
  9386  000218  5163               	movf	(??_I2C_ISR+3)& (0+255),w,b
  9387  00021A  0A80               	xorlw	128
  9388  00021C  5966               	subwfb	(??_I2C_ISR+6)& (0+255),w,b
  9389  00021E  B0D8               	btfsc	status,0,c
  9390  000220  EF14  F001         	goto	i2u666_41
  9391  000224  EF16  F001         	goto	i2u666_40
  9392  000228                     i2u666_41:
  9393  000228  EF45  F001         	goto	i2l187
  9394  00022C                     i2u666_40:
  9395  00022C                     
  9396                           ; BSR set to: 0
  9397                           ;I2C.c: 165:                 {;I2C.c: 170:                     SSP1CON2bits.ACKDT = 0;
  9398  00022C  9AC5               	bcf	197,5,c	;volatile
  9399  00022E                     
  9400                           ; BSR set to: 0
  9401                           ;I2C.c: 171:                     t_mem Pointeur = I2CConfig.Buffer[0].data;
  9402  00022E  C10E  F06F         	movff	_I2CConfig+3,I2C_ISR@Pointeur_729
  9403  000232  C10F  F070         	movff	_I2CConfig+4,I2C_ISR@Pointeur_729+1
  9404  000236                     
  9405                           ; BSR set to: 0
  9406                           ;I2C.c: 172:                     u8 *point;;I2C.c: 173:                     point = *Poi
      +                          nteur;
  9407  000236  C06F  FFD9         	movff	I2C_ISR@Pointeur_729,fsr2l
  9408  00023A  C070  FFDA         	movff	I2C_ISR@Pointeur_729+1,fsr2h
  9409  00023E  CFDE F071          	movff	postinc2,I2C_ISR@point_730
  9410  000242  CFDD F072          	movff	postdec2,I2C_ISR@point_730+1
  9411                           
  9412                           ;I2C.c: 174:                     point[i] = SSP1BUF;
  9413  000246  51DE               	movf	I2C_ISR@i& (0+255),w,b
  9414  000248  2571               	addwf	I2C_ISR@point_730& (0+255),w,b
  9415  00024A  6ED9               	movwf	fsr2l,c
  9416  00024C  0E00               	movlw	0
  9417  00024E  2172               	addwfc	(I2C_ISR@point_730+1)& (0+255),w,b
  9418  000250  6EDA               	movwf	fsr2h,c
  9419  000252  CFC9 FFDF          	movff	4041,indf2	;volatile
  9420  000256                     
  9421                           ; BSR set to: 0
  9422                           ;I2C.c: 176:                     i++;
  9423  000256  2BDE               	incf	I2C_ISR@i& (0+255),f,b
  9424  000258                     
  9425                           ; BSR set to: 0
  9426                           ;I2C.c: 177:                     if(I2CConfig.Buffer[0].delay > 0)
  9427  000258  0101               	movlb	1	; () banked
  9428  00025A  5112               	movf	(_I2CConfig+7)& (0+255),w,b
  9429  00025C  B4D8               	btfsc	status,2,c
  9430  00025E  EF33  F001         	goto	i2u667_41
  9431  000262  EF35  F001         	goto	i2u667_40
  9432  000266                     i2u667_41:
  9433  000266  EF41  F001         	goto	i2l5551
  9434  00026A                     i2u667_40:
  9435  00026A                     
  9436                           ; BSR set to: 1
  9437                           ;I2C.c: 178:                     {;I2C.c: 179:                         ack = 0;
  9438  00026A  0E00               	movlw	0
  9439  00026C  0100               	movlb	0	; () banked
  9440  00026E  6FDD               	movwf	I2C_ISR@ack& (0+255),b
  9441                           
  9442                           ;I2C.c: 180:                         I2CConfig.State = DELAY_DA;
  9443  000270  0E0E               	movlw	14
  9444  000272  0101               	movlb	1	; () banked
  9445  000274  6F0B               	movwf	_I2CConfig& (0+255),b
  9446  000276                     
  9447                           ; BSR set to: 1
  9448                           ;I2C.c: 181:                         timer = I2CConfig.Buffer[0].delay;
  9449  000276  C112  F0D7         	movff	_I2CConfig+7,_timer
  9450  00027A  0100               	movlb	0	; () banked
  9451  00027C  6BD8               	clrf	(_timer+1)& (0+255),b
  9452                           
  9453                           ;I2C.c: 182:                     }
  9454  00027E  EF5E  F001         	goto	i2l5561
  9455  000282                     i2l5551:
  9456                           
  9457                           ; BSR set to: 1
  9458                           ;I2C.c: 184:                         I2CConfig.State = MASTER_READ;
  9459  000282  0E06               	movlw	6
  9460  000284  6F0B               	movwf	_I2CConfig& (0+255),b
  9461  000286  EF5E  F001         	goto	i2l5561
  9462  00028A                     i2l187:
  9463                           
  9464                           ; BSR set to: 0
  9465                           ;I2C.c: 187:                 {;I2C.c: 192:                     SSP1CON2bits.ACKDT = 1;
  9466  00028A  8AC5               	bsf	197,5,c	;volatile
  9467  00028C                     
  9468                           ; BSR set to: 0
  9469                           ;I2C.c: 193:                     t_mem Pointeur = I2CConfig.Buffer[0].data;
  9470  00028C  C10E  F073         	movff	_I2CConfig+3,I2C_ISR@Pointeur_731
  9471  000290  C10F  F074         	movff	_I2CConfig+4,I2C_ISR@Pointeur_731+1
  9472  000294                     
  9473                           ; BSR set to: 0
  9474                           ;I2C.c: 194:                     u8 *point;;I2C.c: 195:                     point = *Poi
      +                          nteur;
  9475  000294  C073  FFD9         	movff	I2C_ISR@Pointeur_731,fsr2l
  9476  000298  C074  FFDA         	movff	I2C_ISR@Pointeur_731+1,fsr2h
  9477  00029C  CFDE F075          	movff	postinc2,I2C_ISR@point_732
  9478  0002A0  CFDD F076          	movff	postdec2,I2C_ISR@point_732+1
  9479                           
  9480                           ;I2C.c: 196:                     point[i] = SSP1BUF;
  9481  0002A4  51DE               	movf	I2C_ISR@i& (0+255),w,b
  9482  0002A6  2575               	addwf	I2C_ISR@point_732& (0+255),w,b
  9483  0002A8  6ED9               	movwf	fsr2l,c
  9484  0002AA  0E00               	movlw	0
  9485  0002AC  2176               	addwfc	(I2C_ISR@point_732+1)& (0+255),w,b
  9486  0002AE  6EDA               	movwf	fsr2h,c
  9487  0002B0  CFC9 FFDF          	movff	4041,indf2	;volatile
  9488  0002B4                     
  9489                           ; BSR set to: 0
  9490                           ;I2C.c: 198:                     i++;
  9491  0002B4  2BDE               	incf	I2C_ISR@i& (0+255),f,b
  9492  0002B6                     
  9493                           ; BSR set to: 0
  9494                           ;I2C.c: 199:                     I2CConfig.State = MASTER_ACK_DA;
  9495  0002B6  0E05               	movlw	5
  9496  0002B8  0101               	movlb	1	; () banked
  9497  0002BA  6F0B               	movwf	_I2CConfig& (0+255),b
  9498  0002BC                     i2l5561:
  9499                           
  9500                           ;I2C.c: 204:                 SSP1CON2bits.ACKEN=1;
  9501  0002BC  88C5               	bsf	197,4,c	;volatile
  9502                           
  9503                           ;I2C.c: 206:                 break;
  9504  0002BE  EF53  F003         	goto	i2l174
  9505  0002C2                     i2l5563:
  9506                           
  9507                           ; BSR set to: 0
  9508                           ;I2C.c: 208:                 ack = 0;
  9509  0002C2  0E00               	movlw	0
  9510  0002C4  6FDD               	movwf	I2C_ISR@ack& (0+255),b
  9511  0002C6                     
  9512                           ; BSR set to: 0
  9513                           ;I2C.c: 212:                 SSP1CON2bits.PEN = 1;
  9514  0002C6  84C5               	bsf	197,2,c	;volatile
  9515                           
  9516                           ;I2C.c: 214:                 if(I2CConfig.Buffer[0].delay > 0)
  9517  0002C8  0101               	movlb	1	; () banked
  9518  0002CA  5112               	movf	(_I2CConfig+7)& (0+255),w,b
  9519  0002CC  B4D8               	btfsc	status,2,c
  9520  0002CE  EF6B  F001         	goto	i2u668_41
  9521  0002D2  EF6D  F001         	goto	i2u668_40
  9522  0002D6                     i2u668_41:
  9523  0002D6  EFD8  F000         	goto	i2l5515
  9524  0002DA                     i2u668_40:
  9525  0002DA  EFED  F000         	goto	i2l5527
  9526  0002DE                     i2l194:
  9527                           
  9528                           ; BSR set to: 0
  9529                           ;I2C.c: 225:                 type = I2CConfig.Buffer[0].type;
  9530  0002DE  C10C  F077         	movff	_I2CConfig+1,I2C_ISR@type
  9531  0002E2                     
  9532                           ; BSR set to: 0
  9533                           ;I2C.c: 226:                 if(I2CConfig.Buffer[0].type == I2C_MASTER_READ)
  9534  0002E2  0101               	movlb	1	; () banked
  9535  0002E4  050C               	decf	(_I2CConfig+1)& (0+255),w,b
  9536  0002E6  A4D8               	btfss	status,2,c
  9537  0002E8  EF78  F001         	goto	i2u669_41
  9538  0002EC  EF7A  F001         	goto	i2u669_40
  9539  0002F0                     i2u669_41:
  9540  0002F0  EF09  F002         	goto	i2l5603
  9541  0002F4                     i2u669_40:
  9542  0002F4                     
  9543                           ; BSR set to: 1
  9544                           ;I2C.c: 227:                 {;I2C.c: 228:                     if (I2CConfig.RcvBufferNb
      +                          r > 9)
  9545  0002F4  0E09               	movlw	9
  9546  0002F6  65AF               	cpfsgt	(_I2CConfig+164)& (0+255),b
  9547  0002F8  EF80  F001         	goto	i2u670_41
  9548  0002FC  EF82  F001         	goto	i2u670_40
  9549  000300                     i2u670_41:
  9550  000300  EFD4  F001         	goto	i2l5591
  9551  000304                     i2u670_40:
  9552  000304                     
  9553                           ; BSR set to: 1
  9554                           ;I2C.c: 229:                     {;I2C.c: 233:                         getFree(I2CConfig
      +                          .RcvBuffer[0].data, 0);
  9555  000304  C154  F00C         	movff	_I2CConfig+73,i2getFree@Pointer
  9556  000308  C155  F00D         	movff	_I2CConfig+74,i2getFree@Pointer+1
  9557  00030C  0E00               	movlw	0
  9558  00030E  6E0E               	movwf	i2getFree@memoryNumber^0,c
  9559  000310  EC0A  F006         	call	i2_getFree	;wreg free
  9560  000314                     
  9561                           ;I2C.c: 235:                         for(i = 0; i<(I2CConfig.RcvBufferNbr - 1) ; i++)
  9562  000314  0E00               	movlw	0
  9563  000316  0100               	movlb	0	; () banked
  9564  000318  6FDE               	movwf	I2C_ISR@i& (0+255),b
  9565  00031A  EFB3  F001         	goto	i2l5587
  9566  00031E                     i2l5581:
  9567                           
  9568                           ; BSR set to: 0
  9569                           ;I2C.c: 236:                         {;I2C.c: 237:                             I2CConfig
      +                          .RcvBuffer[i] = I2CConfig.RcvBuffer[i+1];
  9570  00031E  51DE               	movf	I2C_ISR@i& (0+255),w,b
  9571  000320  0D07               	mullw	7
  9572  000322  0E59               	movlw	low (_I2CConfig+78)
  9573  000324  24F3               	addwf	243,w,c
  9574  000326  6ED9               	movwf	fsr2l,c
  9575  000328  0E01               	movlw	high (_I2CConfig+78)
  9576  00032A  20F4               	addwfc	prodh,w,c
  9577  00032C  6EDA               	movwf	fsr2h,c
  9578  00032E  51DE               	movf	I2C_ISR@i& (0+255),w,b
  9579  000330  0D07               	mullw	7
  9580  000332  0E52               	movlw	low (_I2CConfig+71)
  9581  000334  24F3               	addwf	243,w,c
  9582  000336  6EE1               	movwf	fsr1l,c
  9583  000338  0E01               	movlw	high (_I2CConfig+71)
  9584  00033A  20F4               	addwfc	prodh,w,c
  9585  00033C  6EE2               	movwf	fsr1h,c
  9586  00033E  0E06               	movlw	6
  9587  000340                     i2u671_41:
  9588  000340  CFDB FFE3          	movff	plusw2,plusw1
  9589  000344  06E8               	decf	wreg,f,c
  9590  000346  E2FC               	bc	i2u671_41
  9591  000348                     
  9592                           ; BSR set to: 0
  9593                           ;I2C.c: 238:                             I2CConfig.RcvMsgID[i] = I2CConfig.RcvMsgID[i+1]
      +                          ;
  9594  000348  0EA4               	movlw	low (_I2CConfig+153)
  9595  00034A  25DE               	addwf	I2C_ISR@i& (0+255),w,b
  9596  00034C  6ED9               	movwf	fsr2l,c
  9597  00034E  6ADA               	clrf	fsr2h,c
  9598  000350  0E01               	movlw	high (_I2CConfig+153)
  9599  000352  22DA               	addwfc	fsr2h,f,c
  9600  000354  0EA3               	movlw	low (_I2CConfig+152)
  9601  000356  25DE               	addwf	I2C_ISR@i& (0+255),w,b
  9602  000358  6EE1               	movwf	fsr1l,c
  9603  00035A  6AE2               	clrf	fsr1h,c
  9604  00035C  0E01               	movlw	high (_I2CConfig+152)
  9605  00035E  22E2               	addwfc	fsr1h,f,c
  9606  000360  CFDF FFE7          	movff	indf2,indf1
  9607  000364                     
  9608                           ; BSR set to: 0
  9609                           ;I2C.c: 239:                         }
  9610  000364  2BDE               	incf	I2C_ISR@i& (0+255),f,b
  9611  000366                     i2l5587:
  9612                           
  9613                           ; BSR set to: 0
  9614  000366  0EFF               	movlw	255
  9615  000368  6F60               	movwf	??_I2C_ISR& (0+255),b
  9616  00036A  0EFF               	movlw	255
  9617  00036C  6F61               	movwf	(??_I2C_ISR+1)& (0+255),b
  9618  00036E  0101               	movlb	1	; () banked
  9619  000370  51AF               	movf	(_I2CConfig+164)& (0+255),w,b
  9620  000372  0100               	movlb	0	; () banked
  9621  000374  6F62               	movwf	(??_I2C_ISR+2)& (0+255),b
  9622  000376  6B63               	clrf	(??_I2C_ISR+3)& (0+255),b
  9623  000378  5160               	movf	??_I2C_ISR& (0+255),w,b
  9624  00037A  2762               	addwf	(??_I2C_ISR+2)& (0+255),f,b
  9625  00037C  5161               	movf	(??_I2C_ISR+1)& (0+255),w,b
  9626  00037E  2363               	addwfc	(??_I2C_ISR+3)& (0+255),f,b
  9627  000380  51DE               	movf	I2C_ISR@i& (0+255),w,b
  9628  000382  6F64               	movwf	(??_I2C_ISR+4)& (0+255),b
  9629  000384  6B65               	clrf	(??_I2C_ISR+5)& (0+255),b
  9630  000386  5162               	movf	(??_I2C_ISR+2)& (0+255),w,b
  9631  000388  5D64               	subwf	(??_I2C_ISR+4)& (0+255),w,b
  9632  00038A  5165               	movf	(??_I2C_ISR+5)& (0+255),w,b
  9633  00038C  0A80               	xorlw	128
  9634  00038E  6F66               	movwf	(??_I2C_ISR+6)& (0+255),b
  9635  000390  5163               	movf	(??_I2C_ISR+3)& (0+255),w,b
  9636  000392  0A80               	xorlw	128
  9637  000394  5966               	subwfb	(??_I2C_ISR+6)& (0+255),w,b
  9638  000396  A0D8               	btfss	status,0,c
  9639  000398  EFD0  F001         	goto	i2u672_41
  9640  00039C  EFD2  F001         	goto	i2u672_40
  9641  0003A0                     i2u672_41:
  9642  0003A0  EF8F  F001         	goto	i2l5581
  9643  0003A4                     i2u672_40:
  9644  0003A4                     
  9645                           ; BSR set to: 0
  9646                           ;I2C.c: 240:                         I2CConfig.RcvBufferNbr--;
  9647  0003A4  0101               	movlb	1	; () banked
  9648  0003A6  07AF               	decf	(_I2CConfig+164)& (0+255),f,b
  9649  0003A8                     i2l5591:
  9650                           
  9651                           ; BSR set to: 1
  9652                           ;I2C.c: 242:                     I2CConfig.RcvBuffer[I2CConfig.RcvBufferNbr].adress = I2
      +                          CConfig.Buffer[0].adress;
  9653  0003A8  51AF               	movf	(_I2CConfig+164)& (0+255),w,b
  9654  0003AA  0D07               	mullw	7
  9655  0003AC  0E53               	movlw	low (_I2CConfig+72)
  9656  0003AE  24F3               	addwf	243,w,c
  9657  0003B0  6ED9               	movwf	fsr2l,c
  9658  0003B2  0E01               	movlw	high (_I2CConfig+72)
  9659  0003B4  20F4               	addwfc	prodh,w,c
  9660  0003B6  6EDA               	movwf	fsr2h,c
  9661  0003B8  C10D  FFDF         	movff	_I2CConfig+2,indf2
  9662  0003BC                     
  9663                           ; BSR set to: 1
  9664                           ;I2C.c: 243:                     I2CConfig.RcvBuffer[I2CConfig.RcvBufferNbr].data = I2CC
      +                          onfig.Buffer[0].data;
  9665  0003BC  51AF               	movf	(_I2CConfig+164)& (0+255),w,b
  9666  0003BE  0D07               	mullw	7
  9667  0003C0  0E54               	movlw	low (_I2CConfig+73)
  9668  0003C2  24F3               	addwf	243,w,c
  9669  0003C4  6ED9               	movwf	fsr2l,c
  9670  0003C6  0E01               	movlw	high (_I2CConfig+73)
  9671  0003C8  20F4               	addwfc	prodh,w,c
  9672  0003CA  6EDA               	movwf	fsr2h,c
  9673  0003CC  C10E  FFDE         	movff	_I2CConfig+3,postinc2
  9674  0003D0  C10F  FFDD         	movff	_I2CConfig+4,postdec2
  9675  0003D4                     
  9676                           ; BSR set to: 1
  9677                           ;I2C.c: 244:                     I2CConfig.RcvBuffer[I2CConfig.RcvBufferNbr].sizeData = 
      +                          i;
  9678  0003D4  51AF               	movf	(_I2CConfig+164)& (0+255),w,b
  9679  0003D6  0D07               	mullw	7
  9680  0003D8  0E57               	movlw	low (_I2CConfig+76)
  9681  0003DA  24F3               	addwf	243,w,c
  9682  0003DC  6ED9               	movwf	fsr2l,c
  9683  0003DE  0E01               	movlw	high (_I2CConfig+76)
  9684  0003E0  20F4               	addwfc	prodh,w,c
  9685  0003E2  6EDA               	movwf	fsr2h,c
  9686  0003E4  C0DE  FFDF         	movff	I2C_ISR@i,indf2
  9687  0003E8                     
  9688                           ; BSR set to: 1
  9689                           ;I2C.c: 246:                     I2CConfig.RcvBuffer[I2CConfig.RcvBufferNbr].memID = I2C
      +                          Config.Buffer[0].memID;
  9690  0003E8  51AF               	movf	(_I2CConfig+164)& (0+255),w,b
  9691  0003EA  0D07               	mullw	7
  9692  0003EC  0E56               	movlw	low (_I2CConfig+75)
  9693  0003EE  24F3               	addwf	243,w,c
  9694  0003F0  6ED9               	movwf	fsr2l,c
  9695  0003F2  0E01               	movlw	high (_I2CConfig+75)
  9696  0003F4  20F4               	addwfc	prodh,w,c
  9697  0003F6  6EDA               	movwf	fsr2h,c
  9698  0003F8  C110  FFDF         	movff	_I2CConfig+5,indf2
  9699  0003FC                     
  9700                           ; BSR set to: 1
  9701                           ;I2C.c: 248:                     I2CConfig.RcvMsgID[I2CConfig.RcvBufferNbr] = I2CConfig.
      +                          MsgID[0];
  9702  0003FC  0EA3               	movlw	low (_I2CConfig+152)
  9703  0003FE  25AF               	addwf	(_I2CConfig+164)& (0+255),w,b
  9704  000400  6ED9               	movwf	fsr2l,c
  9705  000402  6ADA               	clrf	fsr2h,c
  9706  000404  0E01               	movlw	high (_I2CConfig+152)
  9707  000406  22DA               	addwfc	fsr2h,f,c
  9708  000408  C198  FFDF         	movff	_I2CConfig+141,indf2
  9709  00040C                     
  9710                           ; BSR set to: 1
  9711                           ;I2C.c: 249:                     I2CConfig.RcvBufferNbr++;
  9712  00040C  2BAF               	incf	(_I2CConfig+164)& (0+255),f,b
  9713                           
  9714                           ;I2C.c: 250:                 }
  9715  00040E  EF11  F002         	goto	i2l5605
  9716  000412                     i2l5603:
  9717                           
  9718                           ; BSR set to: 1
  9719                           ;I2C.c: 258:                 {;I2C.c: 259:                     getFree(I2CConfig.Buffer[
      +                          0].data, 0);
  9720  000412  C10E  F00C         	movff	_I2CConfig+3,i2getFree@Pointer
  9721  000416  C10F  F00D         	movff	_I2CConfig+4,i2getFree@Pointer+1
  9722  00041A  0E00               	movlw	0
  9723  00041C  6E0E               	movwf	i2getFree@memoryNumber^0,c
  9724  00041E  EC0A  F006         	call	i2_getFree	;wreg free
  9725  000422                     i2l5605:
  9726                           
  9727                           ;I2C.c: 262:                 for(i = 0; i<I2CConfig.BufferNbr ; i++)
  9728  000422  0E00               	movlw	0
  9729  000424  0100               	movlb	0	; () banked
  9730  000426  6FDE               	movwf	I2C_ISR@i& (0+255),b
  9731  000428  EF3A  F002         	goto	i2l5613
  9732  00042C                     i2l5607:
  9733                           
  9734                           ; BSR set to: 0
  9735                           ;I2C.c: 263:                 {;I2C.c: 264:                     I2CConfig.Buffer[i] = I2C
      +                          Config.Buffer[i+1];
  9736  00042C  51DE               	movf	I2C_ISR@i& (0+255),w,b
  9737  00042E  0D07               	mullw	7
  9738  000430  0E13               	movlw	low (_I2CConfig+8)
  9739  000432  24F3               	addwf	243,w,c
  9740  000434  6ED9               	movwf	fsr2l,c
  9741  000436  0E01               	movlw	high (_I2CConfig+8)
  9742  000438  20F4               	addwfc	prodh,w,c
  9743  00043A  6EDA               	movwf	fsr2h,c
  9744  00043C  51DE               	movf	I2C_ISR@i& (0+255),w,b
  9745  00043E  0D07               	mullw	7
  9746  000440  0E0C               	movlw	low (_I2CConfig+1)
  9747  000442  24F3               	addwf	243,w,c
  9748  000444  6EE1               	movwf	fsr1l,c
  9749  000446  0E01               	movlw	high (_I2CConfig+1)
  9750  000448  20F4               	addwfc	prodh,w,c
  9751  00044A  6EE2               	movwf	fsr1h,c
  9752  00044C  0E06               	movlw	6
  9753  00044E                     i2u673_41:
  9754  00044E  CFDB FFE3          	movff	plusw2,plusw1
  9755  000452  06E8               	decf	wreg,f,c
  9756  000454  E2FC               	bc	i2u673_41
  9757  000456                     
  9758                           ; BSR set to: 0
  9759                           ;I2C.c: 265:                     I2CConfig.MsgID[i] = I2CConfig.MsgID[i+1];
  9760  000456  0E99               	movlw	low (_I2CConfig+142)
  9761  000458  25DE               	addwf	I2C_ISR@i& (0+255),w,b
  9762  00045A  6ED9               	movwf	fsr2l,c
  9763  00045C  6ADA               	clrf	fsr2h,c
  9764  00045E  0E01               	movlw	high (_I2CConfig+142)
  9765  000460  22DA               	addwfc	fsr2h,f,c
  9766  000462  0E98               	movlw	low (_I2CConfig+141)
  9767  000464  25DE               	addwf	I2C_ISR@i& (0+255),w,b
  9768  000466  6EE1               	movwf	fsr1l,c
  9769  000468  6AE2               	clrf	fsr1h,c
  9770  00046A  0E01               	movlw	high (_I2CConfig+141)
  9771  00046C  22E2               	addwfc	fsr1h,f,c
  9772  00046E  CFDF FFE7          	movff	indf2,indf1
  9773  000472                     
  9774                           ; BSR set to: 0
  9775                           ;I2C.c: 266:                 }
  9776  000472  2BDE               	incf	I2C_ISR@i& (0+255),f,b
  9777  000474                     i2l5613:
  9778                           
  9779                           ; BSR set to: 0
  9780  000474  0101               	movlb	1	; () banked
  9781  000476  51AE               	movf	(_I2CConfig+163)& (0+255),w,b
  9782  000478  0100               	movlb	0	; () banked
  9783  00047A  5DDE               	subwf	I2C_ISR@i& (0+255),w,b
  9784  00047C  A0D8               	btfss	status,0,c
  9785  00047E  EF43  F002         	goto	i2u674_41
  9786  000482  EF45  F002         	goto	i2u674_40
  9787  000486                     i2u674_41:
  9788  000486  EF16  F002         	goto	i2l5607
  9789  00048A                     i2u674_40:
  9790  00048A                     
  9791                           ; BSR set to: 0
  9792                           ;I2C.c: 267:                 I2CConfig.BufferNbr--;
  9793  00048A  0101               	movlb	1	; () banked
  9794  00048C  07AE               	decf	(_I2CConfig+163)& (0+255),f,b
  9795  00048E                     
  9796                           ; BSR set to: 1
  9797                           ;I2C.c: 268:                 if(I2CConfig.BufferNbr > 0)
  9798  00048E  51AE               	movf	(_I2CConfig+163)& (0+255),w,b
  9799  000490  B4D8               	btfsc	status,2,c
  9800  000492  EF4D  F002         	goto	i2u675_41
  9801  000496  EF4F  F002         	goto	i2u675_40
  9802  00049A                     i2u675_41:
  9803  00049A  EF61  F002         	goto	i2l5625
  9804  00049E                     i2u675_40:
  9805  00049E                     
  9806                           ; BSR set to: 1
  9807                           ;I2C.c: 269:                 {;I2C.c: 270:                     I2CConfig.State = MASTER_
      +                          START;
  9808  00049E  0E01               	movlw	1
  9809  0004A0  6F0B               	movwf	_I2CConfig& (0+255),b
  9810  0004A2                     
  9811                           ; BSR set to: 1
  9812                           ;I2C.c: 271:                     if(type == I2C_MASTER_WRITE_WITH_RESTART)
  9813  0004A2  0E02               	movlw	2
  9814  0004A4  0100               	movlb	0	; () banked
  9815  0004A6  1977               	xorwf	I2C_ISR@type& (0+255),w,b
  9816  0004A8  A4D8               	btfss	status,2,c
  9817  0004AA  EF59  F002         	goto	i2u676_41
  9818  0004AE  EF5B  F002         	goto	i2u676_40
  9819  0004B2                     i2u676_41:
  9820  0004B2  EF5E  F002         	goto	i2l205
  9821  0004B6                     i2u676_40:
  9822  0004B6                     
  9823                           ; BSR set to: 0
  9824                           ;I2C.c: 272:                     {;I2C.c: 276:                         SSP1CON2bits.RSEN
      +                           = 1;
  9825  0004B6  82C5               	bsf	197,1,c	;volatile
  9826                           
  9827                           ;I2C.c: 278:                     }
  9828  0004B8  EF53  F003         	goto	i2l174
  9829  0004BC                     i2l205:
  9830                           
  9831                           ; BSR set to: 0
  9832                           ;I2C.c: 280:                     {;I2C.c: 284:                         SSP1CON2bits.SEN 
      +                          = 1;
  9833  0004BC  80C5               	bsf	197,0,c	;volatile
  9834  0004BE  EF53  F003         	goto	i2l174
  9835  0004C2                     i2l5625:
  9836                           
  9837                           ; BSR set to: 1
  9838                           ;I2C.c: 289:                     I2CConfig.State = BUS_READY;
  9839  0004C2  0E00               	movlw	0
  9840  0004C4  6F0B               	movwf	_I2CConfig& (0+255),b
  9841  0004C6  EF53  F003         	goto	i2l174
  9842  0004CA                     i2l208:
  9843                           
  9844                           ; BSR set to: 0
  9845                           ;I2C.c: 296:                 if(SSP1IF)
  9846  0004CA  A69E               	btfss	3998,3,c	;volatile
  9847  0004CC  EF6A  F002         	goto	i2u677_41
  9848  0004D0  EF6C  F002         	goto	i2u677_40
  9849  0004D4                     i2u677_41:
  9850  0004D4  EF6E  F002         	goto	i2l5629
  9851  0004D8                     i2u677_40:
  9852  0004D8                     
  9853                           ; BSR set to: 0
  9854                           ;I2C.c: 297:                     ack = 1;
  9855  0004D8  0E01               	movlw	1
  9856  0004DA  6FDD               	movwf	I2C_ISR@ack& (0+255),b
  9857  0004DC                     i2l5629:
  9858                           
  9859                           ; BSR set to: 0
  9860                           ;I2C.c: 299:                 if((timer == 0) && ack)
  9861  0004DC  51D7               	movf	_timer& (0+255),w,b
  9862  0004DE  11D8               	iorwf	(_timer+1)& (0+255),w,b
  9863  0004E0  A4D8               	btfss	status,2,c
  9864  0004E2  EF75  F002         	goto	i2u678_41
  9865  0004E6  EF77  F002         	goto	i2u678_40
  9866  0004EA                     i2u678_41:
  9867  0004EA  EFA1  F002         	goto	i2l5643
  9868  0004EE                     i2u678_40:
  9869  0004EE                     
  9870                           ; BSR set to: 0
  9871  0004EE  51DD               	movf	I2C_ISR@ack& (0+255),w,b
  9872  0004F0  B4D8               	btfsc	status,2,c
  9873  0004F2  EF7D  F002         	goto	i2u679_41
  9874  0004F6  EF7F  F002         	goto	i2u679_40
  9875  0004FA                     i2u679_41:
  9876  0004FA  EFA1  F002         	goto	i2l5643
  9877  0004FE                     i2u679_40:
  9878  0004FE                     
  9879                           ; BSR set to: 0
  9880                           ;I2C.c: 300:                 {;I2C.c: 301:                     if((I2CConfig.Buffer[0].t
      +                          ype == I2C_MASTER_WRITE)||(I2CConfig.Buffer[0].type == I2C_MASTER_WRITE_WITH_RESTART))
  9881  0004FE  0101               	movlb	1	; () banked
  9882  000500  510C               	movf	(_I2CConfig+1)& (0+255),w,b
  9883  000502  B4D8               	btfsc	status,2,c
  9884  000504  EF86  F002         	goto	i2u680_41
  9885  000508  EF88  F002         	goto	i2u680_40
  9886  00050C                     i2u680_41:
  9887  00050C  EF91  F002         	goto	i2l5637
  9888  000510                     i2u680_40:
  9889  000510                     
  9890                           ; BSR set to: 1
  9891  000510  0E02               	movlw	2
  9892  000512  190C               	xorwf	(_I2CConfig+1)& (0+255),w,b
  9893  000514  A4D8               	btfss	status,2,c
  9894  000516  EF8F  F002         	goto	i2u681_41
  9895  00051A  EF91  F002         	goto	i2u681_40
  9896  00051E                     i2u681_41:
  9897  00051E  EF95  F002         	goto	i2l5639
  9898  000522                     i2u681_40:
  9899  000522                     i2l5637:
  9900                           
  9901                           ; BSR set to: 1
  9902                           ;I2C.c: 302:                     {;I2C.c: 303:                         I2CConfig.State =
      +                           MASTER_WRITE;
  9903  000522  0E04               	movlw	4
  9904  000524  6F0B               	movwf	_I2CConfig& (0+255),b
  9905                           
  9906                           ;I2C.c: 304:                         goto delay_end;
  9907  000526  EF20  F003         	goto	i2l5685
  9908  00052A                     i2l5639:
  9909                           
  9910                           ; BSR set to: 1
  9911                           ;I2C.c: 306:                     if(I2CConfig.Buffer[0].type == I2C_MASTER_READ)
  9912  00052A  050C               	decf	(_I2CConfig+1)& (0+255),w,b
  9913  00052C  A4D8               	btfss	status,2,c
  9914  00052E  EF9B  F002         	goto	i2u682_41
  9915  000532  EF9D  F002         	goto	i2u682_40
  9916  000536                     i2u682_41:
  9917  000536  EFA1  F002         	goto	i2l5643
  9918  00053A                     i2u682_40:
  9919  00053A                     i2l5641:
  9920                           
  9921                           ; BSR set to: 1
  9922                           ;I2C.c: 307:                     {;I2C.c: 308:                         I2CConfig.State =
      +                           MASTER_READ;
  9923  00053A  0E06               	movlw	6
  9924  00053C  6F0B               	movwf	_I2CConfig& (0+255),b
  9925                           
  9926                           ;I2C.c: 309:                         goto delay_end;
  9927  00053E  EF20  F003         	goto	i2l5685
  9928  000542                     i2l5643:
  9929                           
  9930                           ;I2C.c: 312:                 if((timer == 0) && (ack == 0))
  9931  000542  0100               	movlb	0	; () banked
  9932  000544  51D7               	movf	_timer& (0+255),w,b
  9933  000546  11D8               	iorwf	(_timer+1)& (0+255),w,b
  9934  000548  A4D8               	btfss	status,2,c
  9935  00054A  EFA9  F002         	goto	i2u683_41
  9936  00054E  EFAB  F002         	goto	i2u683_40
  9937  000552                     i2u683_41:
  9938  000552  EF53  F003         	goto	i2l174
  9939  000556                     i2u683_40:
  9940  000556                     
  9941                           ; BSR set to: 0
  9942  000556  51DD               	movf	I2C_ISR@ack& (0+255),w,b
  9943  000558  A4D8               	btfss	status,2,c
  9944  00055A  EFB1  F002         	goto	i2u684_41
  9945  00055E  EFB3  F002         	goto	i2u684_40
  9946  000562                     i2u684_41:
  9947  000562  EF53  F003         	goto	i2l174
  9948  000566                     i2u684_40:
  9949  000566                     
  9950                           ; BSR set to: 0
  9951                           ;I2C.c: 313:                 {;I2C.c: 318:                     SSP1CON2bits.SEN = 0;
  9952  000566  90C5               	bcf	197,0,c	;volatile
  9953                           
  9954                           ;I2C.c: 319:                     SSP1CON2bits.SEN = 1;
  9955  000568  80C5               	bsf	197,0,c	;volatile
  9956  00056A                     i2l5649:
  9957                           
  9958                           ; BSR set to: 0
  9959                           ;I2C.c: 321:                     I2CConfig.State = MASTER_START;
  9960  00056A  0E01               	movlw	1
  9961  00056C  0101               	movlb	1	; () banked
  9962  00056E  6F0B               	movwf	_I2CConfig& (0+255),b
  9963  000570  EF53  F003         	goto	i2l174
  9964  000574                     i2l216:
  9965                           
  9966                           ; BSR set to: 0
  9967                           ;I2C.c: 329:                 if(SSP1IF)
  9968  000574  A69E               	btfss	3998,3,c	;volatile
  9969  000576  EFBF  F002         	goto	i2u685_41
  9970  00057A  EFC1  F002         	goto	i2u685_40
  9971  00057E                     i2u685_41:
  9972  00057E  EFDF  F002         	goto	i2l5661
  9973  000582                     i2u685_40:
  9974  000582                     
  9975                           ; BSR set to: 0
  9976                           ;I2C.c: 330:                 {;I2C.c: 333:                     if((I2CConfig.Buffer[0].t
      +                          ype == I2C_MASTER_WRITE)||(I2CConfig.Buffer[0].type == I2C_MASTER_WRITE_WITH_RESTART))
  9977  000582  0101               	movlb	1	; () banked
  9978  000584  510C               	movf	(_I2CConfig+1)& (0+255),w,b
  9979  000586  B4D8               	btfsc	status,2,c
  9980  000588  EFC8  F002         	goto	i2u686_41
  9981  00058C  EFCA  F002         	goto	i2u686_40
  9982  000590                     i2u686_41:
  9983  000590  EF91  F002         	goto	i2l5637
  9984  000594                     i2u686_40:
  9985  000594                     
  9986                           ; BSR set to: 1
  9987  000594  0E02               	movlw	2
  9988  000596  190C               	xorwf	(_I2CConfig+1)& (0+255),w,b
  9989  000598  A4D8               	btfss	status,2,c
  9990  00059A  EFD1  F002         	goto	i2u687_41
  9991  00059E  EFD3  F002         	goto	i2u687_40
  9992  0005A2                     i2u687_41:
  9993  0005A2  EFD5  F002         	goto	i2l5657
  9994  0005A6                     i2u687_40:
  9995  0005A6  EF91  F002         	goto	i2l5637
  9996  0005AA                     i2l5657:
  9997                           
  9998                           ; BSR set to: 1
  9999                           ;I2C.c: 338:                     if(I2CConfig.Buffer[0].type == I2C_MASTER_READ)
 10000  0005AA  050C               	decf	(_I2CConfig+1)& (0+255),w,b
 10001  0005AC  A4D8               	btfss	status,2,c
 10002  0005AE  EFDB  F002         	goto	i2u688_41
 10003  0005B2  EFDD  F002         	goto	i2u688_40
 10004  0005B6                     i2u688_41:
 10005  0005B6  EF53  F003         	goto	i2l174
 10006  0005BA                     i2u688_40:
 10007  0005BA  EF9D  F002         	goto	i2l5641
 10008  0005BE                     i2l5661:
 10009                           
 10010                           ; BSR set to: 0
 10011                           ;I2C.c: 345:                 {;I2C.c: 346:                     if(timer == 0)
 10012  0005BE  51D7               	movf	_timer& (0+255),w,b
 10013  0005C0  11D8               	iorwf	(_timer+1)& (0+255),w,b
 10014  0005C2  A4D8               	btfss	status,2,c
 10015  0005C4  EFE6  F002         	goto	i2u689_41
 10016  0005C8  EFE8  F002         	goto	i2u689_40
 10017  0005CC                     i2u689_41:
 10018  0005CC  EF53  F003         	goto	i2l174
 10019  0005D0                     i2u689_40:
 10020  0005D0                     
 10021                           ; BSR set to: 0
 10022                           ;I2C.c: 347:                     {;I2C.c: 352:                     SSP1CON2bits.SEN = 0;
 10023  0005D0  90C5               	bcf	197,0,c	;volatile
 10024                           
 10025                           ;I2C.c: 353:                     SSP1CON2bits.SEN = 1;
 10026  0005D2  80C5               	bsf	197,0,c	;volatile
 10027  0005D4  EFB5  F002         	goto	i2l5649
 10028  0005D8                     i2l224:
 10029                           
 10030                           ; BSR set to: 0
 10031                           ;I2C.c: 364:                 if(SSP1IF)
 10032  0005D8  A69E               	btfss	3998,3,c	;volatile
 10033  0005DA  EFF1  F002         	goto	i2u690_41
 10034  0005DE  EFF3  F002         	goto	i2u690_40
 10035  0005E2                     i2u690_41:
 10036  0005E2  EFF5  F002         	goto	i2l5669
 10037  0005E6                     i2u690_40:
 10038  0005E6                     
 10039                           ; BSR set to: 0
 10040                           ;I2C.c: 365:                     ack = 1;
 10041  0005E6  0E01               	movlw	1
 10042  0005E8  6FDD               	movwf	I2C_ISR@ack& (0+255),b
 10043  0005EA                     i2l5669:
 10044                           
 10045                           ; BSR set to: 0
 10046                           ;I2C.c: 367:                 if((timer == 0) && ack)
 10047  0005EA  51D7               	movf	_timer& (0+255),w,b
 10048  0005EC  11D8               	iorwf	(_timer+1)& (0+255),w,b
 10049  0005EE  A4D8               	btfss	status,2,c
 10050  0005F0  EFFC  F002         	goto	i2u691_41
 10051  0005F4  EFFE  F002         	goto	i2u691_40
 10052  0005F8                     i2u691_41:
 10053  0005F8  EF0B  F003         	goto	i2l5675
 10054  0005FC                     i2u691_40:
 10055  0005FC                     
 10056                           ; BSR set to: 0
 10057  0005FC  51DD               	movf	I2C_ISR@ack& (0+255),w,b
 10058  0005FE  B4D8               	btfsc	status,2,c
 10059  000600  EF04  F003         	goto	i2u692_41
 10060  000604  EF06  F003         	goto	i2u692_40
 10061  000608                     i2u692_41:
 10062  000608  EF0B  F003         	goto	i2l5675
 10063  00060C                     i2u692_40:
 10064  00060C                     
 10065                           ; BSR set to: 0
 10066                           ;I2C.c: 368:                 {;I2C.c: 369:                     I2CConfig.State = MASTER_
      +                          STOP;
 10067  00060C  0E09               	movlw	9
 10068  00060E  0101               	movlb	1	; () banked
 10069  000610  6F0B               	movwf	_I2CConfig& (0+255),b
 10070                           
 10071                           ;I2C.c: 370:                     goto delay_end;
 10072  000612  EF20  F003         	goto	i2l5685
 10073  000616                     i2l5675:
 10074                           
 10075                           ; BSR set to: 0
 10076                           ;I2C.c: 372:                 if((timer == 0) && (ack == 0))
 10077  000616  51D7               	movf	_timer& (0+255),w,b
 10078  000618  11D8               	iorwf	(_timer+1)& (0+255),w,b
 10079  00061A  A4D8               	btfss	status,2,c
 10080  00061C  EF12  F003         	goto	i2u693_41
 10081  000620  EF14  F003         	goto	i2u693_40
 10082  000624                     i2u693_41:
 10083  000624  EF53  F003         	goto	i2l174
 10084  000628                     i2u693_40:
 10085  000628                     
 10086                           ; BSR set to: 0
 10087  000628  51DD               	movf	I2C_ISR@ack& (0+255),w,b
 10088  00062A  A4D8               	btfss	status,2,c
 10089  00062C  EF1A  F003         	goto	i2u694_41
 10090  000630  EF1C  F003         	goto	i2u694_40
 10091  000634                     i2u694_41:
 10092  000634  EF53  F003         	goto	i2l174
 10093  000638                     i2u694_40:
 10094  000638                     
 10095                           ; BSR set to: 0
 10096                           ;I2C.c: 373:                 {;I2C.c: 378:                     SSP1CON2bits.SEN = 0;
 10097  000638  90C5               	bcf	197,0,c	;volatile
 10098                           
 10099                           ;I2C.c: 379:                     SSP1CON2bits.SEN = 1;
 10100  00063A  80C5               	bsf	197,0,c	;volatile
 10101  00063C  EFB5  F002         	goto	i2l5649
 10102  000640                     i2l5685:
 10103  000640  0101               	movlb	1	; () banked
 10104  000642  510B               	movf	_I2CConfig& (0+255),w,b
 10105  000644  0100               	movlb	0	; () banked
 10106  000646  6F60               	movwf	??_I2C_ISR& (0+255),b
 10107  000648  6B61               	clrf	(??_I2C_ISR+1)& (0+255),b
 10108                           
 10109                           ; Switch on 2 bytes has been partitioned into a top level switch of size 1, and 1 sub-sw
      +                          itches
 10110                           ; Switch size 1, requested type "simple"
 10111                           ; Number of cases is 1, Range of values is 0 to 0
 10112                           ; switch strategies available:
 10113                           ; Name         Instructions Cycles
 10114                           ; simple_byte            4     3 (average)
 10115                           ;	Chosen strategy is simple_byte
 10116  00064A  5161               	movf	(??_I2C_ISR+1)& (0+255),w,b
 10117  00064C  0A00               	xorlw	0	; case 0
 10118  00064E  B4D8               	btfsc	status,2,c
 10119  000650  EF2C  F003         	goto	i2l6399
 10120  000654  EF53  F003         	goto	i2l174
 10121  000658                     i2l6399:
 10122                           
 10123                           ; BSR set to: 0
 10124                           ; Switch size 1, requested type "simple"
 10125                           ; Number of cases is 9, Range of values is 1 to 14
 10126                           ; switch strategies available:
 10127                           ; Name         Instructions Cycles
 10128                           ; simple_byte           28    15 (average)
 10129                           ;	Chosen strategy is simple_byte
 10130  000658  5160               	movf	??_I2C_ISR& (0+255),w,b
 10131  00065A  0A01               	xorlw	1	; case 1
 10132  00065C  B4D8               	btfsc	status,2,c
 10133  00065E  EF59  F000         	goto	i2l5479
 10134  000662  0A05               	xorlw	5	; case 4
 10135  000664  B4D8               	btfsc	status,2,c
 10136  000666  EF7B  F000         	goto	i2l175
 10137  00066A  0A01               	xorlw	1	; case 5
 10138  00066C  B4D8               	btfsc	status,2,c
 10139  00066E  EF61  F001         	goto	i2l5563
 10140  000672  0A03               	xorlw	3	; case 6
 10141  000674  B4D8               	btfsc	status,2,c
 10142  000676  EFF1  F000         	goto	i2l185
 10143  00067A  0A01               	xorlw	1	; case 7
 10144  00067C  B4D8               	btfsc	status,2,c
 10145  00067E  EFF7  F000         	goto	i2l5535
 10146  000682  0A0E               	xorlw	14	; case 9
 10147  000684  B4D8               	btfsc	status,2,c
 10148  000686  EF6F  F001         	goto	i2l194
 10149  00068A  0A05               	xorlw	5	; case 12
 10150  00068C  B4D8               	btfsc	status,2,c
 10151  00068E  EFBA  F002         	goto	i2l216
 10152  000692  0A01               	xorlw	1	; case 13
 10153  000694  B4D8               	btfsc	status,2,c
 10154  000696  EFEC  F002         	goto	i2l224
 10155  00069A  0A03               	xorlw	3	; case 14
 10156  00069C  B4D8               	btfsc	status,2,c
 10157  00069E  EF65  F002         	goto	i2l208
 10158  0006A2  EF53  F003         	goto	i2l174
 10159  0006A6                     i2l174:
 10160                           
 10161                           ;I2C.c: 391:         SSP1IF = 0;
 10162  0006A6  969E               	bcf	3998,3,c	;volatile
 10163  0006A8                     i2l164:
 10164                           
 10165                           ;I2C.c: 398:     if(TMR2IF)
 10166  0006A8  A29E               	btfss	3998,1,c	;volatile
 10167  0006AA  EF59  F003         	goto	i2u695_41
 10168  0006AE  EF5B  F003         	goto	i2u695_40
 10169  0006B2                     i2u695_41:
 10170  0006B2  EF7B  F003         	goto	i2l233
 10171  0006B6                     i2u695_40:
 10172  0006B6                     
 10173                           ;I2C.c: 399:     {;I2C.c: 401:         if(timer > 0)
 10174  0006B6  0100               	movlb	0	; () banked
 10175  0006B8  51D7               	movf	_timer& (0+255),w,b
 10176  0006BA  11D8               	iorwf	(_timer+1)& (0+255),w,b
 10177  0006BC  B4D8               	btfsc	status,2,c
 10178  0006BE  EF63  F003         	goto	i2u696_41
 10179  0006C2  EF65  F003         	goto	i2u696_40
 10180  0006C6                     i2u696_41:
 10181  0006C6  EF68  F003         	goto	i2l5691
 10182  0006CA                     i2u696_40:
 10183  0006CA                     
 10184                           ; BSR set to: 0
 10185                           ;I2C.c: 402:             timer--;
 10186  0006CA  07D7               	decf	_timer& (0+255),f,b
 10187  0006CC  A0D8               	btfss	status,0,c
 10188  0006CE  07D8               	decf	(_timer+1)& (0+255),f,b
 10189  0006D0                     i2l5691:
 10190                           
 10191                           ; BSR set to: 0
 10192                           ;I2C.c: 404:         if(PointerRefresh > 0)
 10193  0006D0  51D9               	movf	_PointerRefresh& (0+255),w,b
 10194  0006D2  11DA               	iorwf	(_PointerRefresh+1)& (0+255),w,b
 10195  0006D4  B4D8               	btfsc	status,2,c
 10196  0006D6  EF6F  F003         	goto	i2u697_41
 10197  0006DA  EF71  F003         	goto	i2u697_40
 10198  0006DE                     i2u697_41:
 10199  0006DE  EF76  F003         	goto	i2l5695
 10200  0006E2                     i2u697_40:
 10201  0006E2                     
 10202                           ; BSR set to: 0
 10203                           ;I2C.c: 405:             PointerRefresh--;
 10204  0006E2  07D9               	decf	_PointerRefresh& (0+255),f,b
 10205  0006E4  A0D8               	btfss	status,0,c
 10206  0006E6  07DA               	decf	(_PointerRefresh+1)& (0+255),f,b
 10207  0006E8  EF7A  F003         	goto	i2l5697
 10208  0006EC                     i2l5695:
 10209                           
 10210                           ; BSR set to: 0
 10211                           ;I2C.c: 407:         {;I2C.c: 408:             PointerRefresh = 10000;
 10212  0006EC  0E27               	movlw	39
 10213  0006EE  6FDA               	movwf	(_PointerRefresh+1)& (0+255),b
 10214  0006F0  0E10               	movlw	16
 10215  0006F2  6FD9               	movwf	_PointerRefresh& (0+255),b
 10216  0006F4                     i2l5697:
 10217                           
 10218                           ; BSR set to: 0
 10219                           ;I2C.c: 413:         TMR2IF = 0;
 10220  0006F4  929E               	bcf	3998,1,c	;volatile
 10221  0006F6                     i2l233:
 10222  0006F6  0012               	return		;funcret
 10223  0006F8                     __end_of_I2C_ISR:
 10224                           	opt callstack 0
 10225                           
 10226 ;; *************** function i2_getFree *****************
 10227 ;; Defined at:
 10228 ;;		line 152 in file "I2C_conf/memory/memory.c"
 10229 ;; Parameters:    Size  Location     Type
 10230 ;;  Pointer         2   11[COMRAM] PTR PTR unsigned char 
 10231 ;;		 -> array.Tab.Pointer(2), array.Tab(60), nulPointer(2), 
 10232 ;;  memoryNumber    1   13[COMRAM] unsigned char 
 10233 ;; Auto vars:     Size  Location     Type
 10234 ;;  getFree        64   25[COMRAM] unsigned char [64]
 10235 ;;  getFree         2   89[COMRAM] PTR unsigned char 
 10236 ;;		 -> i2getFree@tab(64), getFree@tab(64), 
 10237 ;;  getFree         1   92[COMRAM] unsigned char 
 10238 ;;  getFree         1   91[COMRAM] unsigned char 
 10239 ;; Return value:  Size  Location     Type
 10240 ;;                  1    wreg      void 
 10241 ;; Registers used:
 10242 ;;		wreg, fsr1l, fsr1h, fsr2l, fsr2h, status,2, status,0, prodl, prodh, cstack
 10243 ;; Tracked objects:
 10244 ;;		On entry : 0/0
 10245 ;;		On exit  : 0/0
 10246 ;;		Unchanged: 0/0
 10247 ;; Data sizes:     COMRAM   BANK0   BANK1   BANK2   BANK3   BANK4   BANK5
 10248 ;;      Params:         3       0       0       0       0       0       0
 10249 ;;      Locals:        68       0       0       0       0       0       0
 10250 ;;      Temps:         11       0       0       0       0       0       0
 10251 ;;      Totals:        82       0       0       0       0       0       0
 10252 ;;Total ram usage:       82 bytes
 10253 ;; Hardware stack levels used:    1
 10254 ;; Hardware stack levels required when called:    1
 10255 ;; This function calls:
 10256 ;;		i2_memcpy
 10257 ;; This function is called by:
 10258 ;;		_I2C_ISR
 10259 ;; This function uses a non-reentrant model
 10260 ;;
 10261                           
 10262                           	psect	text33
 10263  000C14                     __ptext33:
 10264                           	opt callstack 0
 10265  000C14                     i2_getFree:
 10266                           	opt callstack 22
 10267  000C14                     
 10268                           ;I2C_conf/memory/memory.c: 152: void getFree(t_mem Pointer, u8 memoryNumber);I2C_conf/me
      +                          mory/memory.c: 153: {;I2C_conf/memory/memory.c: 154:     if(*Pointer != ((void*)0))
 10269  000C14  C00C  FFD9         	movff	i2getFree@Pointer,fsr2l
 10270  000C18  C00D  FFDA         	movff	i2getFree@Pointer+1,fsr2h
 10271  000C1C  50DE               	movf	postinc2,w,c
 10272  000C1E  10DE               	iorwf	postinc2,w,c
 10273  000C20  B4D8               	btfsc	status,2,c
 10274  000C22  EF15  F006         	goto	i2u646_41
 10275  000C26  EF17  F006         	goto	i2u646_40
 10276  000C2A                     i2u646_41:
 10277  000C2A  EF6F  F008         	goto	i2l369
 10278  000C2E                     i2u646_40:
 10279  000C2E                     
 10280                           ;I2C_conf/memory/memory.c: 155:     {;I2C_conf/memory/memory.c: 156:         u8 i;;I2C_c
      +                          onf/memory/memory.c: 157:         u8 *tabPoint;;I2C_conf/memory/memory.c: 158:         u
      +                          8 tab[64];;I2C_conf/memory/memory.c: 159:         memcpy(tab , memory[memoryNumber].pile
      +                          , 64);
 10281  000C2E  0E1A               	movlw	low i2getFree@tab
 10282  000C30  6E01               	movwf	i2memcpy@d1^0,c
 10283  000C32  0E00               	movlw	high i2getFree@tab
 10284  000C34  6E02               	movwf	(i2memcpy@d1+1)^0,c
 10285  000C36  500E               	movf	i2getFree@memoryNumber^0,w,c
 10286  000C38  0D41               	mullw	65
 10287  000C3A  0E7A               	movlw	low _memory
 10288  000C3C  24F3               	addwf	243,w,c
 10289  000C3E  6E03               	movwf	i2memcpy@s1^0,c
 10290  000C40  0E02               	movlw	high _memory
 10291  000C42  20F4               	addwfc	prodh,w,c
 10292  000C44  6E04               	movwf	(i2memcpy@s1+1)^0,c
 10293  000C46  0E00               	movlw	0
 10294  000C48  6E06               	movwf	(i2memcpy@n+1)^0,c
 10295  000C4A  0E40               	movlw	64
 10296  000C4C  6E05               	movwf	i2memcpy@n^0,c
 10297  000C4E  EC73  F01C         	call	i2_memcpy	;wreg free
 10298  000C52                     
 10299                           ;I2C_conf/memory/memory.c: 160:         u8 indice = 0;
 10300  000C52  0E00               	movlw	0
 10301  000C54  6E5C               	movwf	i2getFree@indice^0,c
 10302  000C56                     
 10303                           ;I2C_conf/memory/memory.c: 161:         for(i = 0; i < 10 ; i++)
 10304  000C56  0E00               	movlw	0
 10305  000C58  6E5D               	movwf	i2getFree@i^0,c
 10306  000C5A                     i2l5423:
 10307                           
 10308                           ;I2C_conf/memory/memory.c: 162:         {;I2C_conf/memory/memory.c: 163:             if(
      +                          Pointer == &array[memoryNumber].Tab[i].Pointer)
 10309  000C5A  500E               	movf	i2getFree@memoryNumber^0,w,c
 10310  000C5C  0D3D               	mullw	61
 10311  000C5E  0E00               	movlw	low _array
 10312  000C60  6E0F               	movwf	??i2_getFree^0,c
 10313  000C62  0E02               	movlw	high _array
 10314  000C64  6E10               	movwf	(??i2_getFree+1)^0,c
 10315  000C66  50F3               	movf	243,w,c
 10316  000C68  260F               	addwf	??i2_getFree^0,f,c
 10317  000C6A  50F4               	movf	244,w,c
 10318  000C6C  2210               	addwfc	(??i2_getFree+1)^0,f,c
 10319  000C6E  505D               	movf	i2getFree@i^0,w,c
 10320  000C70  0D06               	mullw	6
 10321  000C72  50F3               	movf	243,w,c
 10322  000C74  260F               	addwf	??i2_getFree^0,f,c
 10323  000C76  50F4               	movf	244,w,c
 10324  000C78  2210               	addwfc	(??i2_getFree+1)^0,f,c
 10325  000C7A  500F               	movf	??i2_getFree^0,w,c
 10326  000C7C  180C               	xorwf	i2getFree@Pointer^0,w,c
 10327  000C7E  E107               	bnz	i2u647_41
 10328  000C80  5010               	movf	(??i2_getFree+1)^0,w,c
 10329  000C82  180D               	xorwf	(i2getFree@Pointer+1)^0,w,c
 10330  000C84  A4D8               	btfss	status,2,c
 10331  000C86  EF47  F006         	goto	i2u647_41
 10332  000C8A  EF49  F006         	goto	i2u647_40
 10333  000C8E                     i2u647_41:
 10334  000C8E  EF4D  F006         	goto	i2l5427
 10335  000C92                     i2u647_40:
 10336  000C92                     
 10337                           ;I2C_conf/memory/memory.c: 164:             {;I2C_conf/memory/memory.c: 165:            
      +                               indice = i;
 10338  000C92  C05D  F05C         	movff	i2getFree@i,i2getFree@indice
 10339                           
 10340                           ;I2C_conf/memory/memory.c: 166:                 break;
 10341  000C96  EF56  F006         	goto	i2l5431
 10342  000C9A                     i2l5427:
 10343                           
 10344                           ;I2C_conf/memory/memory.c: 168:         }
 10345  000C9A  2A5D               	incf	i2getFree@i^0,f,c
 10346  000C9C  0E09               	movlw	9
 10347  000C9E  645D               	cpfsgt	i2getFree@i^0,c
 10348  000CA0  EF54  F006         	goto	i2u648_41
 10349  000CA4  EF56  F006         	goto	i2u648_40
 10350  000CA8                     i2u648_41:
 10351  000CA8  EF2D  F006         	goto	i2l5423
 10352  000CAC                     i2u648_40:
 10353  000CAC                     i2l5431:
 10354                           
 10355                           ;I2C_conf/memory/memory.c: 169:         for(i = 0; i < 10 ; i++)
 10356  000CAC  0E00               	movlw	0
 10357  000CAE  6E5D               	movwf	i2getFree@i^0,c
 10358  000CB0                     i2l5437:
 10359                           
 10360                           ;I2C_conf/memory/memory.c: 170:         {;I2C_conf/memory/memory.c: 171:             if(
      +                          (array[memoryNumber].Tab[i].indice > array[memoryNumber].Tab[indice].indice) && (array[m
      +                          emoryNumber].Tab[i].State == 1))
 10361  000CB0  505D               	movf	i2getFree@i^0,w,c
 10362  000CB2  0D06               	mullw	6
 10363  000CB4  CFF3 F00F          	movff	prodl,??i2_getFree
 10364  000CB8  CFF4 F010          	movff	prodh,??i2_getFree+1
 10365  000CBC  500E               	movf	i2getFree@memoryNumber^0,w,c
 10366  000CBE  0D3D               	mullw	61
 10367  000CC0  0E00               	movlw	low _array
 10368  000CC2  6E11               	movwf	(??i2_getFree+2)^0,c
 10369  000CC4  0E02               	movlw	high _array
 10370  000CC6  6E12               	movwf	(??i2_getFree+3)^0,c
 10371  000CC8  0E05               	movlw	5
 10372  000CCA  2611               	addwf	(??i2_getFree+2)^0,f,c
 10373  000CCC  0E00               	movlw	0
 10374  000CCE  2212               	addwfc	(??i2_getFree+3)^0,f,c
 10375  000CD0  50F3               	movf	243,w,c
 10376  000CD2  2611               	addwf	(??i2_getFree+2)^0,f,c
 10377  000CD4  50F4               	movf	244,w,c
 10378  000CD6  2212               	addwfc	(??i2_getFree+3)^0,f,c
 10379  000CD8  500F               	movf	??i2_getFree^0,w,c
 10380  000CDA  2411               	addwf	(??i2_getFree+2)^0,w,c
 10381  000CDC  6ED9               	movwf	fsr2l,c
 10382  000CDE  5010               	movf	(??i2_getFree+1)^0,w,c
 10383  000CE0  2012               	addwfc	(??i2_getFree+3)^0,w,c
 10384  000CE2  6EDA               	movwf	fsr2h,c
 10385  000CE4  505C               	movf	i2getFree@indice^0,w,c
 10386  000CE6  0D06               	mullw	6
 10387  000CE8  CFF3 F014          	movff	prodl,??i2_getFree+5
 10388  000CEC  CFF4 F015          	movff	prodh,??i2_getFree+6
 10389  000CF0  500E               	movf	i2getFree@memoryNumber^0,w,c
 10390  000CF2  0D3D               	mullw	61
 10391  000CF4  0E00               	movlw	low _array
 10392  000CF6  6E16               	movwf	(??i2_getFree+7)^0,c
 10393  000CF8  0E02               	movlw	high _array
 10394  000CFA  6E17               	movwf	(??i2_getFree+8)^0,c
 10395  000CFC  0E05               	movlw	5
 10396  000CFE  2616               	addwf	(??i2_getFree+7)^0,f,c
 10397  000D00  0E00               	movlw	0
 10398  000D02  2217               	addwfc	(??i2_getFree+8)^0,f,c
 10399  000D04  50F3               	movf	243,w,c
 10400  000D06  2616               	addwf	(??i2_getFree+7)^0,f,c
 10401  000D08  50F4               	movf	244,w,c
 10402  000D0A  2217               	addwfc	(??i2_getFree+8)^0,f,c
 10403  000D0C  5014               	movf	(??i2_getFree+5)^0,w,c
 10404  000D0E  2416               	addwf	(??i2_getFree+7)^0,w,c
 10405  000D10  6EE1               	movwf	fsr1l,c
 10406  000D12  5015               	movf	(??i2_getFree+6)^0,w,c
 10407  000D14  2017               	addwfc	(??i2_getFree+8)^0,w,c
 10408  000D16  6EE2               	movwf	fsr1h,c
 10409  000D18  50DE               	movf	postinc2,w,c
 10410  000D1A  5CE6               	subwf	postinc1,w,c
 10411  000D1C  B0D8               	btfsc	status,0,c
 10412  000D1E  EF93  F006         	goto	i2u649_41
 10413  000D22  EF95  F006         	goto	i2u649_40
 10414  000D26                     i2u649_41:
 10415  000D26  EF35  F007         	goto	i2l5447
 10416  000D2A                     i2u649_40:
 10417  000D2A  505D               	movf	i2getFree@i^0,w,c
 10418  000D2C  0D06               	mullw	6
 10419  000D2E  CFF3 F00F          	movff	prodl,??i2_getFree
 10420  000D32  CFF4 F010          	movff	prodh,??i2_getFree+1
 10421  000D36  500E               	movf	i2getFree@memoryNumber^0,w,c
 10422  000D38  0D3D               	mullw	61
 10423  000D3A  0E00               	movlw	low _array
 10424  000D3C  6E11               	movwf	(??i2_getFree+2)^0,c
 10425  000D3E  0E02               	movlw	high _array
 10426  000D40  6E12               	movwf	(??i2_getFree+3)^0,c
 10427  000D42  0E03               	movlw	3
 10428  000D44  2611               	addwf	(??i2_getFree+2)^0,f,c
 10429  000D46  0E00               	movlw	0
 10430  000D48  2212               	addwfc	(??i2_getFree+3)^0,f,c
 10431  000D4A  50F3               	movf	243,w,c
 10432  000D4C  2611               	addwf	(??i2_getFree+2)^0,f,c
 10433  000D4E  50F4               	movf	244,w,c
 10434  000D50  2212               	addwfc	(??i2_getFree+3)^0,f,c
 10435  000D52  500F               	movf	??i2_getFree^0,w,c
 10436  000D54  2411               	addwf	(??i2_getFree+2)^0,w,c
 10437  000D56  6ED9               	movwf	fsr2l,c
 10438  000D58  5010               	movf	(??i2_getFree+1)^0,w,c
 10439  000D5A  2012               	addwfc	(??i2_getFree+3)^0,w,c
 10440  000D5C  6EDA               	movwf	fsr2h,c
 10441  000D5E  04DE               	decf	postinc2,w,c
 10442  000D60  A4D8               	btfss	status,2,c
 10443  000D62  EFB5  F006         	goto	i2u650_41
 10444  000D66  EFB7  F006         	goto	i2u650_40
 10445  000D6A                     i2u650_41:
 10446  000D6A  EF35  F007         	goto	i2l5447
 10447  000D6E                     i2u650_40:
 10448  000D6E                     
 10449                           ;I2C_conf/memory/memory.c: 172:             {;I2C_conf/memory/memory.c: 173:            
      +                               tabPoint = &tab[array[memoryNumber].Tab[indice].indice];
 10450  000D6E  505C               	movf	i2getFree@indice^0,w,c
 10451  000D70  0D06               	mullw	6
 10452  000D72  CFF3 F00F          	movff	prodl,??i2_getFree
 10453  000D76  CFF4 F010          	movff	prodh,??i2_getFree+1
 10454  000D7A  500E               	movf	i2getFree@memoryNumber^0,w,c
 10455  000D7C  0D3D               	mullw	61
 10456  000D7E  0E00               	movlw	low _array
 10457  000D80  6E11               	movwf	(??i2_getFree+2)^0,c
 10458  000D82  0E02               	movlw	high _array
 10459  000D84  6E12               	movwf	(??i2_getFree+3)^0,c
 10460  000D86  0E05               	movlw	5
 10461  000D88  2611               	addwf	(??i2_getFree+2)^0,f,c
 10462  000D8A  0E00               	movlw	0
 10463  000D8C  2212               	addwfc	(??i2_getFree+3)^0,f,c
 10464  000D8E  50F3               	movf	243,w,c
 10465  000D90  2611               	addwf	(??i2_getFree+2)^0,f,c
 10466  000D92  50F4               	movf	244,w,c
 10467  000D94  2212               	addwfc	(??i2_getFree+3)^0,f,c
 10468  000D96  500F               	movf	??i2_getFree^0,w,c
 10469  000D98  2411               	addwf	(??i2_getFree+2)^0,w,c
 10470  000D9A  6ED9               	movwf	fsr2l,c
 10471  000D9C  5010               	movf	(??i2_getFree+1)^0,w,c
 10472  000D9E  2012               	addwfc	(??i2_getFree+3)^0,w,c
 10473  000DA0  6EDA               	movwf	fsr2h,c
 10474  000DA2  50DF               	movf	indf2,w,c
 10475  000DA4  6E13               	movwf	(??i2_getFree+4)^0,c
 10476  000DA6  6A14               	clrf	(??i2_getFree+5)^0,c
 10477  000DA8  0E1A               	movlw	low i2getFree@tab
 10478  000DAA  2413               	addwf	(??i2_getFree+4)^0,w,c
 10479  000DAC  6E5A               	movwf	i2getFree@tabPoint^0,c
 10480  000DAE  0E00               	movlw	high i2getFree@tab
 10481  000DB0  2014               	addwfc	(??i2_getFree+5)^0,w,c
 10482  000DB2  6E5B               	movwf	(i2getFree@tabPoint+1)^0,c
 10483  000DB4                     
 10484                           ;I2C_conf/memory/memory.c: 174:                 memcpy(tabPoint , array[memoryNumber].Ta
      +                          b[i].Pointer, 64 - array[memoryNumber].Tab[i].indice);
 10485  000DB4  C05A  F001         	movff	i2getFree@tabPoint,i2memcpy@d1
 10486  000DB8  C05B  F002         	movff	i2getFree@tabPoint+1,i2memcpy@d1+1
 10487  000DBC  505D               	movf	i2getFree@i^0,w,c
 10488  000DBE  0D06               	mullw	6
 10489  000DC0  CFF3 F00F          	movff	prodl,??i2_getFree
 10490  000DC4  CFF4 F010          	movff	prodh,??i2_getFree+1
 10491  000DC8  500E               	movf	i2getFree@memoryNumber^0,w,c
 10492  000DCA  0D3D               	mullw	61
 10493  000DCC  0E00               	movlw	low _array
 10494  000DCE  6E11               	movwf	(??i2_getFree+2)^0,c
 10495  000DD0  0E02               	movlw	high _array
 10496  000DD2  6E12               	movwf	(??i2_getFree+3)^0,c
 10497  000DD4  50F3               	movf	243,w,c
 10498  000DD6  2611               	addwf	(??i2_getFree+2)^0,f,c
 10499  000DD8  50F4               	movf	244,w,c
 10500  000DDA  2212               	addwfc	(??i2_getFree+3)^0,f,c
 10501  000DDC  500F               	movf	??i2_getFree^0,w,c
 10502  000DDE  2411               	addwf	(??i2_getFree+2)^0,w,c
 10503  000DE0  6ED9               	movwf	fsr2l,c
 10504  000DE2  5010               	movf	(??i2_getFree+1)^0,w,c
 10505  000DE4  2012               	addwfc	(??i2_getFree+3)^0,w,c
 10506  000DE6  6EDA               	movwf	fsr2h,c
 10507  000DE8  CFDE F003          	movff	postinc2,i2memcpy@s1
 10508  000DEC  CFDD F004          	movff	postdec2,i2memcpy@s1+1
 10509  000DF0  0E40               	movlw	64
 10510  000DF2  6E13               	movwf	(??i2_getFree+4)^0,c
 10511  000DF4  0E00               	movlw	0
 10512  000DF6  6E14               	movwf	(??i2_getFree+5)^0,c
 10513  000DF8  505D               	movf	i2getFree@i^0,w,c
 10514  000DFA  0D06               	mullw	6
 10515  000DFC  CFF3 F015          	movff	prodl,??i2_getFree+6
 10516  000E00  CFF4 F016          	movff	prodh,??i2_getFree+7
 10517  000E04  500E               	movf	i2getFree@memoryNumber^0,w,c
 10518  000E06  0D3D               	mullw	61
 10519  000E08  0E00               	movlw	low _array
 10520  000E0A  6E17               	movwf	(??i2_getFree+8)^0,c
 10521  000E0C  0E02               	movlw	high _array
 10522  000E0E  6E18               	movwf	(??i2_getFree+9)^0,c
 10523  000E10  0E05               	movlw	5
 10524  000E12  2617               	addwf	(??i2_getFree+8)^0,f,c
 10525  000E14  0E00               	movlw	0
 10526  000E16  2218               	addwfc	(??i2_getFree+9)^0,f,c
 10527  000E18  50F3               	movf	243,w,c
 10528  000E1A  2617               	addwf	(??i2_getFree+8)^0,f,c
 10529  000E1C  50F4               	movf	244,w,c
 10530  000E1E  2218               	addwfc	(??i2_getFree+9)^0,f,c
 10531  000E20  5015               	movf	(??i2_getFree+6)^0,w,c
 10532  000E22  2417               	addwf	(??i2_getFree+8)^0,w,c
 10533  000E24  6ED9               	movwf	fsr2l,c
 10534  000E26  5016               	movf	(??i2_getFree+7)^0,w,c
 10535  000E28  2018               	addwfc	(??i2_getFree+9)^0,w,c
 10536  000E2A  6EDA               	movwf	fsr2h,c
 10537  000E2C  50DF               	movf	indf2,w,c
 10538  000E2E  6E19               	movwf	(??i2_getFree+10)^0,c
 10539  000E30  5019               	movf	(??i2_getFree+10)^0,w,c
 10540  000E32  5C13               	subwf	(??i2_getFree+4)^0,w,c
 10541  000E34  6E05               	movwf	i2memcpy@n^0,c
 10542  000E36  5014               	movf	(??i2_getFree+5)^0,w,c
 10543  000E38  A0D8               	btfss	status,0,c
 10544  000E3A  0414               	decf	(??i2_getFree+5)^0,w,c
 10545  000E3C  6E06               	movwf	(i2memcpy@n+1)^0,c
 10546  000E3E  EC73  F01C         	call	i2_memcpy	;wreg free
 10547  000E42                     
 10548                           ;I2C_conf/memory/memory.c: 175:                 memcpy(memory[memoryNumber].pile , tab, 
      +                          64);
 10549  000E42  500E               	movf	i2getFree@memoryNumber^0,w,c
 10550  000E44  0D41               	mullw	65
 10551  000E46  0E7A               	movlw	low _memory
 10552  000E48  24F3               	addwf	243,w,c
 10553  000E4A  6E01               	movwf	i2memcpy@d1^0,c
 10554  000E4C  0E02               	movlw	high _memory
 10555  000E4E  20F4               	addwfc	prodh,w,c
 10556  000E50  6E02               	movwf	(i2memcpy@d1+1)^0,c
 10557  000E52  0E1A               	movlw	low i2getFree@tab
 10558  000E54  6E03               	movwf	i2memcpy@s1^0,c
 10559  000E56  0E00               	movlw	high i2getFree@tab
 10560  000E58  6E04               	movwf	(i2memcpy@s1+1)^0,c
 10561  000E5A  0E00               	movlw	0
 10562  000E5C  6E06               	movwf	(i2memcpy@n+1)^0,c
 10563  000E5E  0E40               	movlw	64
 10564  000E60  6E05               	movwf	i2memcpy@n^0,c
 10565  000E62  EC73  F01C         	call	i2_memcpy	;wreg free
 10566                           
 10567                           ;I2C_conf/memory/memory.c: 176:                 break;
 10568  000E66  EF3E  F007         	goto	i2l5451
 10569  000E6A                     i2l5447:
 10570                           
 10571                           ;I2C_conf/memory/memory.c: 178:         }
 10572  000E6A  2A5D               	incf	i2getFree@i^0,f,c
 10573  000E6C  0E09               	movlw	9
 10574  000E6E  645D               	cpfsgt	i2getFree@i^0,c
 10575  000E70  EF3C  F007         	goto	i2u651_41
 10576  000E74  EF3E  F007         	goto	i2u651_40
 10577  000E78                     i2u651_41:
 10578  000E78  EF58  F006         	goto	i2l5437
 10579  000E7C                     i2u651_40:
 10580  000E7C                     i2l5451:
 10581                           
 10582                           ;I2C_conf/memory/memory.c: 179:         for(i = 0; i < 10 ; i++)
 10583  000E7C  0E00               	movlw	0
 10584  000E7E  6E5D               	movwf	i2getFree@i^0,c
 10585  000E80                     i2l5457:
 10586                           
 10587                           ;I2C_conf/memory/memory.c: 180:         {;I2C_conf/memory/memory.c: 181:             if(
      +                          (array[memoryNumber].Tab[i].indice > array[memoryNumber].Tab[indice].indice ) && (array[
      +                          memoryNumber].Tab[i].State == 1))
 10588  000E80  505D               	movf	i2getFree@i^0,w,c
 10589  000E82  0D06               	mullw	6
 10590  000E84  CFF3 F00F          	movff	prodl,??i2_getFree
 10591  000E88  CFF4 F010          	movff	prodh,??i2_getFree+1
 10592  000E8C  500E               	movf	i2getFree@memoryNumber^0,w,c
 10593  000E8E  0D3D               	mullw	61
 10594  000E90  0E00               	movlw	low _array
 10595  000E92  6E11               	movwf	(??i2_getFree+2)^0,c
 10596  000E94  0E02               	movlw	high _array
 10597  000E96  6E12               	movwf	(??i2_getFree+3)^0,c
 10598  000E98  0E05               	movlw	5
 10599  000E9A  2611               	addwf	(??i2_getFree+2)^0,f,c
 10600  000E9C  0E00               	movlw	0
 10601  000E9E  2212               	addwfc	(??i2_getFree+3)^0,f,c
 10602  000EA0  50F3               	movf	243,w,c
 10603  000EA2  2611               	addwf	(??i2_getFree+2)^0,f,c
 10604  000EA4  50F4               	movf	244,w,c
 10605  000EA6  2212               	addwfc	(??i2_getFree+3)^0,f,c
 10606  000EA8  500F               	movf	??i2_getFree^0,w,c
 10607  000EAA  2411               	addwf	(??i2_getFree+2)^0,w,c
 10608  000EAC  6ED9               	movwf	fsr2l,c
 10609  000EAE  5010               	movf	(??i2_getFree+1)^0,w,c
 10610  000EB0  2012               	addwfc	(??i2_getFree+3)^0,w,c
 10611  000EB2  6EDA               	movwf	fsr2h,c
 10612  000EB4  505C               	movf	i2getFree@indice^0,w,c
 10613  000EB6  0D06               	mullw	6
 10614  000EB8  CFF3 F014          	movff	prodl,??i2_getFree+5
 10615  000EBC  CFF4 F015          	movff	prodh,??i2_getFree+6
 10616  000EC0  500E               	movf	i2getFree@memoryNumber^0,w,c
 10617  000EC2  0D3D               	mullw	61
 10618  000EC4  0E00               	movlw	low _array
 10619  000EC6  6E16               	movwf	(??i2_getFree+7)^0,c
 10620  000EC8  0E02               	movlw	high _array
 10621  000ECA  6E17               	movwf	(??i2_getFree+8)^0,c
 10622  000ECC  0E05               	movlw	5
 10623  000ECE  2616               	addwf	(??i2_getFree+7)^0,f,c
 10624  000ED0  0E00               	movlw	0
 10625  000ED2  2217               	addwfc	(??i2_getFree+8)^0,f,c
 10626  000ED4  50F3               	movf	243,w,c
 10627  000ED6  2616               	addwf	(??i2_getFree+7)^0,f,c
 10628  000ED8  50F4               	movf	244,w,c
 10629  000EDA  2217               	addwfc	(??i2_getFree+8)^0,f,c
 10630  000EDC  5014               	movf	(??i2_getFree+5)^0,w,c
 10631  000EDE  2416               	addwf	(??i2_getFree+7)^0,w,c
 10632  000EE0  6EE1               	movwf	fsr1l,c
 10633  000EE2  5015               	movf	(??i2_getFree+6)^0,w,c
 10634  000EE4  2017               	addwfc	(??i2_getFree+8)^0,w,c
 10635  000EE6  6EE2               	movwf	fsr1h,c
 10636  000EE8  50DE               	movf	postinc2,w,c
 10637  000EEA  5CE6               	subwf	postinc1,w,c
 10638  000EEC  B0D8               	btfsc	status,0,c
 10639  000EEE  EF7B  F007         	goto	i2u652_41
 10640  000EF2  EF7D  F007         	goto	i2u652_40
 10641  000EF6                     i2u652_41:
 10642  000EF6  EF1B  F008         	goto	i2l5463
 10643  000EFA                     i2u652_40:
 10644  000EFA  505D               	movf	i2getFree@i^0,w,c
 10645  000EFC  0D06               	mullw	6
 10646  000EFE  CFF3 F00F          	movff	prodl,??i2_getFree
 10647  000F02  CFF4 F010          	movff	prodh,??i2_getFree+1
 10648  000F06  500E               	movf	i2getFree@memoryNumber^0,w,c
 10649  000F08  0D3D               	mullw	61
 10650  000F0A  0E00               	movlw	low _array
 10651  000F0C  6E11               	movwf	(??i2_getFree+2)^0,c
 10652  000F0E  0E02               	movlw	high _array
 10653  000F10  6E12               	movwf	(??i2_getFree+3)^0,c
 10654  000F12  0E03               	movlw	3
 10655  000F14  2611               	addwf	(??i2_getFree+2)^0,f,c
 10656  000F16  0E00               	movlw	0
 10657  000F18  2212               	addwfc	(??i2_getFree+3)^0,f,c
 10658  000F1A  50F3               	movf	243,w,c
 10659  000F1C  2611               	addwf	(??i2_getFree+2)^0,f,c
 10660  000F1E  50F4               	movf	244,w,c
 10661  000F20  2212               	addwfc	(??i2_getFree+3)^0,f,c
 10662  000F22  500F               	movf	??i2_getFree^0,w,c
 10663  000F24  2411               	addwf	(??i2_getFree+2)^0,w,c
 10664  000F26  6ED9               	movwf	fsr2l,c
 10665  000F28  5010               	movf	(??i2_getFree+1)^0,w,c
 10666  000F2A  2012               	addwfc	(??i2_getFree+3)^0,w,c
 10667  000F2C  6EDA               	movwf	fsr2h,c
 10668  000F2E  04DE               	decf	postinc2,w,c
 10669  000F30  A4D8               	btfss	status,2,c
 10670  000F32  EF9D  F007         	goto	i2u653_41
 10671  000F36  EF9F  F007         	goto	i2u653_40
 10672  000F3A                     i2u653_41:
 10673  000F3A  EF1B  F008         	goto	i2l5463
 10674  000F3E                     i2u653_40:
 10675  000F3E                     
 10676                           ;I2C_conf/memory/memory.c: 182:             {;I2C_conf/memory/memory.c: 183:            
      +                               array[memoryNumber].Tab[i].indice -= array[memoryNumber].Tab[indice].PointerSize;
 10677  000F3E  505C               	movf	i2getFree@indice^0,w,c
 10678  000F40  0D06               	mullw	6
 10679  000F42  CFF3 F00F          	movff	prodl,??i2_getFree
 10680  000F46  CFF4 F010          	movff	prodh,??i2_getFree+1
 10681  000F4A  500E               	movf	i2getFree@memoryNumber^0,w,c
 10682  000F4C  0D3D               	mullw	61
 10683  000F4E  0E00               	movlw	low _array
 10684  000F50  6E11               	movwf	(??i2_getFree+2)^0,c
 10685  000F52  0E02               	movlw	high _array
 10686  000F54  6E12               	movwf	(??i2_getFree+3)^0,c
 10687  000F56  0E02               	movlw	2
 10688  000F58  2611               	addwf	(??i2_getFree+2)^0,f,c
 10689  000F5A  0E00               	movlw	0
 10690  000F5C  2212               	addwfc	(??i2_getFree+3)^0,f,c
 10691  000F5E  50F3               	movf	243,w,c
 10692  000F60  2611               	addwf	(??i2_getFree+2)^0,f,c
 10693  000F62  50F4               	movf	244,w,c
 10694  000F64  2212               	addwfc	(??i2_getFree+3)^0,f,c
 10695  000F66  500F               	movf	??i2_getFree^0,w,c
 10696  000F68  2411               	addwf	(??i2_getFree+2)^0,w,c
 10697  000F6A  6ED9               	movwf	fsr2l,c
 10698  000F6C  5010               	movf	(??i2_getFree+1)^0,w,c
 10699  000F6E  2012               	addwfc	(??i2_getFree+3)^0,w,c
 10700  000F70  6EDA               	movwf	fsr2h,c
 10701  000F72  50DF               	movf	indf2,w,c
 10702  000F74  6E13               	movwf	(??i2_getFree+4)^0,c
 10703  000F76  505D               	movf	i2getFree@i^0,w,c
 10704  000F78  0D06               	mullw	6
 10705  000F7A  CFF3 F014          	movff	prodl,??i2_getFree+5
 10706  000F7E  CFF4 F015          	movff	prodh,??i2_getFree+6
 10707  000F82  500E               	movf	i2getFree@memoryNumber^0,w,c
 10708  000F84  0D3D               	mullw	61
 10709  000F86  0E00               	movlw	low _array
 10710  000F88  6E16               	movwf	(??i2_getFree+7)^0,c
 10711  000F8A  0E02               	movlw	high _array
 10712  000F8C  6E17               	movwf	(??i2_getFree+8)^0,c
 10713  000F8E  0E05               	movlw	5
 10714  000F90  2616               	addwf	(??i2_getFree+7)^0,f,c
 10715  000F92  0E00               	movlw	0
 10716  000F94  2217               	addwfc	(??i2_getFree+8)^0,f,c
 10717  000F96  50F3               	movf	243,w,c
 10718  000F98  2616               	addwf	(??i2_getFree+7)^0,f,c
 10719  000F9A  50F4               	movf	244,w,c
 10720  000F9C  2217               	addwfc	(??i2_getFree+8)^0,f,c
 10721  000F9E  5014               	movf	(??i2_getFree+5)^0,w,c
 10722  000FA0  2416               	addwf	(??i2_getFree+7)^0,w,c
 10723  000FA2  6ED9               	movwf	fsr2l,c
 10724  000FA4  5015               	movf	(??i2_getFree+6)^0,w,c
 10725  000FA6  2017               	addwfc	(??i2_getFree+8)^0,w,c
 10726  000FA8  6EDA               	movwf	fsr2h,c
 10727  000FAA  5013               	movf	(??i2_getFree+4)^0,w,c
 10728  000FAC  5EDF               	subwf	indf2,f,c
 10729                           
 10730                           ;I2C_conf/memory/memory.c: 184:                 array[memoryNumber].Tab[i].Pointer = &me
      +                          mory[memoryNumber].pile[array[memoryNumber].Tab[i].indice];
 10731  000FAE  500E               	movf	i2getFree@memoryNumber^0,w,c
 10732  000FB0  0D41               	mullw	65
 10733  000FB2  0E7A               	movlw	low _memory
 10734  000FB4  6E0F               	movwf	??i2_getFree^0,c
 10735  000FB6  0E02               	movlw	high _memory
 10736  000FB8  6E10               	movwf	(??i2_getFree+1)^0,c
 10737  000FBA  50F3               	movf	243,w,c
 10738  000FBC  260F               	addwf	??i2_getFree^0,f,c
 10739  000FBE  50F4               	movf	244,w,c
 10740  000FC0  2210               	addwfc	(??i2_getFree+1)^0,f,c
 10741  000FC2  505D               	movf	i2getFree@i^0,w,c
 10742  000FC4  0D06               	mullw	6
 10743  000FC6  CFF3 F011          	movff	prodl,??i2_getFree+2
 10744  000FCA  CFF4 F012          	movff	prodh,??i2_getFree+3
 10745  000FCE  500E               	movf	i2getFree@memoryNumber^0,w,c
 10746  000FD0  0D3D               	mullw	61
 10747  000FD2  0E00               	movlw	low _array
 10748  000FD4  6E13               	movwf	(??i2_getFree+4)^0,c
 10749  000FD6  0E02               	movlw	high _array
 10750  000FD8  6E14               	movwf	(??i2_getFree+5)^0,c
 10751  000FDA  0E05               	movlw	5
 10752  000FDC  2613               	addwf	(??i2_getFree+4)^0,f,c
 10753  000FDE  0E00               	movlw	0
 10754  000FE0  2214               	addwfc	(??i2_getFree+5)^0,f,c
 10755  000FE2  50F3               	movf	243,w,c
 10756  000FE4  2613               	addwf	(??i2_getFree+4)^0,f,c
 10757  000FE6  50F4               	movf	244,w,c
 10758  000FE8  2214               	addwfc	(??i2_getFree+5)^0,f,c
 10759  000FEA  5011               	movf	(??i2_getFree+2)^0,w,c
 10760  000FEC  2413               	addwf	(??i2_getFree+4)^0,w,c
 10761  000FEE  6ED9               	movwf	fsr2l,c
 10762  000FF0  5012               	movf	(??i2_getFree+3)^0,w,c
 10763  000FF2  2014               	addwfc	(??i2_getFree+5)^0,w,c
 10764  000FF4  6EDA               	movwf	fsr2h,c
 10765  000FF6  50DF               	movf	indf2,w,c
 10766  000FF8  6E15               	movwf	(??i2_getFree+6)^0,c
 10767  000FFA  5015               	movf	(??i2_getFree+6)^0,w,c
 10768  000FFC  260F               	addwf	??i2_getFree^0,f,c
 10769  000FFE  0E00               	movlw	0
 10770  001000  2210               	addwfc	(??i2_getFree+1)^0,f,c
 10771  001002  505D               	movf	i2getFree@i^0,w,c
 10772  001004  0D06               	mullw	6
 10773  001006  CFF3 F016          	movff	prodl,??i2_getFree+7
 10774  00100A  CFF4 F017          	movff	prodh,??i2_getFree+8
 10775  00100E  500E               	movf	i2getFree@memoryNumber^0,w,c
 10776  001010  0D3D               	mullw	61
 10777  001012  0E00               	movlw	low _array
 10778  001014  6E18               	movwf	(??i2_getFree+9)^0,c
 10779  001016  0E02               	movlw	high _array
 10780  001018  6E19               	movwf	(??i2_getFree+10)^0,c
 10781  00101A  50F3               	movf	243,w,c
 10782  00101C  2618               	addwf	(??i2_getFree+9)^0,f,c
 10783  00101E  50F4               	movf	244,w,c
 10784  001020  2219               	addwfc	(??i2_getFree+10)^0,f,c
 10785  001022  5016               	movf	(??i2_getFree+7)^0,w,c
 10786  001024  2418               	addwf	(??i2_getFree+9)^0,w,c
 10787  001026  6ED9               	movwf	fsr2l,c
 10788  001028  5017               	movf	(??i2_getFree+8)^0,w,c
 10789  00102A  2019               	addwfc	(??i2_getFree+10)^0,w,c
 10790  00102C  6EDA               	movwf	fsr2h,c
 10791  00102E  C00F  FFDE         	movff	??i2_getFree,postinc2
 10792  001032  C010  FFDD         	movff	??i2_getFree+1,postdec2
 10793  001036                     i2l5463:
 10794                           
 10795                           ;I2C_conf/memory/memory.c: 186:         }
 10796  001036  2A5D               	incf	i2getFree@i^0,f,c
 10797  001038  0E09               	movlw	9
 10798  00103A  645D               	cpfsgt	i2getFree@i^0,c
 10799  00103C  EF22  F008         	goto	i2u654_41
 10800  001040  EF24  F008         	goto	i2u654_40
 10801  001044                     i2u654_41:
 10802  001044  EF40  F007         	goto	i2l5457
 10803  001048                     i2u654_40:
 10804  001048                     
 10805                           ;I2C_conf/memory/memory.c: 187:         array[memoryNumber].Tab[indice].State = 0;
 10806  001048  505C               	movf	i2getFree@indice^0,w,c
 10807  00104A  0D06               	mullw	6
 10808  00104C  CFF3 F00F          	movff	prodl,??i2_getFree
 10809  001050  CFF4 F010          	movff	prodh,??i2_getFree+1
 10810  001054  500E               	movf	i2getFree@memoryNumber^0,w,c
 10811  001056  0D3D               	mullw	61
 10812  001058  0E00               	movlw	low _array
 10813  00105A  6E11               	movwf	(??i2_getFree+2)^0,c
 10814  00105C  0E02               	movlw	high _array
 10815  00105E  6E12               	movwf	(??i2_getFree+3)^0,c
 10816  001060  0E03               	movlw	3
 10817  001062  2611               	addwf	(??i2_getFree+2)^0,f,c
 10818  001064  0E00               	movlw	0
 10819  001066  2212               	addwfc	(??i2_getFree+3)^0,f,c
 10820  001068  50F3               	movf	243,w,c
 10821  00106A  2611               	addwf	(??i2_getFree+2)^0,f,c
 10822  00106C  50F4               	movf	244,w,c
 10823  00106E  2212               	addwfc	(??i2_getFree+3)^0,f,c
 10824  001070  500F               	movf	??i2_getFree^0,w,c
 10825  001072  2411               	addwf	(??i2_getFree+2)^0,w,c
 10826  001074  6ED9               	movwf	fsr2l,c
 10827  001076  5010               	movf	(??i2_getFree+1)^0,w,c
 10828  001078  2012               	addwfc	(??i2_getFree+3)^0,w,c
 10829  00107A  6EDA               	movwf	fsr2h,c
 10830  00107C  0E00               	movlw	0
 10831  00107E  6EDF               	movwf	indf2,c
 10832                           
 10833                           ;I2C_conf/memory/memory.c: 188:         array[memoryNumber].indice--;
 10834  001080  500E               	movf	i2getFree@memoryNumber^0,w,c
 10835  001082  0D3D               	mullw	61
 10836  001084  0E3C               	movlw	low (_array+60)
 10837  001086  24F3               	addwf	243,w,c
 10838  001088  6ED9               	movwf	fsr2l,c
 10839  00108A  0E02               	movlw	high (_array+60)
 10840  00108C  20F4               	addwfc	prodh,w,c
 10841  00108E  6EDA               	movwf	fsr2h,c
 10842  001090  06DF               	decf	indf2,f,c
 10843                           
 10844                           ;I2C_conf/memory/memory.c: 189:         memory[memoryNumber].use -= array[memoryNumber].
      +                          Tab[indice].PointerSize;
 10845  001092  505C               	movf	i2getFree@indice^0,w,c
 10846  001094  0D06               	mullw	6
 10847  001096  CFF3 F00F          	movff	prodl,??i2_getFree
 10848  00109A  CFF4 F010          	movff	prodh,??i2_getFree+1
 10849  00109E  500E               	movf	i2getFree@memoryNumber^0,w,c
 10850  0010A0  0D3D               	mullw	61
 10851  0010A2  0E00               	movlw	low _array
 10852  0010A4  6E11               	movwf	(??i2_getFree+2)^0,c
 10853  0010A6  0E02               	movlw	high _array
 10854  0010A8  6E12               	movwf	(??i2_getFree+3)^0,c
 10855  0010AA  0E02               	movlw	2
 10856  0010AC  2611               	addwf	(??i2_getFree+2)^0,f,c
 10857  0010AE  0E00               	movlw	0
 10858  0010B0  2212               	addwfc	(??i2_getFree+3)^0,f,c
 10859  0010B2  50F3               	movf	243,w,c
 10860  0010B4  2611               	addwf	(??i2_getFree+2)^0,f,c
 10861  0010B6  50F4               	movf	244,w,c
 10862  0010B8  2212               	addwfc	(??i2_getFree+3)^0,f,c
 10863  0010BA  500F               	movf	??i2_getFree^0,w,c
 10864  0010BC  2411               	addwf	(??i2_getFree+2)^0,w,c
 10865  0010BE  6ED9               	movwf	fsr2l,c
 10866  0010C0  5010               	movf	(??i2_getFree+1)^0,w,c
 10867  0010C2  2012               	addwfc	(??i2_getFree+3)^0,w,c
 10868  0010C4  6EDA               	movwf	fsr2h,c
 10869  0010C6  50DF               	movf	indf2,w,c
 10870  0010C8  6E13               	movwf	(??i2_getFree+4)^0,c
 10871  0010CA  500E               	movf	i2getFree@memoryNumber^0,w,c
 10872  0010CC  0D41               	mullw	65
 10873  0010CE  0EBA               	movlw	low (_memory+64)
 10874  0010D0  24F3               	addwf	243,w,c
 10875  0010D2  6ED9               	movwf	fsr2l,c
 10876  0010D4  0E02               	movlw	high (_memory+64)
 10877  0010D6  20F4               	addwfc	prodh,w,c
 10878  0010D8  6EDA               	movwf	fsr2h,c
 10879  0010DA  5013               	movf	(??i2_getFree+4)^0,w,c
 10880  0010DC  5EDF               	subwf	indf2,f,c
 10881  0010DE                     i2l369:
 10882  0010DE  0012               	return		;funcret
 10883  0010E0                     __end_ofi2_getFree:
 10884                           	opt callstack 0
 10885                           
 10886 ;; *************** function i2_memcpy *****************
 10887 ;; Defined at:
 10888 ;;		line 4 in file "C:\Program Files (x86)\Microchip\xc8\v2.10\pic\sources\c99\common\memcpy.c"
 10889 ;; Parameters:    Size  Location     Type
 10890 ;;  d1              2    0[COMRAM] PTR void 
 10891 ;;		 -> i2getFree@tab(64), getFree@tab(64), memory(130), NULL(0), 
 10892 ;;  s1              2    2[COMRAM] PTR const void 
 10893 ;;		 -> i2getFree@tab(64), getFree@tab(64), memory.pile(64), memory(130), 
 10894 ;;		 -> NULL(0), main@data(3), 
 10895 ;;  n               2    4[COMRAM] unsigned int 
 10896 ;; Auto vars:     Size  Location     Type
 10897 ;;  memcpy          2    9[COMRAM] PTR const unsigned char 
 10898 ;;		 -> i2getFree@tab(64), getFree@tab(64), memory.pile(64), memory(130), 
 10899 ;;		 -> NULL(0), main@data(3), 
 10900 ;;  memcpy          2    7[COMRAM] PTR unsigned char 
 10901 ;;		 -> i2getFree@tab(64), getFree@tab(64), memory(130), NULL(0), 
 10902 ;;  memcpy          1    6[COMRAM] unsigned char 
 10903 ;; Return value:  Size  Location     Type
 10904 ;;                  2    0[COMRAM] PTR void 
 10905 ;; Registers used:
 10906 ;;		wreg, fsr2l, fsr2h, status,2, status,0
 10907 ;; Tracked objects:
 10908 ;;		On entry : 0/0
 10909 ;;		On exit  : 0/0
 10910 ;;		Unchanged: 0/0
 10911 ;; Data sizes:     COMRAM   BANK0   BANK1   BANK2   BANK3   BANK4   BANK5
 10912 ;;      Params:         6       0       0       0       0       0       0
 10913 ;;      Locals:         5       0       0       0       0       0       0
 10914 ;;      Temps:          0       0       0       0       0       0       0
 10915 ;;      Totals:        11       0       0       0       0       0       0
 10916 ;;Total ram usage:       11 bytes
 10917 ;; Hardware stack levels used:    1
 10918 ;; This function calls:
 10919 ;;		Nothing
 10920 ;; This function is called by:
 10921 ;;		i2_getFree
 10922 ;; This function uses a non-reentrant model
 10923 ;;
 10924                           
 10925                           	psect	text34
 10926  0038E6                     __ptext34:
 10927                           	opt callstack 0
 10928  0038E6                     i2_memcpy:
 10929                           	opt callstack 22
 10930  0038E6  C003  F00A         	movff	i2memcpy@s1,i2memcpy@s
 10931  0038EA  C004  F00B         	movff	i2memcpy@s1+1,i2memcpy@s+1
 10932  0038EE  C001  F008         	movff	i2memcpy@d1,i2memcpy@d
 10933  0038F2  C002  F009         	movff	i2memcpy@d1+1,i2memcpy@d+1
 10934  0038F6  EF8D  F01C         	goto	i2l4907
 10935  0038FA                     i2l4899:
 10936  0038FA  C00A  FFD9         	movff	i2memcpy@s,fsr2l
 10937  0038FE  C00B  FFDA         	movff	i2memcpy@s+1,fsr2h
 10938  003902  50DF               	movf	indf2,w,c
 10939  003904  6E07               	movwf	i2memcpy@tmp^0,c
 10940  003906  4A0A               	infsnz	i2memcpy@s^0,f,c
 10941  003908  2A0B               	incf	(i2memcpy@s+1)^0,f,c
 10942  00390A  C008  FFD9         	movff	i2memcpy@d,fsr2l
 10943  00390E  C009  FFDA         	movff	i2memcpy@d+1,fsr2h
 10944  003912  C007  FFDF         	movff	i2memcpy@tmp,indf2
 10945  003916  4A08               	infsnz	i2memcpy@d^0,f,c
 10946  003918  2A09               	incf	(i2memcpy@d+1)^0,f,c
 10947  00391A                     i2l4907:
 10948  00391A  0605               	decf	i2memcpy@n^0,f,c
 10949  00391C  A0D8               	btfss	status,0,c
 10950  00391E  0606               	decf	(i2memcpy@n+1)^0,f,c
 10951  003920  2805               	incf	i2memcpy@n^0,w,c
 10952  003922  E106               	bnz	i2u566_41
 10953  003924  2806               	incf	(i2memcpy@n+1)^0,w,c
 10954  003926  A4D8               	btfss	status,2,c
 10955  003928  EF98  F01C         	goto	i2u566_41
 10956  00392C  EF9A  F01C         	goto	i2u566_40
 10957  003930                     i2u566_41:
 10958  003930  EF7D  F01C         	goto	i2l4899
 10959  003934                     i2u566_40:
 10960  003934  0012               	return		;funcret
 10961  003936                     __end_ofi2_memcpy:
 10962                           	opt callstack 0
 10963  0000                     
 10964                           	psect	text35
 10965  000000                     __ptext35:
 10966                           	opt callstack 0
 10967  000000                     
 10968                           	psect	rparam
 10969  0000                     
 10970                           	psect	temp
 10971  00005F                     btemp:
 10972                           	opt callstack 0
 10973  00005F                     	ds	1
 10974  0000                     int$flags	set	btemp
 10975  0000                     wtemp8	set	btemp+1
 10976  0000                     ttemp5	set	btemp+1
 10977  0000                     ttemp6	set	btemp+4
 10978  0000                     ttemp7	set	btemp+8
 10979                           tosu	equ	0xFFF
 10980                           tosh	equ	0xFFE
 10981                           tosl	equ	0xFFD
 10982                           stkptr	equ	0xFFC
 10983                           pclatu	equ	0xFFB
 10984                           pclath	equ	0xFFA
 10985                           pcl	equ	0xFF9
 10986                           tblptru	equ	0xFF8
 10987                           tblptrh	equ	0xFF7
 10988                           tblptrl	equ	0xFF6
 10989                           tablat	equ	0xFF5
 10990                           prodh	equ	0xFF4
 10991                           prodl	equ	0xFF3
 10992                           indf0	equ	0xFEF
 10993                           postinc0	equ	0xFEE
 10994                           postdec0	equ	0xFED
 10995                           preinc0	equ	0xFEC
 10996                           plusw0	equ	0xFEB
 10997                           fsr0h	equ	0xFEA
 10998                           fsr0l	equ	0xFE9
 10999                           wreg	equ	0xFE8
 11000                           indf1	equ	0xFE7
 11001                           postinc1	equ	0xFE6
 11002                           postdec1	equ	0xFE5
 11003                           preinc1	equ	0xFE4
 11004                           plusw1	equ	0xFE3
 11005                           fsr1h	equ	0xFE2
 11006                           fsr1l	equ	0xFE1
 11007                           bsr	equ	0xFE0
 11008                           indf2	equ	0xFDF
 11009                           postinc2	equ	0xFDE
 11010                           postdec2	equ	0xFDD
 11011                           preinc2	equ	0xFDC
 11012                           plusw2	equ	0xFDB
 11013                           fsr2h	equ	0xFDA
 11014                           fsr2l	equ	0xFD9
 11015                           status	equ	0xFD8


Data Sizes:
    Strings     0
    Constant    0
    Data        3
    BSS         464
    Persistent  0
    Stack       0

Auto Spaces:
    Space          Size  Autos    Used
    COMRAM           94     94      94
    BANK0           160     96     128
    BANK1           256     72     255
    BANK2           256      2     254
    BANK3           256     11      11
    BANK4           256      0       0
    BANK5           256      0       0

Pointer List with Targets:

    I2Cadress	PTR struct . size(2) Largest target is 0
		 -> NULL(NULL[0]), 

    memset@dest	PTR void  size(2) Largest target is 187
		 -> I2CConfig(BANK1[167]), 

    memset@s	PTR unsigned char  size(2) Largest target is 187
		 -> I2CConfig(BANK1[167]), 

    memcpy@d1	PTR void  size(2) Largest target is 130
		 -> getFree@tab(BANK1[64]), memory(BANK2[130]), NULL(NULL[0]), 

    memcpy@d	PTR unsigned char  size(2) Largest target is 130
		 -> getFree@tab(BANK1[64]), memory(BANK2[130]), NULL(NULL[0]), 

    memcpy@s1	PTR const void  size(2) Largest target is 130
		 -> getFree@tab(BANK1[64]), memory.pile(BANK2[64]), memory(BANK2[130]), NULL(NULL[0]), 
		 -> main@data(BANK3[3]), 

    memcpy@s	PTR const unsigned char  size(2) Largest target is 130
		 -> getFree@tab(BANK1[64]), memory.pile(BANK2[64]), memory(BANK2[130]), NULL(NULL[0]), 
		 -> main@data(BANK3[3]), 

    I2C_timer_prescaler@prescUsed	PTR unsigned int  size(2) Largest target is 2
		 -> I2C_Init@prescUsed(BANK0[2]), 

    I2C_timer_prescaler@prUsed	PTR unsigned int  size(2) Largest target is 2
		 -> I2C_Init@prUsed(BANK0[2]), 

    I2C_timer_prescaler@min	PTR float  size(2) Largest target is 4
		 -> I2C_Init@min(BANK0[4]), 

    getMemoryFromID@dP	PTR PTR unsigned char  size(2) Largest target is 70
		 -> array.Tab.Pointer(BANK2[2]), array.Tab(BANK2[60]), nulPointer(BANK1[2]), 

    getMemoryID@Pointer	PTR PTR unsigned char  size(2) Largest target is 70
		 -> array.Tab.Pointer(BANK2[2]), array.Tab(BANK2[60]), nulPointer(BANK1[2]), 

    getFree@tabPoint	PTR unsigned char  size(2) Largest target is 64
		 -> getFree@tab(BANK1[64]), 

    getFree@Pointer	PTR PTR unsigned char  size(2) Largest target is 70
		 -> array.Tab.Pointer(BANK2[2]), array.Tab(BANK2[60]), nulPointer(BANK1[2]), 

    S799$Pointer	PTR unsigned char  size(2) Largest target is 130
		 -> memory(BANK2[130]), NULL(NULL[0]), 

    array.Tab.Pointer	PTR unsigned char  size(2) Largest target is 130
		 -> memory.pile(BANK2[64]), memory(BANK2[130]), NULL(NULL[0]), 

    getMemoryPointer@Pointer	PTR unsigned char  size(2) Largest target is 130
		 -> memory.pile(BANK2[64]), memory(BANK2[130]), NULL(NULL[0]), 

    getMemoryPointer@dP	PTR PTR unsigned char  size(2) Largest target is 70
		 -> array.Tab.Pointer(BANK2[2]), array.Tab(BANK2[60]), nulPointer(BANK1[2]), 

    sp__myMalloc	PTR unsigned char  size(2) Largest target is 130
		 -> memory.pile(BANK2[64]), memory(BANK2[130]), NULL(NULL[0]), 

    I2C_Free@Pointer	PTR PTR unsigned char  size(2) Largest target is 70
		 -> array.Tab.Pointer(BANK2[2]), array.Tab(BANK2[60]), nulPointer(BANK1[2]), 

    sp__getMemoryFromID	PTR PTR unsigned char  size(2) Largest target is 70
		 -> array.Tab.Pointer(BANK2[2]), array.Tab(BANK2[60]), nulPointer(BANK1[2]), 

    I2C_TabRefresh@Pointer	PTR PTR unsigned char  size(2) Largest target is 70
		 -> array.Tab.Pointer(BANK2[2]), array.Tab(BANK2[60]), nulPointer(BANK1[2]), 

    I2C_Read_Buffer@adresse	PTR unsigned char  size(2) Largest target is 1
		 -> main@adresse(BANK3[1]), 

    I2C_Read_Buffer@sizeData	PTR unsigned char  size(2) Largest target is 1
		 -> main@bufferSize(BANK3[1]), 

    I2C_Read_Buffer@Pointeur	PTR PTR unsigned char  size(2) Largest target is 70
		 -> array.Tab.Pointer(BANK2[2]), array.Tab(BANK2[60]), nulPointer(BANK1[2]), 

    I2C_Read_Register_Request@sendData	PTR unsigned char  size(2) Largest target is 3
		 -> main@data(BANK3[3]), 

    I2C_Read_Register_Request@Pointeur	PTR PTR unsigned char  size(2) Largest target is 70
		 -> array.Tab.Pointer(BANK2[2]), array.Tab(BANK2[60]), nulPointer(BANK1[2]), 

    I2C_Read_Register_Request@rcvData	PTR unsigned char  size(2) Largest target is 0
		 -> NULL(NULL[0]), 

    I2C_Read_Register_Request@myData	PTR unsigned char  size(2) Largest target is 0
		 -> NULL(NULL[0]), 

    sp__memcpy	PTR void  size(2) Largest target is 130
		 -> i2getFree@tab(COMRAM[64]), getFree@tab(BANK1[64]), memory(BANK2[130]), NULL(NULL[0]), 

    sp__getMemoryPointer	PTR PTR unsigned char  size(2) Largest target is 70
		 -> array.Tab.Pointer(BANK2[2]), array.Tab(BANK2[60]), nulPointer(BANK1[2]), 

    I2C_Write@Pointeur	PTR PTR unsigned char  size(2) Largest target is 70
		 -> array.Tab.Pointer(BANK2[2]), array.Tab(BANK2[60]), nulPointer(BANK1[2]), 

    I2C_Write@data	PTR unsigned char  size(2) Largest target is 3
		 -> main@data(BANK3[3]), 

    I2C_Write@myData	PTR unsigned char  size(2) Largest target is 0
		 -> NULL(NULL[0]), 

    sp__memset	PTR void  size(2) Largest target is 187
		 -> I2CConfig(BANK1[167]), 

    nulPointer	PTR unsigned char  size(2) Largest target is 0
		 -> NULL(NULL[0]), 

    I2CConfig.RcvBuffer.data	PTR PTR unsigned char  size(2) Largest target is 70
		 -> array.Tab.Pointer(BANK2[2]), array.Tab(BANK2[60]), nulPointer(BANK1[2]), 

    I2C_ISR@point_732	PTR unsigned char  size(2) Largest target is 0
		 -> NULL(NULL[0]), 

    I2C_ISR@Pointeur_731	PTR PTR unsigned char  size(2) Largest target is 70
		 -> array.Tab.Pointer(BANK2[2]), array.Tab(BANK2[60]), nulPointer(BANK1[2]), 

    I2C_ISR@point_730	PTR unsigned char  size(2) Largest target is 0
		 -> NULL(NULL[0]), 

    I2C_ISR@Pointeur_729	PTR PTR unsigned char  size(2) Largest target is 70
		 -> array.Tab.Pointer(BANK2[2]), array.Tab(BANK2[60]), nulPointer(BANK1[2]), 

    I2C_ISR@point_728	PTR unsigned char  size(2) Largest target is 0
		 -> NULL(NULL[0]), 

    I2C_ISR@Pointeur_727	PTR PTR unsigned char  size(2) Largest target is 70
		 -> array.Tab.Pointer(BANK2[2]), array.Tab(BANK2[60]), nulPointer(BANK1[2]), 

    I2C_ISR@point	PTR unsigned char  size(2) Largest target is 0
		 -> NULL(NULL[0]), 

    I2C_ISR@Pointeur	PTR PTR unsigned char  size(2) Largest target is 70
		 -> array.Tab.Pointer(BANK2[2]), array.Tab(BANK2[60]), nulPointer(BANK1[2]), 

    S268$data	PTR PTR unsigned char  size(2) Largest target is 70
		 -> array.Tab(BANK2[60]), nulPointer(BANK1[2]), 

    I2CConfig.Buffer.data	PTR PTR unsigned char  size(2) Largest target is 70
		 -> array.Tab.Pointer(BANK2[2]), array.Tab(BANK2[60]), nulPointer(BANK1[2]), 

    main@point	PTR unsigned char  size(2) Largest target is 0
		 -> NULL(NULL[0]), 

    sp__I2C_Read_Buffer	PTR PTR unsigned char  size(2) Largest target is 70
		 -> array.Tab.Pointer(BANK2[2]), array.Tab(BANK2[60]), nulPointer(BANK1[2]), 

    main@buffer	PTR PTR unsigned char  size(2) Largest target is 70
		 -> array.Tab.Pointer(BANK2[2]), array.Tab(BANK2[60]), nulPointer(BANK1[2]), 

    ISR_ConnectFunction@Function	PTR FTN()void  size(2) Largest target is 1
		 -> I2C_ISR(), 

    S25$FunctTab	PTR FTN()void [10] size(2) Largest target is 1
		 -> I2C_ISR(), 

    ISRConfig.FunctTab	PTR FTN()void [10] size(2) Largest target is 1
		 -> I2C_ISR(), 


Critical Paths under _main in COMRAM

    None.

Critical Paths under _ISR_Routine in COMRAM

    _ISR_Routine->_ISR_Tasks
    _I2C_ISR->i2_getFree
    i2_getFree->i2_memcpy

Critical Paths under _main in BANK0

    _main->_I2C_Init
    _I2C_Write->_getMemoryPointer
    _I2C_Read_Register_Request->_getMemoryPointer
    _I2C_Read_Buffer->_I2C_TabRefresh
    _getMemoryPointer->_myMalloc
    _I2C_TabRefresh->_getFree
    _I2C_Init->_I2C_timer_prescaler
    _memory_init->_getFreeFull
    _I2C_timer_prescaler->___fldiv
    ___flsub->___fladd
    ___flge->___flmul
    ___fldiv->___xxtofl
    _I2C_Free->_getFree
    _getFree->_memcpy

Critical Paths under _ISR_Routine in BANK0

    _ISR_Tasks->_I2C_ISR

Critical Paths under _main in BANK1

    _main->_I2C_Read_Buffer
    _I2C_TabRefresh->_getFree
    _I2C_Init->_I2C_timer_prescaler
    _I2C_Free->_getFree

Critical Paths under _ISR_Routine in BANK1

    None.

Critical Paths under _main in BANK2

    None.

Critical Paths under _ISR_Routine in BANK2

    None.

Critical Paths under _main in BANK3

    None.

Critical Paths under _ISR_Routine in BANK3

    None.

Critical Paths under _main in BANK4

    None.

Critical Paths under _ISR_Routine in BANK4

    None.

Critical Paths under _main in BANK5

    None.

Critical Paths under _ISR_Routine in BANK5

    None.

Call Graph Tables:

 ---------------------------------------------------------------------------------
 (Depth) Function   	        Calls       Base Space   Used Autos Params    Refs
 ---------------------------------------------------------------------------------
 (0) _main                                                13    13      0   45022
                                              0 BANK2      2     2      0
                                              0 BANK3     11    11      0
                           _I2C_Free
                           _I2C_Init
                    _I2C_Read_Buffer
          _I2C_Read_Register_Request
                          _I2C_Write
                _ISR_ConnectFunction
                           _ISR_Init
 ---------------------------------------------------------------------------------
 (1) _ISR_Init                                             0     0      0       0
 ---------------------------------------------------------------------------------
 (1) _ISR_ConnectFunction                                  2     0      2     121
                                             32 BANK0      2     0      2
 ---------------------------------------------------------------------------------
 (1) _I2C_Write                                           12     8      4    6358
                                             52 BANK0     12     8      4
                   _I2C_Master_Start
                    _I2C_Master_Stop
                   _I2C_Master_Write
                        _getMemoryID
                   _getMemoryPointer
                             _memcpy
 ---------------------------------------------------------------------------------
 (2) _I2C_Master_Write                                     2     0      2     121
                                             32 BANK0      2     0      2
 ---------------------------------------------------------------------------------
 (2) _I2C_Master_Stop                                      0     0      0       0
 ---------------------------------------------------------------------------------
 (2) _I2C_Master_Start                                     2     0      2     121
                                             32 BANK0      2     0      2
 ---------------------------------------------------------------------------------
 (1) _I2C_Read_Register_Request                           14     9      5    6172
                                             52 BANK0     14     9      5
                        _getMemoryID
                   _getMemoryPointer
                             _memcpy
 ---------------------------------------------------------------------------------
 (1) _I2C_Read_Buffer                                     11     7      4   10217
                                             60 BANK0      4     4      0
                                             68 BANK1      4     0      4
                     _I2C_TabRefresh
                        _getMemoryID
                   _getMemoryPointer
                             _memcpy
 ---------------------------------------------------------------------------------
 (2) _getMemoryPointer                                    14    12      2    1801
                                             38 BANK0     14    12      2
                           _myMalloc
 ---------------------------------------------------------------------------------
 (3) _myMalloc                                             6     4      2     307
                                             32 BANK0      6     4      2
 ---------------------------------------------------------------------------------
 (2) _getMemoryID                                         10     7      3    1284
                                             32 BANK0     10     7      3
 ---------------------------------------------------------------------------------
 (2) _I2C_TabRefresh                                       3     3      0    4771
                                             57 BANK0      3     3      0
                            _getFree
                    _getMemoryFromID
 ---------------------------------------------------------------------------------
 (1) _I2C_Init                                            13    11      2   16694
                                             83 BANK0     13    11      2
                _I2C_timer_prescaler
                             ___fleq
                        _memory_init
                             _memset
 ---------------------------------------------------------------------------------
 (2) _memset                                              12     6      6    1287
                                             32 BANK0     12     6      6
 ---------------------------------------------------------------------------------
 (2) _memory_init                                          0     0      0     192
                        _getFreeFull
 ---------------------------------------------------------------------------------
 (3) _getFreeFull                                          6     6      0     192
                                             32 BANK0      6     6      0
 ---------------------------------------------------------------------------------
 (2) ___fleq                                              12     4      8     590
                                             32 BANK0     12     4      8
 ---------------------------------------------------------------------------------
 (2) _I2C_timer_prescaler                                 34    22     12   14078
                                             71 BANK0     12     0     12
                                              0 BANK1     22    22      0
                            ___fldiv
                             ___flge
                            ___flmul
                            ___flsub
                            ___fltol
                           ___xxtofl
 ---------------------------------------------------------------------------------
 (3) ___xxtofl                                            14    10      4    1106
                                             32 BANK0     14    10      4
 ---------------------------------------------------------------------------------
 (3) ___fltol                                             10     6      4     427
                                             32 BANK0     10     6      4
 ---------------------------------------------------------------------------------
 (3) ___flsub                                              8     0      8    4187
                                             48 BANK0      8     0      8
                            ___fladd
                           ___xxtofl (ARG)
 ---------------------------------------------------------------------------------
 (4) ___fladd                                             16     8      8    3262
                                             32 BANK0     16     8      8
 ---------------------------------------------------------------------------------
 (3) ___flmul                                             25    17      8    2693
                                             32 BANK0     25    17      8
 ---------------------------------------------------------------------------------
 (3) ___flge                                              12     4      8    1166
                                             57 BANK0     12     4      8
                            ___flmul (ARG)
                           ___xxtofl (ARG)
 ---------------------------------------------------------------------------------
 (3) ___fldiv                                             25    17      8    2003
                                             46 BANK0     25    17      8
                           ___xxtofl (ARG)
 ---------------------------------------------------------------------------------
 (1) _I2C_Free                                             3     3      0    4740
                                             57 BANK0      3     3      0
                            _getFree
                    _getMemoryFromID
 ---------------------------------------------------------------------------------
 (3) _getMemoryFromID                                     12    10      2     635
                                             32 BANK0     12    10      2
 ---------------------------------------------------------------------------------
 (3) _getFree                                             82    79      3    4003
                                             43 BANK0     14    11      3
                                              0 BANK1     68    68      0
                             _memcpy
 ---------------------------------------------------------------------------------
 (2) _memcpy                                              11     5      6    1828
                                             32 BANK0     11     5      6
 ---------------------------------------------------------------------------------
 Estimated maximum stack depth 4
 ---------------------------------------------------------------------------------
 (Depth) Function   	        Calls       Base Space   Used Autos Params    Refs
 ---------------------------------------------------------------------------------
 (5) _ISR_Routine                                          8     8      0    2623
                                             24 BANK0      8     8      0
                          _ISR_Tasks
 ---------------------------------------------------------------------------------
 (6) _ISR_Tasks                                            1     1      0    2623
                                             93 COMRAM     1     1      0
                            _I2C_ISR *
 ---------------------------------------------------------------------------------
 (7) _I2C_ISR                                             24    24      0    2555
                                              0 BANK0     24    24      0
                          i2_getFree
 ---------------------------------------------------------------------------------
 (8) i2_getFree                                           82    79      3    2249
                                             11 COMRAM    82    79      3
                           i2_memcpy
 ---------------------------------------------------------------------------------
 (9) i2_memcpy                                            11     5      6     523
                                              0 COMRAM    11     5      6
 ---------------------------------------------------------------------------------
 Estimated maximum stack depth 9
 ---------------------------------------------------------------------------------

 Call Graph Graphs:

 _main (ROOT)
   _I2C_Free
     _getFree
       _memcpy
     _getMemoryFromID
   _I2C_Init
     _I2C_timer_prescaler
       ___fldiv
         ___xxtofl (ARG)
       ___flge
         ___flmul (ARG)
         ___xxtofl (ARG)
       ___flmul
       ___flsub
         ___fladd
         ___xxtofl (ARG)
       ___fltol
       ___xxtofl
     ___fleq
     _memory_init
       _getFreeFull
     _memset
   _I2C_Read_Buffer
     _I2C_TabRefresh
       _getFree
         _memcpy
       _getMemoryFromID
     _getMemoryID
     _getMemoryPointer
       _myMalloc
     _memcpy
   _I2C_Read_Register_Request
     _getMemoryID
     _getMemoryPointer
       _myMalloc
     _memcpy
   _I2C_Write
     _I2C_Master_Start
     _I2C_Master_Stop
     _I2C_Master_Write
     _getMemoryID
     _getMemoryPointer
       _myMalloc
     _memcpy
   _ISR_ConnectFunction
   _ISR_Init

 _ISR_Routine (ROOT)
   _ISR_Tasks
     _I2C_ISR *
       i2_getFree
         i2_memcpy

 Address spaces:
Name               Size   Autos  Total    Cost      Usage
BIGRAM             5FF      0       0      16        0.0%
EEDATA             100      0       0       0        0.0%
BITBANK5           100      0       0      14        0.0%
BANK5              100      0       0      15        0.0%
BITBANK4           100      0       0      12        0.0%
BANK4              100      0       0      13        0.0%
BITBANK3           100      0       0      10        0.0%
BANK3              100      B       B      11        4.3%
BITBANK2           100      0       0       7        0.0%
BANK2              100      2      FE       8       99.2%
BITBANK1           100      0       0       5        0.0%
BANK1              100     48      FF       6       99.6%
BITBANK0            A0      0       0       3        0.0%
BANK0               A0     60      80       4       80.0%
BITCOMRAM           5E      0       0       0        0.0%
COMRAM              5E     5E      5E       1      100.0%
BITSFR_1             0      0       0     200        0.0%
SFR_1                0      0       0     200        0.0%
BITSFR               0      0       0     200        0.0%
SFR                  0      0       0     200        0.0%
STACK                0      0       0       2        0.0%
NULL                 0      0       0       0        0.0%
ABS                  0      0     2E6       9        0.0%
DATA                 0      0     2E6      17        0.0%
CODE                 0      0       0       0        0.0%


Microchip Technology PIC18 Macro Assembler V2.10 build 88905656 
Symbol Table                                                                                   Thu May 07 18:56:35 2020

                         ___fldiv@aexp 00A6                           ___fldiv@bexp 00A5  
              getFreeFull@memoryNumber 0084                           ___fldiv@sign 009E  
              I2C_Read_Buffer@sizeData 01FA                     __size_of_I2C_Write 0266  
                                   l12 3A7E                                     l15 3A4A  
                                   l75 2AC6                                     l84 2A8C  
 I2C_Read_Register_Request@rcvsizeData 0097                           __CFG_CP0$OFF 000000  
                         __CFG_CP1$OFF 000000                           __CFG_CP2$OFF 000000  
                         __CFG_CP3$OFF 000000                            __CFG_LVP$ON 000000  
                                  l304 231E                                    l401 3390  
                                  l322 3768                                    l309 3160  
                                  l421 3A2A                                    l422 3A2C  
                                  l262 2646                                    l343 3A62  
                                  l351 2624                                    l263 288A  
                                  l328 3842                                    l256 2CA0  
                                  l416 3A06                                    l440 39EE  
                                  l264 2658                                    l257 2CA2  
                                  l249 2CE8                                    l441 39DA  
                                  l418 3A14                                    l434 3A66  
                                  l259 2CC2                                    l347 36EA  
                                  l419 3A1C                                    l443 39E8  
                                  l436 3A74                                    l437 3A76  
                                  l445 39F0                                    l471 1D7E  
                                  l383 327E                                    l448 3A02  
                                  l369 0C12                                    l297 2146  
                                  l394 37E6                                    l298 23A8  
                                  l733 364A                                    l744 359E  
                                  l739 3558                                    l771 3498  
                                  _GIE 007F97                           __CFG_CPB$OFF 000000  
                                  _PR2 000FBB                           __CFG_CPD$OFF 000000  
          __end_of_ISR_ConnectFunction 3A4C                                    i2l9 002E  
                      __end_of_I2C_ISR 06F8                                    prod 000FF3  
                                  tosl 000FFD                                    wreg 000FE8  
                         ___flmul@aexp 008D                           ___flmul@bexp 0092  
                         ___flmul@sign 008C                           ___flmul@temp 0097  
                         ___flmul@prod 0093                            main@adresse 0308  
                         ___fltol@exp1 0089                                   l1002 12D0  
                                 l1011 15A0                                   l1003 12BE  
                                 l1004 1284                                   l1105 198E  
                                 l1019 13EA                                   l1028 14BA  
                                 l1044 39C6                                   l1132 2EA0  
                                 l1061 1F3E                                   l1029 14A8  
                                 l1070 2026                                   l1151 3894  
                                 l1143 2E38                                   l1056 211A  
                                 l1136 2DDC                                   l1129 2D44  
                                 l1058 1F7A                                   l1067 1FC0  
                                 l1155 3018                                   l1092 19CC  
                                 l1069 2038                                   l1095 185E  
                                 l1088 1668                                   l1097 18D6  
                                 l1098 18C4                                   l5001 376E  
                                 l5011 37D4                                   l5003 3798  
                                 l5101 1F48                                   l5013 37D6  
                                 l5021 3698                                   l5111 1FA0  
                                 l5103 1F66                                   l5031 1D9E  
                                 l5015 3650                                   l5121 1FDE  
                                 l5113 1FA6                                   l5105 1F68  
                                 l5033 1DAE                                   l5041 1DD8  
                                 l5025 1D80                                   l5009 379C  
                                 l5017 368C                                   l6001 2666  
                                 l5131 2048                                   l5123 1FE2  
                                 l5115 1FB0                                   l5107 1F78  
                                 l5051 1E04                                   l5043 1DE8  
                                 l5035 1DBE                                   l5027 1D8E  
                                 l5211 16D4                                   l5203 169C  
                                 l6011 26A4                                   l6003 2672  
                                 l5141 20AA                                   l5133 2054  
                                 l5125 1FF0                                   l5117 1FBE  
                                 l5109 1F8A                                   l5053 1E14  
                                 l5061 1E3E                                   l5045 1DEE  
                                 l5037 1DCE                                   l5029 1D9C  
                                 l5301 34CA                                   l5221 171E  
                                 l5213 16EC                                   l5205 16A8  
                                 l6101 218A                                   l6013 26BE  
                                 l6021 26EA                                   l6005 2684  
                                 l5151 2108                                   l5143 20C0  
                                 l5135 2062                                   l5127 201E  
                                 l5119 1FD0                                   l5071 1E80  
                                 l5063 1E4E                                   l5055 1E24  
                                 l5047 1DF4                                   l5039 1DD0  
                                 l5311 3538                                   l5303 34DA  
                                 l5231 1774                                   l5223 172E  
                                 l5215 16F8                                   l5207 16B2  
                                 l6111 21EA                                   l6103 218C  
                                 l6031 272A                                   l6023 26FC  
                                 l6015 26D0                                   l6007 268A  
                                 l5153 210E                                   l5145 20DA  
                                 l5137 208C                                   l5065 1E64  
                                 l5057 1E34                                   l5049 1E02  
                                 l5313 3546                                   l5305 3508  
                                 l5241 1818                                   l5233 1790  
                                 l5225 173A                                   l5217 1704  
                                 l5209 16C8                                   l5321 3392  
                                 l5401 2E70                                   l6201 314E  
                                 l6121 2262                                   l6113 2212  
                                 l6105 21A2                                   l6025 2700  
                                 l6017 26D6                                   l6009 269C  
                                 l5155 2110                                   l5147 20F6  
                                 l5139 2090                                   l5091 1F02  
                                 l5083 1EB8                                   l5067 1E74  
                                 l5075 1E94                                   l5059 1E36  
                                 l5315 3596                                   l5307 3518  
                                 l5251 186E                                   l5243 1826  
                                 l5235 179C                                   l5227 174A  
                                 l5219 1712                                   l5171 15D0  
                                 l5163 15A2                                   l5331 33EA  
                                 l5323 33AA                                   l5403 2E80  
                                 l6203 3158                                   l6131 22E4  
                                 l6123 227C                                   l6115 222C  
                                 l6107 21CC                                   l6051 2780  
                                 l6043 2754                                   l6027 2712  
                                 l6019 26E8                                   l6221 3826  
                                 l6213 37E8                                   l5149 20FA  
                                 l5093 1F0A                                   l5085 1ED2  
                                 l5077 1EA4                                   l5069 1E7C  
                                 l5317 359C                                   l5309 3526  
                                 l5253 187C                                   l5245 1844  
                                 l5237 17B8                                   l5229 1764  
                                 l5181 160C                                   l5173 15E0  
                                 l5165 15B0                                   l4701 10FE  
                                 l5333 33FA                                   l5405 2E8E  
                                 l6141 2322                                   l6133 22F8  
                                 l6125 22A6                                   l6117 2244  
                                 l6061 280A                                   l6053 27AA  
                                 l6045 2758                                   l6029 2718  
                                 l6037 2736                                   l6223 383C  
                                 l6215 37F2                                   l5095 1F1A  
                                 l5087 1EE2                                   l5079 1EA4  
                                 l5263 18E6                                   l5271 192E  
                                 l5255 1880                                   l5247 184E  
                                 l5239 17E2                                   l5191 1642  
                                 l5183 1612                                   l5175 15F0  
                                 l5167 15BE                                   l4703 110E  
                                 l4711 1138                                   l5343 3424  
                                 l5335 33FE                                   l5327 33BE  
                                 l5407 2E90                                   l6151 2388  
                                 l6143 2336                                   l6135 2308  
                                 l6127 22BC                                   l6071 286A  
                                 l6063 281E                                   l6047 2768  
                                 l6039 2746                                   l6231 2890  
                                 l6217 3810                                   l5097 1F2E  
                                 l5089 1EF2                                   l5281 19A2  
                                 l5273 1948                                   l5265 18F2  
                                 l5257 188E                                   l5249 185C  
                                 l5193 1652                                   l5185 1620  
                                 l5177 15F6                                   l5169 15C0  
                                 l4801 1302                                   l4721 1168  
                                 l4713 1148                                   l4705 111E  
                                 l5361 3488                                   l5353 344C  
                                 l5345 342E                                   l5337 340C  
                                 l5329 33E8                                   l6153 238A  
                                 l6145 234E                                   l6137 230C  
                                 l6129 22D0                                   l6073 286C  
                                 l6065 2832                                   l6057 27C8  
                                 l6049 276A                                   l6241 28DA  
                                 l6233 28B8                                   l6219 3822  
                                 l5099 1F3C                                   l5283 19B0  
                                 l5275 195C                                   l5267 1900  
                                 l5259 18BC                                   l5195 1658  
                                 l5187 1622                                   l5179 1606  
                                 l4811 133E                                   l4803 1312  
                                 l4731 11A8                                   l4723 1176  
                                 l4715 114E                                   l4707 112E  
                                 l5355 3458                                   l5347 3438  
                                 l5371 2D54                                   l6171 3046  
                                 l6163 301A                                   l6155 239A  
                                 l6147 2364                                   l6139 231C  
                                 l6091 2158                                   l6083 2120  
                                 l6075 287C                                   l6067 2846  
                                 l6059 27F0                                   l6251 2930  
                                 l6243 28F0                                   l6235 28BA  
                                 l5285 19B2                                   l5277 1976  
                                 l5269 192A                                   l5197 1678  
                                 l5189 1632                                   l4821 1384  
                                 l4813 134C                                   l4805 1320  
                                 l4741 11E2                                   l4733 11AA  
                                 l4725 1178                                   l4717 1160  
                                 l4709 1130                                   l5293 3980  
                                 l5357 3468                                   l5381 2D92  
                                 l5373 2D6A                                   l5365 2CEE  
                                 l6181 30BA                                   l6173 305C  
                                 l6165 302A                                   l6157 239E  
                                 l6149 2378                                   l6093 2168  
                                 l6085 212A                                   l6077 2880  
                                 l6069 285A                                   l6245 28F6  
                                 l6237 28C8                                   l6229 288C  
                                 l4911 0712                                   l5279 1992  
                                 l5287 19B8                                   l5199 1688  
                                 l4831 1400                                   l4823 13B8  
                                 l4815 134E                                   l4807 132E  
                                 l4751 11F6                                   l4743 11E6  
                                 l4727 1188                                   l4735 11B2  
                                 l4719 1162                                   l5295 3992  
                                 l5359 3478                                   l5391 2E1A  
                                 l5383 2DC4                                   l5367 2D00  
                                 l5711 19CE                                   l6191 3122  
                                 l6183 30C4                                   l6175 3074  
                                 l6159 23A0                                   l6087 213C  
                                 l6079 2882                                   l6271 29CE  
                                 l6263 298C                                   l6255 294A  
                                 l6247 2904                                   l6239 28CC  
                                 l4921 0742                                   l4913 0738  
                                 l5289 19BC                                   l4841 143C  
                                 l4833 1410                                   l4825 13BA  
                                 l4817 1358                                   l4809 133A  
                                 l4761 120A                                   l4753 11FA  
                                 l4745 11EA                                   l4737 11C2  
                                 l4729 1198                                   l5393 2E28  
                                 l5385 2DC6                                   l5377 2D7E  
                                 l5369 2D0E                                   l5721 1B08  
                                 l5713 1A16                                   l5705 3A4C  
                                 l5801 2438                                   l6193 3126  
                                 l6185 30EE                                   l6177 309E  
                                 l6169 3036                                   l6097 2176  
                                 l6281 2A2E                                   l6273 29D2  
                                 l6265 2990                                   l6257 2952  
                                 l6249 2910                                   l4691 3874  
                                 l4683 3844                                   l4923 0780  
                                 l4915 073E                                   l5299 349A  
                                 l4851 1468                                   l4843 143E  
                                 l4827 13CA                                   l4819 135E  
                                 l4771 121E                                   l4763 120E  
                                 l4755 11FE                                   l4747 11EE  
                                 l4739 11D4                                   l5395 2E46  
                                 l5387 2DD2                                   l5379 2D86  
                                 l5731 1C1C                                   l5723 1B52  
                                 l5715 1A70                                   l5707 3A56  
                                 l5811 248E                                   l5803 2446  
                                 l6195 3136                                   l6187 310A  
                                 l6179 30AA                                   l6099 217A  
                                 l6291 2A9E                                   l6283 2A48  
                                 l6275 29F6                                   l6267 29B4  
                                 l6259 2972                                   l4685 3858  
                                 l4693 3878                                   l4941 08BA  
                                 l4925 0788                                   l4909 06F8  
                                 l4861 14A0                                   l4845 144C  
                                 l4837 1424                                   l4853 146A  
                                 l4829 13DA                                   l4781 127C  
                                 l4765 1212                                   l4757 1202  
                                 l4749 11F2                                   l4773 1222  
                                 l5397 2E48                                   l5389 2E0E  
                                 l5741 1D0A                                   l5733 1C22  
                                 l5725 1B98                                   l5717 1AA4  
                                 l5709 3A5C                                   l5821 25CE  
                                 l5813 2532                                   l6197 313A  
                                 l6189 310C                                   l6293 2AB8  
                                 l6285 2A58                                   l4687 3864  
                                 l4943 094E                                   l4935 07A2  
                                 l4927 078C                                   l4871 151E  
                                 l4847 1454                                   l4839 142E  
                                 l4855 1478                                   l4791 12B2  
                                 l4783 1292                                   l4775 1226  
                                 l4767 1216                                   l4759 1206  
                                 l4695 10E0                                   l5399 2E4C  
                                 l5743 1D46                                   l5735 1C6A  
                                 l5727 1BA8                                   l5719 1AC0  
                                 l5751 2ECE                                   l5831 3162  
                                 l5823 25DE                                   l5815 2576  
                                 l6199 314C                                   l5903 3A78  
                                 l6295 2ABE                                   l6287 2A6C  
                                 l6279 2A10                                   l4689 3868  
                                 l4961 0B62                                   l4937 0822  
                                 l4945 0978                                   l4929 079C  
                                 l4881 1564                                   l4865 14CA  
                                 l4873 1520                                   l4857 147C  
                                 l4849 1458                                   l4793 12BC  
                                 l4785 129E                                   l4777 1250  
                                 l4769 121A                                   l4697 10EE  
                                 l5737 1CB4                                   l5729 1BE4  
                                 l5761 2F76                                   l5745 2EA2  
                                 l5921 2AF2                                   l5913 2ACE  
                                 l5841 3190                                   l5833 317C  
                                 l5825 25F0                                   l5817 25C4  
                                 l5809 244A                                   l6289 2A86  
                                 l4963 0B66                                   l4955 0992  
                                 l4947 097C                                   l4939 086A  
                                 l4891 158E                                   l4883 1572  
                                 l4875 1530                                   l4867 14D6  
                                 l4859 148A                                   l4795 12DE  
                                 l4787 12A2                                   l4779 126C  
                                 l4699 10FC                                   l5739 1CFA  
                                 l5771 2FFC                                   l5763 2FA2  
                                 l5755 2F04                                   l5931 2BA2  
                                 l5923 2AFA                                   l5915 2AD2  
                                 l5843 31C8                                   l5835 3186  
                                 l5827 261C                                   l5819 25CC  
                                 l5907 3A2E                                   l4965 0B76  
                                 l4957 0A12                                   l4949 098C  
                                 l4981 32EE                                   l4973 328E  
                                 l4893 1590                                   l4885 1578  
                                 l4877 1540                                   l4869 14E4  
                                 l4797 12EE                                   l4789 12B0  
                                 l5773 3002                                   l5757 2F5C  
                                 l5749 2EC2                                   l6397 2C64  
                                 l5941 2C0E                                   l5933 2BD8  
                                 l5925 2B02                                   l5917 2ADC  
                                 l5853 31F8                                   l5845 31D0  
                                 l5781 39D6                                   l5909 3A48  
                                 l4959 0A5A                                   l4983 3300  
                                 l4975 32D4                                   l4967 3284  
                                 l4887 157A                                   l4879 1560  
                                 l5775 3006                                   l5767 2FBC  
                                 l5951 2C26                                   l5943 2C14  
                                 l5935 2BE0                                   l5927 2B36  
                                 l5919 2AE0                                   l5871 3730  
                                 l5863 36EC                                   l5847 31D2  
                                 l5791 23E4                                   l5783 3A64  
                                 l4977 32DC                                   l4889 1580  
                                 l5881 35D0                                   l5769 2FF0  
                                 l5953 2C2C                                   l5945 2C1C  
                                 l5937 2BEA                                   l5929 2B6C  
                                 l5873 374C                                   l5865 36FE  
                                 l5849 31E2                                   l5793 23F6  
                                 l5785 23AE                                   l5777 3A04  
                                 l4995 335C                                   l4987 3314  
                                 l4979 32DE                                   l5891 3648  
                                 l5883 35E0                                   l5971 2C9A  
                                 l5955 2C38                                   l5963 2C4C  
                                 l5947 2C20                                   l5939 2C08  
                                 l5875 374E                                   l5867 3714  
                                 l5859 3240                                   l5787 23D0  
                                 l5779 39C8                                   l4997 3388  
                                 l5885 360E                                   l5981 2CD2  
                                 l5973 2CB0                                   l5957 2C44  
                                 l5965 2C82                                   l5949 2C24  
                                 l5877 3764                                   l5869 3726  
                                 l5887 361E                                   l5879 35A0  
                                 l5983 2CDA                                   l5967 2C8A  
                                 l5799 240E                                   l5889 3642  
                                 l5977 2CC4                                   l5969 2C8C  
                                 l5993 262A                                   l5979 2CC8  
                                 l5995 262A                                   l5997 263C  
                                 _LATB 000F8A                                   _LATD 000F8C  
                                 _LATE 000F8D                                   u6000 2048  
                                 u6001 2044                                   u6010 2062  
                                 u6011 205E                                   u6020 20AA  
                                 u6100 1642                                   u5300 1160  
                                 u6021 20A6                                   u6101 163E  
                                 u5301 115C                                   u6030 20DA  
                                 u6110 1678                                   u5310 1176  
                                 u6031 20D6                                   u6111 1674  
                                 u5311 1172                                   u6040 2108  
                                 u6200 1900                                   u6120 1688  
                                 u5400 12B0                                   u5320 1188  
                                 u7000 1BE4                                   u6041 2104  
                                 u6201 18FC                                   u6121 1684  
                                 u5401 12AC                                   u5321 1184  
                                 u7001 1BE0                                   u6210 1948  
                                 u6130 1802                                   u6050 15BE  
                                 u5410 12D0                                   u5330 1198  
                                 u7010 1C6A                                   u6211 1944  
                                 u6051 15BA                                   u5411 12CC  
                                 u5331 1194                                   u7011 1C66  
                                 _PEIE 007F96                                   u5260 3894  
                                 u6220 1976                                   u6140 185C  
                                 u6060 15D0                                   u5500 1410  
                                 u5420 12DE                                   u5340 11D4  
                                 u6300 33DE                                   u7020 1D46  
                                 u7100 39D6                                   u5261 3890  
                                 u6221 1972                                   u6141 1858  
                                 u6061 15CC                                   u5501 140C  
                                 u5421 12DA                                   u5341 11D0  
                                 u7021 1D42                                   u7101 39D2  
                                 u6230 19B0                                   u6150 187C  
                                 u6070 15E0                                   u5510 143C  
                                 u5430 12EE                                   u5350 11E2  
                                 u5270 10FC                                   u6310 340C  
                                 u7030 2EBE                                   u7110 39E8  
                                 u6231 19AC                                   u6151 1878  
                                 u6135 17F8                                   u6071 15DC  
                                 u5511 1438                                   u5431 12EA  
                                 u5351 11DE                                   u5271 10F8  
                                 u6311 3408                                   u7031 2EBA  
                                 u7111 39E4                                   u6240 34CA  
                                 u6160 188E                                   u6080 1620  
                                 u5600 151E                                   u5520 144C  
                                 u5440 1320                                   u5360 1250  
                                 u5280 110E                                   u6320 3420  
                                 u6400 2E0A                                   u7040 2F00  
                                 u7200 31C8                                   u7120 39FE  
                                 u6241 34C6                                   u6161 188A  
                                 u6081 161C                                   u5601 151A  
                                 u5521 1448                                   u5441 131C  
                                 u5361 124C                                   u5281 110A  
                                 u6321 341C                                   u6305 33D4  
                                 u6401 2E06                                   u7041 2EFC  
                                 u7201 31C4                                   u7121 39FA  
                                 u6250 3508                                   u6170 18BC  
                                 u6090 1632                                   u5610 1530  
                                 u5530 1468                                   u5450 132E  
                                 u5370 1268                                   u5290 111E  
                                 u6330 3448                                   u6410 2E28  
                                 u7050 2F72                                   u7210 31E2  
                                 u7130 3A74                                   u6251 3504  
                                 u6171 18B8                                   u6091 162E  
                                 u5611 152C                                   u5531 1464  
                                 u5451 132A                                   u5371 1262  
                                 u5291 111A                                   u6331 3444  
                                 u6411 2E24                                   u7051 2F6E  
                                 u7211 31DE                                   u7131 3A70  
                                 u5700 0822                                   u6260 3526  
                                 u6180 18D2                                   u5620 1540  
                                 u5540 1478                                   u5460 134C  
                                 u5380 126A                                   u6340 3468  
                                 u6420 2E38                                   u7060 2FB8  
                                 u7220 31F4                                   u7140 23D0  
                                 i2l21 397E                                   u5701 081E  
                                 u6261 3522                                   u6181 18CE  
                                 u5621 153C                                   u5541 1474  
                                 u5461 1348                                   u6341 3464  
                                 u6421 2E34                                   u7061 2FB4  
                                 u7221 31F0                                   u7141 23CC  
                                 u5710 086A                                   u6270 3546  
                                 u6190 18E6                                   u5630 1560  
                                 u5550 148A                                   u5470 1384  
                                 u5390 1292                                   u6350 3478  
                                 u6430 2E46                                   u7070 3018  
                                 u7310 2BD8                                   u7230 323C  
                                 u7150 240A                                   u5711 0866  
                                 u6271 3542                                   u6191 18E2  
                                 u5631 155C                                   u5551 1486  
                                 u5471 1380                                   u5391 128E  
                                 u6351 3474                                   u6431 2E42  
                                 u7071 3014                                   u7311 2BD4  
                                 u7231 3238                                   u7151 2406  
                                 u5720 098C                                   u6280 3596  
                                 u5640 1572                                   u5560 14A0  
                                 u5480 13CA                                   u6440 2E80  
                                 u6360 2D00                                   u5800 37E6  
                                 u7320 2C9A                                   u7240 36FE  
                                 u7160 2438                                   u7080 3A14  
                                 u7400 26D0                                   u5721 0988  
                                 u6281 3592                                   u5641 156E  
                                 u5561 149C                                   u5481 13C6  
                                 u6441 2E7C                                   u6361 2CFC  
                                 u5801 37E2                                   u7321 2C96  
                                 u7241 36FA                                   u7161 2434  
                                 u7081 3A10                                   u7401 26CC  
                                 u5730 0A12                                   u5650 158E  
                                 u5570 14B6                                   u5490 1400  
                                 u6290 33AA                                   u6450 2E8E  
                                 u6370 2D0E                                   u7330 2CB0  
                                 u7250 3764                                   u5810 368C  
                                 u7170 248E                                   u7090 3A2A  
                                 u7410 26E8                                   u5731 0A0E  
                                 u5651 158A                                   u5571 14B2  
                                 u5491 13FC                                   u6291 33A6  
                                 u6451 2E8A                                   u6371 2D0A  
                                 u7331 2CAC                                   u7251 3760  
                                 u5811 3688                                   u7171 248A  
                                 u7091 3A26                                   u7411 26E4  
                                 u5740 0A5A                                   u5900 1F1A  
                                 u5820 1D9C                                   u5580 14CA  
                                 u6380 2D6A                                   u7260 35D0  
                                 u7340 2CBE                                   u7180 25DE  
                                 u7500 2154                                   u7420 26FC  
                                 u5741 0A56                                   u5901 1F16  
                                 u5821 1D98                                   u5581 14C6  
                                 u6381 2D66                                   u7261 35CC  
                                 u7341 2CBA                                   u7181 25DA  
                                 u7501 2150                                   u7421 26F8  
                                 u5750 0B76                                   u5670 0712  
                                 u5910 1F3C                                   u5830 1DAE  
                                 u5590 14E4                                   u6390 2DC0  
                                 u7270 360E                                   u7190 317C  
                                 u7510 2168                                   u7430 2712  
                                 u7350 263C                                   u5751 0B72  
                                 u5671 070E                                   u5911 1F38  
                                 u5831 1DAA                                   u5591 14E0  
                                 u6391 2DBC                                   u7271 360A  
                                 u7191 3178                                   u7511 2164  
                                 u7431 270E                                   u7351 2638  
                                 u5680 0780                                   u5760 32D4  
                                 u5920 1F66                                   u5840 1DBE  
                                 u7280 3642                                   u7600 3122  
                                 u7520 218A                                   u7440 272A  
                                 u7360 2654                                   u5681 077C  
                                 u5761 32D0                                   u5921 1F62  
                                 u5841 1DBA                                   u7281 363E  
                                 u7601 311E                                   u7521 2186  
                                 u7441 2726                                   u7361 2650  
                                 u5690 079C                                   u5770 32EE  
                                 u5930 1F8A                                   u5850 1E02  
                                 u7610 3136                                   u7530 21E6  
                                 u7450 2746                                   u7370 2666  
                                 u5691 0798                                   u5771 32EA  
                                 u5931 1F86                                   u5851 1DFE  
                                 u7611 3132                                   u7531 21E2  
                                 u7451 2742                                   u7371 2662  
                                 u5780 3300                                   u7620 383C  
                                 u5940 1FA0                                   u5860 1E14  
                                 u7540 225E                                   u7460 2768  
                                 u7380 2684                                   u7700 2A86  
                                 u5781 32FC                                   u7621 3838  
                                 u5941 1F9C                                   u5861 1E10  
                                 u7541 225A                                   u7461 2764  
                                 u7381 2680                                   u7701 2A82  
                     myMalloc@sizeData 0085                                   u5790 3358  
                                 u5950 1FBE                                   u5870 1E24  
                                 u7550 231C                                   u7470 27C4  
                                 u7390 269C                                   u7710 2A9E  
                                 u7630 28F0                                   u5791 3354  
                                 u5951 1FBA                                   u5871 1E20  
                                 u7551 2318                                   u7471 27C0  
                                 u7391 2698                                   u7711 2A9A  
                                 u7631 28EC                                   u5960 1FDE  
                                 u5880 1E64                                   u7560 239A  
                                 u7480 287C                                   u7720 2AB8  
                                 u7640 2946                                   u5961 1FDA  
                                 u5881 1E60                                   u7561 2396  
                                 u7481 2878                                   u7721 2AB4  
                                 u7641 2942                                   u5970 1FF0  
                                 u5890 1EA4                                   u7570 302A  
                                 u7490 213C                                   u7650 2988  
                                 u5971 1FEC                                   u5891 1EA0  
                                 u7571 3026                                   u7491 2138  
                                 u7651 2984                                   u5980 201E  
                                 u7580 3046                                   u7660 29CA  
                                 u5981 201A                                   u7581 3042  
                                 u7661 29C6                                   u5990 2034  
                                 u7670 2A0C                                   u5991 2030  
                                 u7591 30E6                                   u7671 2A08  
                                 u7680 2A48                                   u7681 2A44  
                                 u7690 2A6C                                   u7691 2A68  
                                 u6980 1A70                                   u6981 1A6C  
                                 u6990 1B08                                   u6991 1B04  
                                 _TMR2 000FBC                                   _WPUB 000F61  
                                 _main 288C                       __end_of_I2C_Free 3844  
                     __end_of_I2C_Init 2CEA                                   fsr1h 000FE2  
                                 fsr2h 000FDA                                   indf1 000FE7  
                                 indf2 000FDF                                   fsr1l 000FE1  
                                 fsr2l 000FD9                                   btemp 005F  
                        __CFG_BORV$190 000000                                   prodh 000FF4  
                                 prodl 000FF3                                   start 0052  
                      _getMemoryFromID 3280                          __CFG_IESO$OFF 000000  
                      ___fldiv@new_exp 009F                       ?_I2C_Read_Buffer 01F8  
                           i2getFree@i 005D                           ___param_bank 000000  
                     ?_I2C_Master_Stop 0001           I2C_timer_prescaler@prescUsed 00AF  
                I2C_TabRefresh@Pointer 0099                          ___fltol@sign1 0088  
                      __end_of___fladd 15A2                                  ?_main 0001  
                      __end_of___fldiv 211C                        __end_of___flmul 19CE  
                      __end_of___flsub 39C8                        __end_of___fltol 349A  
     I2C_Read_Register_Request@adresse 009F                                  i2l205 04BC  
                                i2l224 05D8                                  i2l216 0574  
                                i2l208 04CA                                  i2l233 06F6  
                                i2l164 06A8                                  i2l174 06A6  
                                i2l175 00F6                                  i2l185 01E2  
                                i2l169 00AE                                  i2l194 02DE  
                                i2l187 028A                                  i2l369 10DE  
                                _TRISA 000F92                                  _TRISB 000F93  
                                _TRISC 000F94                                  _TRISD 000F95  
                                _TRISE 000F96                     __size_of_ISR_Tasks 004A  
                        __CFG_WRT0$OFF 000000                          __CFG_WRT1$OFF 000000  
                     __end_of_ISR_Init 3A80                          __CFG_WRT2$OFF 000000  
                        __CFG_WRT3$OFF 000000                        __end_of_getFree 0C14  
                           i2memcpy@d1 0001                         __CFG_EBTR0$OFF 000000  
                       __CFG_FCMEN$OFF 000000                         __CFG_EBTR1$OFF 000000  
                           i2memcpy@s1 0003                         __CFG_EBTR2$OFF 000000  
                       __CFG_EBTR3$OFF 000000                          __CFG_WRTB$OFF 000000  
                        __CFG_WRTC$OFF 000000                          __CFG_WRTD$OFF 000000  
     I2C_Read_Register_Request@rcvData 009D                        i2getFree@indice 005C  
                       __CFG_EBTRB$OFF 000000                                  _array 0200  
                   __CFG_MCLRE$EXTMCLR 000000                                  _timer 00D7  
                    __end_of_I2C_Write 288C                         __CFG_BOREN$OFF 000000  
                                pclath 000FFA                                  tablat 000FF5  
                         ?_memory_init 0001                                  plusw1 000FE3  
                                plusw2 000FDB                                  ttemp5 0060  
                                ttemp6 0063                                  ttemp7 0067  
                                status 000FD8                                  wtemp8 0060  
                     __end_ofi2_memcpy 3936                         __CFG_FOSC$HSHP 000000  
                     _getMemoryPointer 23AA                        __initialization 3896  
                   __size_ofi2_getFree 04CC                           __end_of_main 2ACA  
                            ??_I2C_ISR 0060               I2C_timer_prescaler@presc 00AD  
             getMemoryPointer@sizeData 0090                                 ??_main 02FC  
                 __size_of_getFreeFull 007E                          __activetblptr 000002  
                       __CFG_PLLCFG$ON 000000                      ?_I2C_Master_Start 0080  
                    ?_I2C_Master_Write 0080                              I2C_Free@i 009B  
                 __size_of_getMemoryID 011E                I2C_Master_Start@adresse 0080  
                   ??_I2C_Master_Start 0082                     ??_I2C_Master_Write 0082  
                         ?_ISR_Routine 0001                                 _ANSELA 000F38  
                               _ANSELB 000F39                                 _ANSELC 000F3A  
                               _ANSELE 000F3C                __end_of_getMemoryFromID 3392  
                               i2l1151 3934                         __CFG_WDTEN$OFF 000000  
                               i2l5411 0C14                                 i2l5413 0C2E  
                               i2l5501 0156                                 i2l5431 0CAC  
                               i2l5423 0C5A                                 i2l5415 0C52  
                               i2l5511 019A                                 i2l5503 0162  
                               i2l5441 0D6E                                 i2l5425 0C92  
                               i2l5417 0C56                                 i2l5601 040C  
                               i2l5521 01C4                                 i2l5513 019E  
                               i2l5505 016E                                 i2l5451 0E7C  
                               i2l5443 0DB4                                 i2l5427 0C9A  
                               i2l5611 0472                                 i2l5603 0412  
                               i2l5523 01C6                                 i2l5515 01B0  
                               i2l5507 0176                                 i2l6227 002A  
                               i2l4901 3906                                 i2l5461 0F3E  
                               i2l5445 0E42                                 i2l5437 0CB0  
                               i2l5429 0C9C                                 i2l5621 04A2  
                               i2l5613 0474                                 i2l5605 0422  
                               i2l5541 0236                                 i2l5533 01E4  
                               i2l5525 01C8                                 i2l5517 01B8  
                               i2l5509 0198                                 i2l4903 390A  
                               i2l5463 1036                                 i2l5439 0D2A  
                               i2l5447 0E6A                                 i2l5631 04EE  
                               i2l5623 04B6                                 i2l5615 048A  
                               i2l5607 042C                                 i2l5551 0282  
                               i2l5543 0256                                 i2l5535 01EE  
                               i2l5527 01DA                                 i2l5519 01C0  
                               i2l5471 0064                                 i2l4905 3916  
                               i2l5465 1038                                 i2l5457 0E80  
                               i2l5449 0E6C                                 i2l5641 053A  
                               i2l5633 04FE                                 i2l5625 04C2  
                               i2l5617 048E                                 i2l5609 0456  
                               i2l5553 028C                                 i2l5561 02BC  
                               i2l5545 0258                                 i2l5537 022C  
                               i2l5481 00CC                                 i2l5473 0072  
                               i2l4907 391A                                 i2l5467 1048  
                               i2l5459 0EFA                                 i2l5651 0582  
                               i2l5635 0510                                 i2l5643 0542  
                               i2l5627 04D8                                 i2l5619 049E  
                               i2l5563 02C2                                 i2l5555 0294  
                               i2l5547 026A                                 i2l5539 022E  
                               i2l5491 0116                                 i2l5483 00D4  
                               i2l5475 0086                                 i2l5653 0594  
                               i2l5661 05BE                                 i2l5645 0556  
                               i2l5637 0522                                 i2l5629 04DC  
                               i2l5581 031E                                 i2l5573 02E2  
                               i2l5565 02C6                                 i2l5557 02B4  
                               i2l5549 0276                                 i2l5493 011E  
                               i2l5485 00DE                                 i2l5477 0098  
                               i2l5469 0056                                 i2l5901 396A  
                               i2l5671 05FC                                 i2l5663 05D0  
                               i2l5647 0566                                 i2l5639 052A  
                               i2l5583 0348                                 i2l5591 03A8  
                               i2l5575 02F4                                 i2l5559 02B6  
                               i2l5495 0140                                 i2l5487 00EE  
                               i2l5479 00B2                                 i2l5673 060C  
                               i2l5657 05AA                                 i2l5649 056A  
                               i2l5593 03BC                                 i2l5585 0364  
                               i2l5577 0304                                 i2l5497 0142  
                               i2l5489 0104                                 i2l5691 06D0  
                               i2l5675 0616                                 i2l5667 05E6  
                               i2l5595 03D4                                 i2l5587 0366  
                               i2l5579 0314                                 i2l5499 0146  
                               i2l5693 06E2                                 i2l5677 0628  
                               i2l5669 05EA                                 i2l5597 03E8  
                               i2l5589 03A4                                 i2l5685 0640  
                               i2l5695 06EC                                 i2l5687 06B6  
                               i2l6399 0658                                 i2l5679 0638  
                               i2l5599 03FC                                 i2l4897 38E6  
                               i2l5697 06F4                                 i2l5689 06CA  
                               i2l4899 38FA                                 i2l5895 3936  
                               i2l5897 393E                                 i2l5899 3968  
                     i2getFree@Pointer 000C                                 _TMR2IE 007CE9  
                               _TMR2IF 007CF1                                 _SSP1IE 007CEB  
                               _SSP1IF 007CF3                    _I2C_timer_prescaler 19CE  
                     __end_of___xxtofl 2EA2                      __end_of_ISR_Tasks 3980  
                       __CFG_XINST$OFF 000000                            i2memcpy@tmp 0007  
                               ___flge 349A                                 ___fleq 35A0  
              __size_of_I2C_TabRefresh 007E                              ??___fladd 0088  
                            ??___fldiv 0096                         __CFG_STVREN$ON 000000  
                            ??___flmul 0088                              ??___flsub 0098  
                            ??___fltol 0084                                 _memcpy 3844  
                               _memset 2EA2                                 _memory 027A  
                               clear_0 38BA                                 clear_1 38C6  
                               clear_2 38D2                       __end_of_myMalloc 36EC  
                            ??_getFree 008E                   ?_I2C_timer_prescaler 00A7  
                            ?_I2C_Free 0001                              ?_I2C_Init 00B3  
                               tblptrh 000FF7                                 tblptrl 000FF6  
                               tblptru 000FF8                           I2C_ISR@point 0069  
                    __end_ofi2_getFree 10E0                        __CFG_HFOFST$OFF 000000  
                           ___flge@ff1 0099                             ___flge@ff2 009D  
                         ___xxtofl@arg 008A                           ___xxtofl@exp 0089  
                         ___xxtofl@val 0080                             ___fleq@ff1 0080  
                           ___fleq@ff2 0084                             __accesstop 0060  
              __end_of__initialization 38D8                        __CFG_PBADEN$OFF 000000  
                        ___rparam_used 000001                             ___fltol@f1 0080  
                         i2getFree@tab 001A                         __pcstackCOMRAM 0001  
                            ?_ISR_Init 0001                           __pidataBANK1 3A80  
         getMemoryPointer@memoryNumber 0086                 getMemoryPointer@indice 008D  
                ??_I2C_timer_prescaler 00B3                 I2C_timer_prescaler@min 00B1  
                           ??_I2C_Free 0099                             ??_I2C_Init 00B5  
                            ?i2_memcpy 0001                             I2C_ISR@ack 00DD  
                           __pbssBANK0 00C0                             __pbssBANK1 0100  
                           __pbssBANK2 0200                       ?_getMemoryFromID 0080  
                  I2C_ISR@Pointeur_731 0073                    I2C_ISR@Pointeur_727 006B  
                  I2C_ISR@Pointeur_729 006F                   I2C_timer_prescaler@x 01BC  
                 __size_of_memory_init 0018                         main@bufferSize 0300  
                   __CFG_CCP2MX$PORTC1 000000                         I2C_Init@prUsed 00BA  
                           ??_ISR_Init 0080                                ?___flge 0099  
                              ?___fleq 0080                     __CFG_CCP3MX$PORTB5 000000  
                       _PointerRefresh 00D9                                _I2C_ISR 0056  
                       getFree@Pointer 008B                                ?_memcpy 0080  
                   getMemoryID@Pointer 0080                                ?_memset 0080  
                           I2C_Write@i 009D                              ?___xxtofl 0080  
                           ??i2_memcpy 0007               __end_of_getMemoryPointer 2626  
                              _SSP1ADD 000FC8                                _SSP1BUF 000FC9  
       I2C_Read_Register_Request@delay 0098           __size_of_ISR_ConnectFunction 001E  
                            _I2CConfig 010B                   __size_of_ISR_Routine 004A  
                            _I2CMemory 0100                              ?_myMalloc 0080  
                            _I2C_Write 2626                        __CFG_PWRTEN$OFF 000000  
                              __Hparam 0000                              _I2Cadress 00DB  
                              __Lparam 0000                       getMemoryFromID@i 008B  
                       _I2C_TabRefresh 36EC                        __size_of___flge 0106  
                      __size_of___fleq 00AC                                ___fladd 10E0  
                              ___fldiv 1D80                                ___flmul 15A2  
                              ___flsub 3980                                ___fltol 3392  
                     I2C_Read_Buffer@i 009F                                __pcinit 3896  
                      __size_of_memcpy 0052                        __size_of_memset 0178  
                    i2getFree@tabPoint 005A                                __ramtop 0600  
                              _getFree 06F8               __size_of_I2C_Read_Buffer 0148  
                              __ptext0 288C                                __ptext1 3A78  
                              __ptext2 3A2E                                __ptext3 2626  
                              __ptext4 39C8                                __ptext5 3A64  
                              __ptext6 3A04                                __ptext7 211C  
                              __ptext8 301A                                __ptext9 23AA  
                           fp__I2C_ISR 0000                              _T2CONbits 000FBA  
                              _myMemID 00D5                             ??___xxtofl 0084  
                              _myMsgID 00DF               __size_of_I2C_Master_Stop 0014  
                 end_of_initialization 38D8                                memcpy@d 0087  
                              memcpy@n 0084                                memcpy@s 0089  
                              memset@c 0082                                memset@k 0088  
                              memset@n 0084                                memset@s 008A  
                        __Lmediumconst 0000                             ??_myMalloc 0082  
                           ?_I2C_Write 0094              __size_of_I2C_Master_Start 002A  
            __size_of_I2C_Master_Write 003C                             getFree@tab 01B4  
               __end_of_I2C_TabRefresh 376A                             _nulPointer 01B2  
                     I2C_Write@adresse 009C                              _ISRConfig 00C0  
                              postdec2 000FDD                                postinc0 000FEE  
                              postinc1 000FE6                                postinc2 000FDE  
                            _ISR_Tasks 3936                          ??_getFreeFull 0080  
               I2C_Read_Buffer@adresse 01F8                          ??_getMemoryID 0083  
                          ___fladd@grs 008F                          ___xxtofl@sign 0088  
                    __size_of_I2C_Free 005C                      __size_of_I2C_Init 0220  
                          ___fldiv@grs 00A1                            ___fldiv@rem 009A  
                 myMalloc@memoryNumber 0080                        I2C_Free@Pointer 0099  
                           main@Status 0309                            ___flmul@grs 008E  
                            i2_getFree 0C14                             main@buffer 0301  
                      ?_I2C_TabRefresh 0001                             ?_ISR_Tasks 0001  
              getMemoryPointer@Pointer 008E                         __end_of___flge 35A0  
                       __end_of___fleq 364C                      __size_of_ISR_Init 0008  
                            i2memcpy@d 0008                              i2memcpy@n 0005  
                            i2memcpy@s 000A                         __end_of_memcpy 3896  
                       __end_of_memset 301A     __size_of_I2C_Read_Register_Request 028E  
           ?_I2C_Read_Register_Request 0094                    __end_of_getFreeFull 37E8  
                  start_initialization 3896  I2C_Read_Register_Request@sendsizeData 0096  
                    ??_I2C_Read_Buffer 009C                I2C_timer_prescaler@minB 01C0  
                    __size_ofi2_memcpy 0050                    __end_of_getMemoryID 3280  
              I2C_timer_prescaler@pr_f 01C4                               I2C_ISR@i 00DE  
                           ?i2_getFree 000C                      ??_I2C_Master_Stop 0080  
                          ??_I2C_Write 0098            __end_of_I2C_timer_prescaler 1D80  
                             ??___flge 00A1                               ??___fleq 0088  
                  _ISR_ConnectFunction 3A2E                            __pdataBANK1 01FC  
                             ?_I2C_ISR 0001                               ??_memcpy 0086  
                             ??_memset 0086                             memset@dest 0080  
                       I2C_Write@delay 0097                            I2C_ISR@type 0077  
                            ___fladd@a 0084                              ___fladd@b 0080  
                            ___fldiv@a 0092                              ___fldiv@b 008E  
    __end_of_I2C_Read_Register_Request 23AA                              ___flmul@a 0084  
                            ___flmul@b 0080                              ___flsub@a 0094  
                            ___flsub@b 0090                          __pcstackBANK0 0060  
                        __pcstackBANK1 01B4                          __pcstackBANK2 02FC  
                        __pcstackBANK3 0300                      ?_getMemoryPointer 0086  
                    __size_of___xxtofl 01B8                   ?_ISR_ConnectFunction 0080  
                      I2C_Init@Options 00B7                  I2C_timer_prescaler@pr 01C8  
                   ??_getMemoryPointer 0088                          ??_memory_init 0086  
                     _I2C_Master_Start 3A04                       _I2C_Master_Write 39C8  
                    __size_of_myMalloc 00A0               __size_of_getMemoryFromID 0112  
                          I2C_Init@min 00BC                              __pintcode 0008  
                             ?___fladd 0080                               ?___fldiv 008E  
                             ?___flmul 0080                               ?___flsub 0090  
                             ?___fltol 0080                            ??_ISR_Tasks 005E  
                          _getFreeFull 376A                   I2C_Master_Write@data 0080  
                           ISR_Tasks@i 005E                               ?_getFree 008B  
                        getFree@indice 01F6                       __CFG_PRICLKEN$ON 000000  
                    getMemoryID@indice 0088                        I2C_TabRefresh@i 009B  
                          _getMemoryID 3162                      I2C_Init@prescUsed 00B8  
                             _I2C_Free 37E8                               _I2C_Init 2ACA  
                   getMemoryPointer@dP 0091                  ??_ISR_ConnectFunction 0082  
                        ??_ISR_Routine 0078                            ??i2_getFree 000F  
                i2getFree@memoryNumber 000E            getMemoryFromID@memoryNumber 0080  
                  __end_of_memory_init 3A64                               i2u650_40 0D6E  
                             i2u730_40 397E                               i2u650_41 0D6A  
                             i2u730_41 397A                               i2u651_40 0E7C  
                             i2u651_41 0E78                               i2u652_40 0EFA  
                             i2u660_40 00CC                               i2u652_41 0EF6  
                             i2u660_41 00C8                               i2u653_40 0F3E  
                             i2u661_40 0104                               i2u653_41 0F3A  
                             i2u661_41 0100                               i2u566_40 3934  
                             i2u654_40 1048                               i2u646_40 0C2E  
                             i2u670_40 0304                               i2u662_40 0116  
                             i2u566_41 3930                               i2u654_41 1044  
                             i2u646_41 0C2A                               i2u670_41 0300  
                             i2u662_41 0112                               i2u647_40 0C92  
                             i2u663_40 0156                               i2u655_40 0064  
                             i2u647_41 0C8E                               i2u671_41 0340  
                             i2u663_41 0152                               i2u655_41 0060  
                             i2u648_40 0CAC                               i2u680_40 0510  
                             i2u672_40 03A4                               i2u664_40 01B0  
                             i2u656_40 0072                               i2u648_41 0CA8  
                             i2u680_41 050C                               i2u672_41 03A0  
                             i2u664_41 01AC                               i2u656_41 006E  
                             i2u649_40 0D2A                               i2u681_40 0522  
                             i2u665_40 01DA                               i2u657_40 0086  
                             i2u649_41 0D26                               i2u681_41 051E  
                             i2u673_41 044E                               i2u665_41 01D6  
                             i2u657_41 0082                               i2u690_40 05E6  
                             i2u682_40 053A                               i2u674_40 048A  
                             i2u666_40 022C                               i2u658_40 0098  
                             i2u729_48 3954                               i2u690_41 05E2  
                             i2u682_41 0536                               i2u674_41 0486  
                             i2u666_41 0228                               i2u658_41 0094  
                             i2u729_49 3968                               i2u691_40 05FC  
                             i2u683_40 0556                               i2u675_40 049E  
                             i2u667_40 026A                               i2u659_40 00AA  
                             i2u691_41 05F8                               i2u683_41 0552  
                             i2u675_41 049A                               i2u667_41 0266  
                             i2u659_41 00A6                               i2u692_40 060C  
                             i2u684_40 0566                               i2u676_40 04B6  
                             i2u668_40 02DA                               i2u692_41 0608  
                             i2u684_41 0562                               i2u676_41 04B2  
                             i2u668_41 02D6                               i2u693_40 0628  
                             i2u685_40 0582                               i2u677_40 04D8  
                             i2u669_40 02F4                               i2u693_41 0624  
                             i2u685_41 057E                               i2u677_41 04D4  
                             i2u669_41 02F0                               i2u694_40 0638  
                             i2u686_40 0594                               i2u678_40 04EE  
                             i2u694_41 0634                               i2u686_41 0590  
                             i2u678_41 04EA                               i2u695_40 06B6  
                             i2u687_40 05A6                               i2u679_40 04FE  
                             i2u695_41 06B2                               i2u687_41 05A2  
                             i2u679_41 04FA                               i2u696_40 06CA  
                             i2u688_40 05BA                               i2u696_41 06C6  
                             i2u688_41 05B6                               i2u697_40 06E2  
                             i2u689_40 05D0                               i2u697_41 06DE  
                             i2u689_41 05CC                               _ISR_Init 3A78  
                     __CFG_WDTPS$32768 000000                              main@F6289 01FC  
                      getFree@tabPoint 01F4      I2C_Read_Register_Request@Pointeur 00A0  
                     __size_of_I2C_ISR 06A2                               i2_memcpy 38E6  
                            main@point 0303                            _INTCON2bits 000FF1  
                     ??_I2C_TabRefresh 0099                    __end_of_ISR_Routine 0052  
                     I2C_ISR@point_730 0071                       I2C_ISR@point_732 0075  
                     I2C_ISR@point_728 006D                               __Hrparam 0000  
    I2C_Read_Register_Request@sendData 0094                              memcpy@tmp 0086  
                             __Lrparam 0000                      getMemoryFromID@ID 0087  
                    getMemoryFromID@dP 0089                      __CFG_P2BMX$PORTD2 000000  
                        I2C_Write@data 0094                       __size_of___fladd 04C2  
                     __size_of___fldiv 039C                       __size_of___flmul 042C  
                     __size_of___flsub 0048                       __size_of___fltol 0108  
                      _I2C_Read_Buffer 301A                      ??_getMemoryFromID 0082  
                     __size_of_getFree 051C            ??_I2C_Read_Register_Request 0099  
                    I2C_Read_Buffer@ID 009C                               ___xxtofl 2CEA  
                      _I2C_Master_Stop 3A64                        I2C_ISR@Pointeur 0067  
                             __ptext10 364C                               __ptext11 3162  
                             __ptext20 3392                               __ptext12 36EC  
                             __ptext21 3980                               __ptext13 2ACA  
                             __ptext22 10E0                               __ptext14 2EA2  
                             __ptext31 3936                               __ptext23 15A2  
                             __ptext15 3A4C                               __ptext32 0056  
                             __ptext24 349A                               __ptext16 376A  
                             __ptext33 0C14                               __ptext25 1D80  
                             __ptext17 35A0                               __ptext34 38E6  
                             __ptext26 37E8                               __ptext18 19CE  
                             __ptext35 0000                               __ptext27 3280  
                             __ptext19 2CEA                               __ptext28 06F8  
                             __ptext29 3844                           _SSP1CON1bits 000FC6  
                         _SSP1CON2bits 000FC5                           getFreeFull@i 0085  
                          _memory_init 3A4C                      getMemoryPointer@i 0093  
                        __size_of_main 023E                               _myMalloc 364C  
                             getFree@i 01F7                               int$flags 005F  
                getMemoryFromID@indice 0088                               main@data 0305  
                         _SSP1STATbits 000FC7              I2C_timer_prescaler@prUsed 00AB  
            I2C_timer_prescaler@period 00A7            ISR_ConnectFunction@Function 0080  
             __end_of_I2C_Master_Start 3A2E               __end_of_I2C_Master_Write 3A04  
                           _INTCONbits 000FF2                           getMemoryID@i 0089  
                             memcpy@d1 0080                               memcpy@s1 0082  
                    I2C_Write@Pointeur 009E                            _ISR_Routine 0008  
                             intlevel2 0000              _I2C_Read_Register_Request 211C  
                  getFree@memoryNumber 008D                             _OSCCONbits 000FD3  
              __end_of_I2C_Read_Buffer 3162              __size_of_getMemoryPointer 027C  
              I2C_Read_Buffer@Pointeur 009D                           ?_getFreeFull 0001  
              __end_of_I2C_Master_Stop 3A78                getMemoryID@memoryNumber 0082  
         __size_of_I2C_timer_prescaler 03B2                           ?_getMemoryID 0080  
                    __CFG_T3CMX$PORTC0 000000                          ___fladd@signs 008C  
                    I2C_Write@sizeData 0096                           ___fladd@aexp 008D  
                         ___fladd@bexp 008E               _I2C_timer_prescaler$1030 01B8  
             _I2C_timer_prescaler$1029 01B4  
